ARM GAS  C:\Users\kuzni\AppData\Local\Temp\cc7Ky549.s 			page 1


   1              		.syntax unified
   2              		.cpu cortex-m3
   3              		.fpu softvfp
   4              		.eabi_attribute 20, 1
   5              		.eabi_attribute 21, 1
   6              		.eabi_attribute 23, 3
   7              		.eabi_attribute 24, 1
   8              		.eabi_attribute 25, 1
   9              		.eabi_attribute 26, 1
  10              		.eabi_attribute 30, 1
  11              		.eabi_attribute 34, 1
  12              		.eabi_attribute 18, 4
  13              		.thumb
  14              		.file	"BitNetMCU_inference.c"
  15              		.text
  16              	.Ltext0:
  17              		.cfi_sections	.debug_frame
  18              		.section	.text.ReLUNorm,"ax",%progbits
  19              		.align	2
  20              		.global	ReLUNorm
  21              		.thumb
  22              		.thumb_func
  23              		.type	ReLUNorm, %function
  24              	ReLUNorm:
  25              	.LFB0:
  26              		.file 1 ".\\BitNetMCU_inference.c"
   1:.\BitNetMCU_inference.c **** /*
   2:.\BitNetMCU_inference.c ****     BitNetMCU inference functions
   3:.\BitNetMCU_inference.c ****     @cpldcpu April 2024
   4:.\BitNetMCU_inference.c **** 
   5:.\BitNetMCU_inference.c ****     Performs inference on fully connected layer on a very resource constrained MCU.
   6:.\BitNetMCU_inference.c ****     1,2,4 bit weights are supported.
   7:.\BitNetMCU_inference.c **** 
   8:.\BitNetMCU_inference.c **** */
   9:.\BitNetMCU_inference.c **** 
  10:.\BitNetMCU_inference.c **** #include <stdint.h>
  11:.\BitNetMCU_inference.c **** #include <stdio.h>
  12:.\BitNetMCU_inference.c **** #include "BitNetMCU_inference.h"
  13:.\BitNetMCU_inference.c **** 
  14:.\BitNetMCU_inference.c **** /**
  15:.\BitNetMCU_inference.c ****  * @brief Applies a ReLU activation function to an array of integers and normalizes the result to 8
  16:.\BitNetMCU_inference.c ****  *
  17:.\BitNetMCU_inference.c ****  * @param input Pointer to the input array of 32-bit integers.
  18:.\BitNetMCU_inference.c ****  * @param output Pointer to the output array of 8-bit integers.
  19:.\BitNetMCU_inference.c ****  * @param n_input The number of elements in the input array.
  20:.\BitNetMCU_inference.c ****  * @return The position of maximum value found in the input array before applying the ReLU activati
  21:.\BitNetMCU_inference.c ****  */
  22:.\BitNetMCU_inference.c **** 
  23:.\BitNetMCU_inference.c **** uint32_t ReLUNorm(int32_t *input, int8_t *output, uint32_t n_input) {
  27              		.loc 1 23 0
  28              		.cfi_startproc
  29              		@ args = 0, pretend = 0, frame = 0
  30              		@ frame_needed = 0, uses_anonymous_args = 0
  31              		@ link register save eliminated.
  32              	.LVL0:
  33 0000 F0B4     		push	{r4, r5, r6, r7}
  34              		.cfi_def_cfa_offset 16
ARM GAS  C:\Users\kuzni\AppData\Local\Temp\cc7Ky549.s 			page 2


  35              		.cfi_offset 4, -16
  36              		.cfi_offset 5, -12
  37              		.cfi_offset 6, -8
  38              		.cfi_offset 7, -4
  39              	.LVL1:
  24:.\BitNetMCU_inference.c ****     int32_t max_val = -INT32_MAX;
  25:.\BitNetMCU_inference.c ****     int32_t max_pos = 255;
  26:.\BitNetMCU_inference.c ****     uint32_t scale;
  27:.\BitNetMCU_inference.c ****     uint32_t shift;
  28:.\BitNetMCU_inference.c ****     int32_t rounding;
  29:.\BitNetMCU_inference.c ****     int32_t tmp;
  30:.\BitNetMCU_inference.c ****     uint32_t i;
  31:.\BitNetMCU_inference.c **** 
  32:.\BitNetMCU_inference.c ****     // Find the maximum value in the input array
  33:.\BitNetMCU_inference.c ****     for (i = 0; i < n_input; i++) {
  40              		.loc 1 33 0
  41 0002 0024     		movs	r4, #0
  25:.\BitNetMCU_inference.c ****     uint32_t scale;
  42              		.loc 1 25 0
  43 0004 FF26     		movs	r6, #255
  24:.\BitNetMCU_inference.c ****     int32_t max_val = -INT32_MAX;
  44              		.loc 1 24 0
  45 0006 164B     		ldr	r3, .L13
  46              		.loc 1 33 0
  47 0008 06E0     		b	.L2
  48              	.LVL2:
  49              	.L4:
  34:.\BitNetMCU_inference.c ****         if (input[i] > max_val) {
  50              		.loc 1 34 0
  51 000a 50F82450 		ldr	r5, [r0, r4, lsl #2]
  52 000e 9D42     		cmp	r5, r3
  53 0010 01DD     		ble	.L3
  54              	.LVL3:
  35:.\BitNetMCU_inference.c ****             max_val = input[i];
  36:.\BitNetMCU_inference.c ****             max_pos = i;
  55              		.loc 1 36 0
  56 0012 2646     		mov	r6, r4
  57              	.LVL4:
  35:.\BitNetMCU_inference.c ****             max_val = input[i];
  58              		.loc 1 35 0
  59 0014 2B46     		mov	r3, r5
  60              	.LVL5:
  61              	.L3:
  33:.\BitNetMCU_inference.c ****         if (input[i] > max_val) {
  62              		.loc 1 33 0 discriminator 2
  63 0016 0134     		adds	r4, r4, #1
  64              	.LVL6:
  65              	.L2:
  33:.\BitNetMCU_inference.c ****         if (input[i] > max_val) {
  66              		.loc 1 33 0 is_stmt 0 discriminator 1
  67 0018 9442     		cmp	r4, r2
  68 001a F6D3     		bcc	.L4
  37:.\BitNetMCU_inference.c ****         }
  38:.\BitNetMCU_inference.c ****     }
  39:.\BitNetMCU_inference.c **** 
  40:.\BitNetMCU_inference.c ****     // Normalization
  41:.\BitNetMCU_inference.c ****     // Dynamic shift according to max value in the input array
ARM GAS  C:\Users\kuzni\AppData\Local\Temp\cc7Ky549.s 			page 3


  42:.\BitNetMCU_inference.c ****     scale=max_val>>7;  // define max range, all bits above 7 will be shifted down
  69              		.loc 1 42 0 is_stmt 1
  70 001c DB11     		asrs	r3, r3, #7
  71              	.LVL7:
  43:.\BitNetMCU_inference.c ****     shift=0;
  72              		.loc 1 43 0
  73 001e 0024     		movs	r4, #0
  74              	.LVL8:
  44:.\BitNetMCU_inference.c **** 
  45:.\BitNetMCU_inference.c ****     while (scale>0) {
  75              		.loc 1 45 0
  76 0020 01E0     		b	.L5
  77              	.LVL9:
  78              	.L6:
  46:.\BitNetMCU_inference.c ****         shift++;
  79              		.loc 1 46 0
  80 0022 0134     		adds	r4, r4, #1
  81              	.LVL10:
  47:.\BitNetMCU_inference.c ****         scale>>=1;
  82              		.loc 1 47 0
  83 0024 5B08     		lsrs	r3, r3, #1
  84              	.LVL11:
  85              	.L5:
  45:.\BitNetMCU_inference.c ****         shift++;
  86              		.loc 1 45 0
  87 0026 002B     		cmp	r3, #0
  88 0028 FBD1     		bne	.L6
  48:.\BitNetMCU_inference.c ****     }
  49:.\BitNetMCU_inference.c **** 
  50:.\BitNetMCU_inference.c ****     // impact of rounding is almost negligible (+0.03% in eval accuracy)
  51:.\BitNetMCU_inference.c ****     // But rounding affects mismatch to python inference engine
  52:.\BitNetMCU_inference.c ****     rounding   = (1 << (shift))>>1;
  89              		.loc 1 52 0
  90 002a 2746     		mov	r7, r4
  91 002c 0125     		movs	r5, #1
  92 002e A540     		lsls	r5, r5, r4
  93 0030 6D10     		asrs	r5, r5, #1
  94              	.LVL12:
  53:.\BitNetMCU_inference.c **** 
  54:.\BitNetMCU_inference.c ****     // Apply ReLU activation and normalize to 8-bit
  55:.\BitNetMCU_inference.c ****     for (i = 0; i < n_input; i++) {
  95              		.loc 1 55 0
  96 0032 0024     		movs	r4, #0
  97              	.LVL13:
  98 0034 0FE0     		b	.L7
  99              	.LVL14:
 100              	.L11:
  56:.\BitNetMCU_inference.c ****         // Apply ReLU activation
  57:.\BitNetMCU_inference.c ****         if (input[i] < 0) {
 101              		.loc 1 57 0
 102 0036 50F82430 		ldr	r3, [r0, r4, lsl #2]
 103 003a 002B     		cmp	r3, #0
 104 003c 02DA     		bge	.L8
  58:.\BitNetMCU_inference.c ****             output[i] = 0;
 105              		.loc 1 58 0
 106 003e 0023     		movs	r3, #0
 107 0040 0B55     		strb	r3, [r1, r4]
ARM GAS  C:\Users\kuzni\AppData\Local\Temp\cc7Ky549.s 			page 4


 108 0042 07E0     		b	.L9
 109              	.L8:
  59:.\BitNetMCU_inference.c ****         } else {
  60:.\BitNetMCU_inference.c ****             tmp=(input[i] + rounding) >> shift;
 110              		.loc 1 60 0
 111 0044 2B44     		add	r3, r3, r5
 112 0046 3B41     		asrs	r3, r3, r7
 113              	.LVL15:
  61:.\BitNetMCU_inference.c **** 
  62:.\BitNetMCU_inference.c ****             // clipping needed to catch overflow from rounding
  63:.\BitNetMCU_inference.c ****             if (tmp > 127) {
 114              		.loc 1 63 0
 115 0048 7F2B     		cmp	r3, #127
 116 004a 02DD     		ble	.L10
  64:.\BitNetMCU_inference.c ****                 output[i] = 127;
 117              		.loc 1 64 0
 118 004c 7F23     		movs	r3, #127
 119              	.LVL16:
 120 004e 0B55     		strb	r3, [r1, r4]
 121              	.LVL17:
 122 0050 00E0     		b	.L9
 123              	.LVL18:
 124              	.L10:
  65:.\BitNetMCU_inference.c ****             } else {
  66:.\BitNetMCU_inference.c ****             output[i] = tmp;
 125              		.loc 1 66 0
 126 0052 0B55     		strb	r3, [r1, r4]
 127              	.LVL19:
 128              	.L9:
  55:.\BitNetMCU_inference.c ****         // Apply ReLU activation
 129              		.loc 1 55 0 discriminator 2
 130 0054 0134     		adds	r4, r4, #1
 131              	.LVL20:
 132              	.L7:
  55:.\BitNetMCU_inference.c ****         // Apply ReLU activation
 133              		.loc 1 55 0 is_stmt 0 discriminator 1
 134 0056 9442     		cmp	r4, r2
 135 0058 EDD3     		bcc	.L11
  67:.\BitNetMCU_inference.c ****             }
  68:.\BitNetMCU_inference.c ****         }
  69:.\BitNetMCU_inference.c ****     }
  70:.\BitNetMCU_inference.c ****     return max_pos;
  71:.\BitNetMCU_inference.c **** }
 136              		.loc 1 71 0 is_stmt 1
 137 005a 3046     		mov	r0, r6
 138              	.LVL21:
 139 005c F0BC     		pop	{r4, r5, r6, r7}
 140              		.cfi_restore 7
 141              		.cfi_restore 6
 142              		.cfi_restore 5
 143              		.cfi_restore 4
 144              		.cfi_def_cfa_offset 0
 145              	.LVL22:
 146 005e 7047     		bx	lr
 147              	.L14:
 148              		.align	2
 149              	.L13:
ARM GAS  C:\Users\kuzni\AppData\Local\Temp\cc7Ky549.s 			page 5


 150 0060 01000080 		.word	-2147483647
 151              		.cfi_endproc
 152              	.LFE0:
 153              		.size	ReLUNorm, .-ReLUNorm
 154              		.section	.text.processfclayer,"ax",%progbits
 155              		.align	2
 156              		.global	processfclayer
 157              		.thumb
 158              		.thumb_func
 159              		.type	processfclayer, %function
 160              	processfclayer:
 161              	.LFB1:
  72:.\BitNetMCU_inference.c **** 
  73:.\BitNetMCU_inference.c **** /**
  74:.\BitNetMCU_inference.c ****  * @brief Processes a fully connected layer in a neural network.
  75:.\BitNetMCU_inference.c ****  *
  76:.\BitNetMCU_inference.c ****  * This function processes a fully connected layer in a neural network by performing
  77:.\BitNetMCU_inference.c ****  * the dot product of the input activations and weights, and stores the result in the output array.
  78:.\BitNetMCU_inference.c ****  *
  79:.\BitNetMCU_inference.c ****  * @param activations Pointer to the input activations of the layer.
  80:.\BitNetMCU_inference.c ****  * @param weights Pointer to the weights of the layer.
  81:.\BitNetMCU_inference.c ****  * @param bits_per_weight The number of bits per weight.
  82:.\BitNetMCU_inference.c ****  * @param n_input The number of input neurons.
  83:.\BitNetMCU_inference.c ****  * @param n_output The number of output neurons.
  84:.\BitNetMCU_inference.c ****  * @param output Pointer to the output array where the result of the layer is stored.
  85:.\BitNetMCU_inference.c ****  */
  86:.\BitNetMCU_inference.c **** 
  87:.\BitNetMCU_inference.c **** void processfclayer( int8_t *activations,  const uint32_t *weights, int32_t bits_per_weight, uint32
  88:.\BitNetMCU_inference.c **** {
 162              		.loc 1 88 0
 163              		.cfi_startproc
 164              		@ args = 8, pretend = 0, frame = 0
 165              		@ frame_needed = 0, uses_anonymous_args = 0
 166              	.LVL23:
 167 0000 2DE9F04F 		push	{r4, r5, r6, r7, r8, r9, r10, fp, lr}
 168              		.cfi_def_cfa_offset 36
 169              		.cfi_offset 4, -36
 170              		.cfi_offset 5, -32
 171              		.cfi_offset 6, -28
 172              		.cfi_offset 7, -24
 173              		.cfi_offset 8, -20
 174              		.cfi_offset 9, -16
 175              		.cfi_offset 10, -12
 176              		.cfi_offset 11, -8
 177              		.cfi_offset 14, -4
 178 0004 DDF82490 		ldr	r9, [sp, #36]
 179 0008 DDF828A0 		ldr	r10, [sp, #40]
 180              	.LVL24:
  89:.\BitNetMCU_inference.c ****    const uint32_t *weightidx = weights;
  90:.\BitNetMCU_inference.c ****    uint32_t i, k, j;
  91:.\BitNetMCU_inference.c ****    int32_t sum;
  92:.\BitNetMCU_inference.c ****    int32_t in;
  93:.\BitNetMCU_inference.c ****    int32_t tmpsum;
  94:.\BitNetMCU_inference.c ****    int32_t weight;
  95:.\BitNetMCU_inference.c ****    uint32_t weightChunk;
  96:.\BitNetMCU_inference.c **** 
  97:.\BitNetMCU_inference.c ****     for (i = 0; i < n_output; i++) {
ARM GAS  C:\Users\kuzni\AppData\Local\Temp\cc7Ky549.s 			page 6


 181              		.loc 1 97 0
 182 000c 4FF00008 		mov	r8, #0
 183 0010 C3E0     		b	.L16
 184              	.LVL25:
 185              	.L53:
 186              	.LBB2:
  98:.\BitNetMCU_inference.c ****         int8_t *activations_idx = activations;
  99:.\BitNetMCU_inference.c ****         sum = 0;
 100:.\BitNetMCU_inference.c **** 
 101:.\BitNetMCU_inference.c ****         if (bits_per_weight == 1) {
 187              		.loc 1 101 0
 188 0012 012A     		cmp	r2, #1
 189 0014 1CD1     		bne	.L61
 190 0016 15E0     		b	.L54
 191              	.LVL26:
 192              	.L22:
 102:.\BitNetMCU_inference.c ****             for (k = 0; k < n_input; k+=32) {
 103:.\BitNetMCU_inference.c ****                 weightChunk = *weightidx++;
 193              		.loc 1 103 0
 194 0018 01F1040C 		add	ip, r1, #4
 195              	.LVL27:
 196 001c 0E68     		ldr	r6, [r1]
 197              	.LVL28:
 104:.\BitNetMCU_inference.c ****                 for (j = 0; j < 32; j++) {
 198              		.loc 1 104 0
 199 001e 0025     		movs	r5, #0
 200 0020 0AE0     		b	.L19
 201              	.LVL29:
 202              	.L21:
 105:.\BitNetMCU_inference.c ****                     in=*activations_idx++;
 203              		.loc 1 105 0
 204 0022 0BF10107 		add	r7, fp, #1
 205              	.LVL30:
 206 0026 9BF90010 		ldrsb	r1, [fp]
 207              	.LVL31:
 106:.\BitNetMCU_inference.c ****                     sum += (weightChunk & 0x80000000) ? in : -in;  // Note that sign is flipped for
 208              		.loc 1 106 0
 209 002a 002E     		cmp	r6, #0
 210 002c 00DB     		blt	.L20
 211              		.loc 1 106 0 is_stmt 0 discriminator 1
 212 002e 4942     		negs	r1, r1
 213              	.LVL32:
 214              	.L20:
 215              		.loc 1 106 0 discriminator 4
 216 0030 0C44     		add	r4, r4, r1
 217              	.LVL33:
 107:.\BitNetMCU_inference.c ****                     weightChunk <<= 1;
 218              		.loc 1 107 0 is_stmt 1 discriminator 4
 219 0032 7600     		lsls	r6, r6, #1
 220              	.LVL34:
 104:.\BitNetMCU_inference.c ****                     in=*activations_idx++;
 221              		.loc 1 104 0 discriminator 4
 222 0034 0135     		adds	r5, r5, #1
 223              	.LVL35:
 105:.\BitNetMCU_inference.c ****                     sum += (weightChunk & 0x80000000) ? in : -in;  // Note that sign is flipped for
 224              		.loc 1 105 0 discriminator 4
 225 0036 BB46     		mov	fp, r7
ARM GAS  C:\Users\kuzni\AppData\Local\Temp\cc7Ky549.s 			page 7


 226              	.LVL36:
 227              	.L19:
 104:.\BitNetMCU_inference.c ****                     in=*activations_idx++;
 228              		.loc 1 104 0 discriminator 2
 229 0038 1F2D     		cmp	r5, #31
 230 003a F2D9     		bls	.L21
 102:.\BitNetMCU_inference.c ****                 weightChunk = *weightidx++;
 231              		.loc 1 102 0 discriminator 2
 232 003c 0EF1200E 		add	lr, lr, #32
 233              	.LVL37:
 103:.\BitNetMCU_inference.c ****                 for (j = 0; j < 32; j++) {
 234              		.loc 1 103 0 discriminator 2
 235 0040 6146     		mov	r1, ip
 236 0042 02E0     		b	.L17
 237              	.LVL38:
 238              	.L54:
 239 0044 8346     		mov	fp, r0
 240 0046 0024     		movs	r4, #0
 241 0048 A646     		mov	lr, r4
 242              	.LVL39:
 243              	.L17:
 102:.\BitNetMCU_inference.c ****                 weightChunk = *weightidx++;
 244              		.loc 1 102 0 discriminator 1
 245 004a 9E45     		cmp	lr, r3
 246 004c E4D3     		bcc	.L22
 247 004e A0E0     		b	.L23
 248              	.LVL40:
 249              	.L61:
 108:.\BitNetMCU_inference.c ****                 }
 109:.\BitNetMCU_inference.c ****             }
 110:.\BitNetMCU_inference.c ****         } else if (bits_per_weight == 2 ) {
 250              		.loc 1 110 0
 251 0050 022A     		cmp	r2, #2
 252 0052 20D1     		bne	.L62
 253 0054 19E0     		b	.L56
 254              	.LVL41:
 255              	.L30:
 111:.\BitNetMCU_inference.c ****             for (k = 0; k < n_input; k+=16) {
 112:.\BitNetMCU_inference.c ****                 weightChunk = *weightidx++;
 256              		.loc 1 112 0
 257 0056 01F1040E 		add	lr, r1, #4
 258              	.LVL42:
 259 005a 0968     		ldr	r1, [r1]
 260              	.LVL43:
 113:.\BitNetMCU_inference.c ****                 for (j = 0; j < 16; j++) {
 261              		.loc 1 113 0
 262 005c 0025     		movs	r5, #0
 263 005e 0FE0     		b	.L26
 264              	.LVL44:
 265              	.L29:
 114:.\BitNetMCU_inference.c ****                     in=*activations_idx++;
 266              		.loc 1 114 0
 267 0060 06F1010C 		add	ip, r6, #1
 268              	.LVL45:
 269 0064 96F90060 		ldrsb	r6, [r6]
 270              	.LVL46:
 115:.\BitNetMCU_inference.c ****                     tmpsum = (weightChunk & 0x80000000) ? -in : in; // one complements sign (bit se
ARM GAS  C:\Users\kuzni\AppData\Local\Temp\cc7Ky549.s 			page 8


 271              		.loc 1 115 0
 272 0068 0029     		cmp	r1, #0
 273 006a 00DA     		bge	.L27
 274              		.loc 1 115 0 is_stmt 0 discriminator 1
 275 006c 7642     		negs	r6, r6
 276              	.LVL47:
 277              	.L27:
 116:.\BitNetMCU_inference.c ****                     sum += tmpsum;                                  // sign*in*1
 278              		.loc 1 116 0 is_stmt 1 discriminator 4
 279 006e 3444     		add	r4, r4, r6
 280              	.LVL48:
 117:.\BitNetMCU_inference.c ****                     if (weightChunk & 0x40000000) sum += tmpsum<<1; // sign*in*2
 281              		.loc 1 117 0 discriminator 4
 282 0070 11F0804F 		tst	r1, #1073741824
 283 0074 01D0     		beq	.L28
 284              		.loc 1 117 0 is_stmt 0 discriminator 1
 285 0076 04EB4604 		add	r4, r4, r6, lsl #1
 286              	.LVL49:
 287              	.L28:
 118:.\BitNetMCU_inference.c ****                     weightChunk <<= 2;
 288              		.loc 1 118 0 is_stmt 1 discriminator 2
 289 007a 8900     		lsls	r1, r1, #2
 290              	.LVL50:
 113:.\BitNetMCU_inference.c ****                     in=*activations_idx++;
 291              		.loc 1 113 0 discriminator 2
 292 007c 0135     		adds	r5, r5, #1
 293              	.LVL51:
 114:.\BitNetMCU_inference.c ****                     tmpsum = (weightChunk & 0x80000000) ? -in : in; // one complements sign (bit se
 294              		.loc 1 114 0 discriminator 2
 295 007e 6646     		mov	r6, ip
 296              	.LVL52:
 297              	.L26:
 113:.\BitNetMCU_inference.c ****                     in=*activations_idx++;
 298              		.loc 1 113 0 discriminator 1
 299 0080 0F2D     		cmp	r5, #15
 300 0082 EDD9     		bls	.L29
 111:.\BitNetMCU_inference.c ****                 weightChunk = *weightidx++;
 301              		.loc 1 111 0 discriminator 2
 302 0084 1037     		adds	r7, r7, #16
 303              	.LVL53:
 112:.\BitNetMCU_inference.c ****                 for (j = 0; j < 16; j++) {
 304              		.loc 1 112 0 discriminator 2
 305 0086 7146     		mov	r1, lr
 306              	.LVL54:
 307 0088 02E0     		b	.L24
 308              	.LVL55:
 309              	.L56:
 310 008a 0646     		mov	r6, r0
 311 008c 0024     		movs	r4, #0
 312 008e 2746     		mov	r7, r4
 313              	.LVL56:
 314              	.L24:
 111:.\BitNetMCU_inference.c ****                 weightChunk = *weightidx++;
 315              		.loc 1 111 0 discriminator 1
 316 0090 9F42     		cmp	r7, r3
 317 0092 E0D3     		bcc	.L30
 318 0094 7DE0     		b	.L23
ARM GAS  C:\Users\kuzni\AppData\Local\Temp\cc7Ky549.s 			page 9


 319              	.LVL57:
 320              	.L62:
 119:.\BitNetMCU_inference.c ****                 }
 120:.\BitNetMCU_inference.c ****             }
 121:.\BitNetMCU_inference.c ****         // Multiplier-less inference for RV32EC
 122:.\BitNetMCU_inference.c **** #if defined(__riscv) && !defined(__riscv_mul)
 123:.\BitNetMCU_inference.c ****         } else if (bits_per_weight == 4 ) {
 124:.\BitNetMCU_inference.c ****             for (k = 0; k < n_input; k+=8) {
 125:.\BitNetMCU_inference.c ****                 weightChunk = *weightidx++;
 126:.\BitNetMCU_inference.c ****                 for (j = 0; j < 8; j++) {
 127:.\BitNetMCU_inference.c ****                     in=*activations_idx++;
 128:.\BitNetMCU_inference.c ****                     if (in != 0) { // Skip zero activations to speed up inference in layers after f
 129:.\BitNetMCU_inference.c ****                         tmpsum = (weightChunk & 0x80000000) ? -in : in; // one complements sign (bi
 130:.\BitNetMCU_inference.c ****                         sum += tmpsum;                                  // sign*in*1
 131:.\BitNetMCU_inference.c ****                         if (weightChunk & 0x10000000) sum += tmpsum<<1; // sign*in*2
 132:.\BitNetMCU_inference.c ****                         if (weightChunk & 0x20000000) sum += tmpsum<<2; // sign*in*4
 133:.\BitNetMCU_inference.c ****                         if (weightChunk & 0x40000000) sum += tmpsum<<3; // sign*in*8
 134:.\BitNetMCU_inference.c ****                     }
 135:.\BitNetMCU_inference.c ****                     weightChunk <<= 4;
 136:.\BitNetMCU_inference.c ****                 }
 137:.\BitNetMCU_inference.c ****             }
 138:.\BitNetMCU_inference.c **** #else
 139:.\BitNetMCU_inference.c ****         } else if (bits_per_weight == 4 ) {
 321              		.loc 1 139 0
 322 0096 042A     		cmp	r2, #4
 323 0098 1FD1     		bne	.L63
 324 009a 18E0     		b	.L57
 325              	.LVL58:
 326              	.L37:
 140:.\BitNetMCU_inference.c ****             for (k = 0; k < n_input; k+=8) {
 141:.\BitNetMCU_inference.c ****                 weightChunk = *weightidx++;
 327              		.loc 1 141 0
 328 009c 01F1040E 		add	lr, r1, #4
 329              	.LVL59:
 330 00a0 0D68     		ldr	r5, [r1]
 331              	.LVL60:
 142:.\BitNetMCU_inference.c ****                 for (j = 0; j < 8; j++) {
 332              		.loc 1 142 0
 333 00a2 0021     		movs	r1, #0
 334 00a4 0EE0     		b	.L33
 335              	.LVL61:
 336              	.L36:
 143:.\BitNetMCU_inference.c ****                     in=*activations_idx++;
 337              		.loc 1 143 0
 338 00a6 06F1010C 		add	ip, r6, #1
 339              	.LVL62:
 340 00aa 96F90060 		ldrsb	r6, [r6]
 341              	.LVL63:
 144:.\BitNetMCU_inference.c ****                     if (in != 0) { // Skip zero activations to speed up inference in layers after f
 342              		.loc 1 144 0
 343 00ae 36B1     		cbz	r6, .L34
 145:.\BitNetMCU_inference.c ****                         tmpsum = (weightChunk & 0x80000000) ? -in : in; // one complements sign (bi
 344              		.loc 1 145 0
 345 00b0 002D     		cmp	r5, #0
 346 00b2 00DA     		bge	.L35
 347              		.loc 1 145 0 is_stmt 0 discriminator 1
 348 00b4 7642     		negs	r6, r6
ARM GAS  C:\Users\kuzni\AppData\Local\Temp\cc7Ky549.s 			page 10


 349              	.LVL64:
 350              	.L35:
 146:.\BitNetMCU_inference.c ****                         sum += tmpsum * ((weightChunk>>(32-4))&7);                                 
 351              		.loc 1 146 0 is_stmt 1 discriminator 4
 352 00b6 C5F3027B 		ubfx	fp, r5, #28, #3
 353 00ba 06FB0B44 		mla	r4, r6, fp, r4
 354              	.LVL65:
 355              	.L34:
 147:.\BitNetMCU_inference.c ****                     }
 148:.\BitNetMCU_inference.c ****                     weightChunk <<= 4;
 356              		.loc 1 148 0 discriminator 2
 357 00be 2D01     		lsls	r5, r5, #4
 358              	.LVL66:
 142:.\BitNetMCU_inference.c ****                     in=*activations_idx++;
 359              		.loc 1 142 0 discriminator 2
 360 00c0 0131     		adds	r1, r1, #1
 361              	.LVL67:
 143:.\BitNetMCU_inference.c ****                     if (in != 0) { // Skip zero activations to speed up inference in layers after f
 362              		.loc 1 143 0 discriminator 2
 363 00c2 6646     		mov	r6, ip
 364              	.LVL68:
 365              	.L33:
 142:.\BitNetMCU_inference.c ****                     in=*activations_idx++;
 366              		.loc 1 142 0 discriminator 1
 367 00c4 0729     		cmp	r1, #7
 368 00c6 EED9     		bls	.L36
 140:.\BitNetMCU_inference.c ****                 weightChunk = *weightidx++;
 369              		.loc 1 140 0 discriminator 2
 370 00c8 0837     		adds	r7, r7, #8
 371              	.LVL69:
 141:.\BitNetMCU_inference.c ****                 for (j = 0; j < 8; j++) {
 372              		.loc 1 141 0 discriminator 2
 373 00ca 7146     		mov	r1, lr
 374              	.LVL70:
 375 00cc 02E0     		b	.L31
 376              	.LVL71:
 377              	.L57:
 378 00ce 0646     		mov	r6, r0
 379 00d0 0024     		movs	r4, #0
 380 00d2 2746     		mov	r7, r4
 381              	.LVL72:
 382              	.L31:
 140:.\BitNetMCU_inference.c ****                 weightChunk = *weightidx++;
 383              		.loc 1 140 0 discriminator 1
 384 00d4 9F42     		cmp	r7, r3
 385 00d6 E1D3     		bcc	.L37
 386 00d8 5BE0     		b	.L23
 387              	.LVL73:
 388              	.L63:
 149:.\BitNetMCU_inference.c ****                 }
 150:.\BitNetMCU_inference.c ****             }
 151:.\BitNetMCU_inference.c ****         } else if (bits_per_weight == 8 + 4 ) {   // 4 bit twos-complement
 389              		.loc 1 151 0
 390 00da 0C2A     		cmp	r2, #12
 391 00dc 1AD1     		bne	.L64
 392 00de 13E0     		b	.L58
 393              	.LVL74:
ARM GAS  C:\Users\kuzni\AppData\Local\Temp\cc7Ky549.s 			page 11


 394              	.L42:
 152:.\BitNetMCU_inference.c ****             for (k = 0; k < n_input; k+=8) {
 153:.\BitNetMCU_inference.c ****                 weightChunk = *weightidx++;
 395              		.loc 1 153 0
 396 00e0 01F1040C 		add	ip, r1, #4
 397              	.LVL75:
 398 00e4 0D68     		ldr	r5, [r1]
 399              	.LVL76:
 154:.\BitNetMCU_inference.c ****                 for (j = 0; j < 8; j++) {
 400              		.loc 1 154 0
 401 00e6 0021     		movs	r1, #0
 402 00e8 08E0     		b	.L40
 403              	.LVL77:
 404              	.L41:
 155:.\BitNetMCU_inference.c ****                     in=*activations_idx++;
 405              		.loc 1 155 0 discriminator 3
 406 00ea 96F90070 		ldrsb	r7, [r6]
 407              	.LVL78:
 156:.\BitNetMCU_inference.c ****                     weight = (weightChunk) >> (32-4); // extend sign, cut off lower bits
 408              		.loc 1 156 0 discriminator 3
 409 00ee 4FEA157B 		lsr	fp, r5, #28
 410              	.LVL79:
 157:.\BitNetMCU_inference.c ****                     sum += in*weight;
 411              		.loc 1 157 0 discriminator 3
 412 00f2 0BFB0744 		mla	r4, fp, r7, r4
 413              	.LVL80:
 158:.\BitNetMCU_inference.c ****                     weightChunk <<= 4;
 414              		.loc 1 158 0 discriminator 3
 415 00f6 2D01     		lsls	r5, r5, #4
 416              	.LVL81:
 154:.\BitNetMCU_inference.c ****                     in=*activations_idx++;
 417              		.loc 1 154 0 discriminator 3
 418 00f8 0131     		adds	r1, r1, #1
 419              	.LVL82:
 155:.\BitNetMCU_inference.c ****                     weight = (weightChunk) >> (32-4); // extend sign, cut off lower bits
 420              		.loc 1 155 0 discriminator 3
 421 00fa 0136     		adds	r6, r6, #1
 422              	.LVL83:
 423              	.L40:
 154:.\BitNetMCU_inference.c ****                     in=*activations_idx++;
 424              		.loc 1 154 0 discriminator 1
 425 00fc 0729     		cmp	r1, #7
 426 00fe F4D9     		bls	.L41
 152:.\BitNetMCU_inference.c ****                 weightChunk = *weightidx++;
 427              		.loc 1 152 0 discriminator 2
 428 0100 0EF1080E 		add	lr, lr, #8
 429              	.LVL84:
 153:.\BitNetMCU_inference.c ****                 for (j = 0; j < 8; j++) {
 430              		.loc 1 153 0 discriminator 2
 431 0104 6146     		mov	r1, ip
 432              	.LVL85:
 433 0106 02E0     		b	.L38
 434              	.LVL86:
 435              	.L58:
 436 0108 0646     		mov	r6, r0
 437 010a 0024     		movs	r4, #0
 438 010c A646     		mov	lr, r4
ARM GAS  C:\Users\kuzni\AppData\Local\Temp\cc7Ky549.s 			page 12


 439              	.LVL87:
 440              	.L38:
 152:.\BitNetMCU_inference.c ****                 weightChunk = *weightidx++;
 441              		.loc 1 152 0 discriminator 1
 442 010e 9E45     		cmp	lr, r3
 443 0110 E6D3     		bcc	.L42
 444 0112 3EE0     		b	.L23
 445              	.LVL88:
 446              	.L64:
 159:.\BitNetMCU_inference.c ****                 }
 160:.\BitNetMCU_inference.c ****             }
 161:.\BitNetMCU_inference.c ****         } else if (bits_per_weight == 8 + 8 ) {   // 8 bit twos-complement
 447              		.loc 1 161 0
 448 0114 102A     		cmp	r2, #16
 449 0116 1AD1     		bne	.L65
 450 0118 13E0     		b	.L59
 451              	.LVL89:
 452              	.L47:
 162:.\BitNetMCU_inference.c ****             for (k = 0; k < n_input; k+=4) {
 163:.\BitNetMCU_inference.c ****                 weightChunk = *weightidx++;
 453              		.loc 1 163 0
 454 011a 01F1040C 		add	ip, r1, #4
 455              	.LVL90:
 456 011e 0D68     		ldr	r5, [r1]
 457              	.LVL91:
 164:.\BitNetMCU_inference.c ****                 for (j = 0; j < 4; j++) {
 458              		.loc 1 164 0
 459 0120 0021     		movs	r1, #0
 460 0122 08E0     		b	.L45
 461              	.LVL92:
 462              	.L46:
 165:.\BitNetMCU_inference.c ****                     in=*activations_idx++;
 463              		.loc 1 165 0 discriminator 3
 464 0124 96F90070 		ldrsb	r7, [r6]
 465              	.LVL93:
 166:.\BitNetMCU_inference.c ****                     weight = (weightChunk) >> (32-8); // extend sign, cut off lower bits
 466              		.loc 1 166 0 discriminator 3
 467 0128 4FEA156B 		lsr	fp, r5, #24
 468              	.LVL94:
 167:.\BitNetMCU_inference.c ****                     sum += in*weight;
 469              		.loc 1 167 0 discriminator 3
 470 012c 0BFB0744 		mla	r4, fp, r7, r4
 471              	.LVL95:
 168:.\BitNetMCU_inference.c ****                     weightChunk <<= 8;
 472              		.loc 1 168 0 discriminator 3
 473 0130 2D02     		lsls	r5, r5, #8
 474              	.LVL96:
 164:.\BitNetMCU_inference.c ****                     in=*activations_idx++;
 475              		.loc 1 164 0 discriminator 3
 476 0132 0131     		adds	r1, r1, #1
 477              	.LVL97:
 165:.\BitNetMCU_inference.c ****                     weight = (weightChunk) >> (32-8); // extend sign, cut off lower bits
 478              		.loc 1 165 0 discriminator 3
 479 0134 0136     		adds	r6, r6, #1
 480              	.LVL98:
 481              	.L45:
 164:.\BitNetMCU_inference.c ****                     in=*activations_idx++;
ARM GAS  C:\Users\kuzni\AppData\Local\Temp\cc7Ky549.s 			page 13


 482              		.loc 1 164 0 discriminator 1
 483 0136 0329     		cmp	r1, #3
 484 0138 F4D9     		bls	.L46
 162:.\BitNetMCU_inference.c ****                 weightChunk = *weightidx++;
 485              		.loc 1 162 0 discriminator 2
 486 013a 0EF1040E 		add	lr, lr, #4
 487              	.LVL99:
 163:.\BitNetMCU_inference.c ****                 for (j = 0; j < 4; j++) {
 488              		.loc 1 163 0 discriminator 2
 489 013e 6146     		mov	r1, ip
 490              	.LVL100:
 491 0140 02E0     		b	.L43
 492              	.LVL101:
 493              	.L59:
 494 0142 0646     		mov	r6, r0
 495 0144 0024     		movs	r4, #0
 496 0146 A646     		mov	lr, r4
 497              	.LVL102:
 498              	.L43:
 162:.\BitNetMCU_inference.c ****                 weightChunk = *weightidx++;
 499              		.loc 1 162 0 discriminator 1
 500 0148 9E45     		cmp	lr, r3
 501 014a E6D3     		bcc	.L47
 502 014c 21E0     		b	.L23
 503              	.LVL103:
 504              	.L65:
 169:.\BitNetMCU_inference.c ****                 }
 170:.\BitNetMCU_inference.c ****             }
 171:.\BitNetMCU_inference.c **** #endif
 172:.\BitNetMCU_inference.c ****         }  else if (bits_per_weight == 16 + 4 ) {  // 4 bit shift
 505              		.loc 1 172 0
 506 014e 142A     		cmp	r2, #20
 507 0150 1AD0     		beq	.L60
  99:.\BitNetMCU_inference.c **** 
 508              		.loc 1 99 0
 509 0152 0024     		movs	r4, #0
 510 0154 1DE0     		b	.L23
 511              	.LVL104:
 512              	.L52:
 173:.\BitNetMCU_inference.c ****             for (k = 0; k < n_input; k+=8) {
 174:.\BitNetMCU_inference.c ****                 weightChunk = *weightidx++;
 513              		.loc 1 174 0
 514 0156 01F1040E 		add	lr, r1, #4
 515              	.LVL105:
 516 015a 0D68     		ldr	r5, [r1]
 517              	.LVL106:
 175:.\BitNetMCU_inference.c ****                 for (j = 0; j < 8; j++) {
 518              		.loc 1 175 0
 519 015c 0026     		movs	r6, #0
 520 015e 0EE0     		b	.L49
 521              	.LVL107:
 522              	.L51:
 176:.\BitNetMCU_inference.c ****                     in=*activations_idx++;
 523              		.loc 1 176 0
 524 0160 0BF1010C 		add	ip, fp, #1
 525              	.LVL108:
 526 0164 9BF90010 		ldrsb	r1, [fp]
ARM GAS  C:\Users\kuzni\AppData\Local\Temp\cc7Ky549.s 			page 14


 527              	.LVL109:
 177:.\BitNetMCU_inference.c ****                     tmpsum = (weightChunk & 0x80000000) ? -in : in; // one complements sign (bit se
 528              		.loc 1 177 0
 529 0168 002D     		cmp	r5, #0
 530 016a 00DA     		bge	.L50
 531              		.loc 1 177 0 is_stmt 0 discriminator 1
 532 016c 4942     		negs	r1, r1
 533              	.LVL110:
 534              	.L50:
 178:.\BitNetMCU_inference.c ****                     sum += tmpsum << ((weightChunk >> 28) & 7); // sign*in*2^log
 535              		.loc 1 178 0 is_stmt 1 discriminator 4
 536 016e C5F3027B 		ubfx	fp, r5, #28, #3
 537              	.LVL111:
 538 0172 01FA0BF1 		lsl	r1, r1, fp
 539              	.LVL112:
 540 0176 0C44     		add	r4, r4, r1
 541              	.LVL113:
 179:.\BitNetMCU_inference.c ****                     weightChunk <<= 4;
 542              		.loc 1 179 0 discriminator 4
 543 0178 2D01     		lsls	r5, r5, #4
 544              	.LVL114:
 175:.\BitNetMCU_inference.c ****                     in=*activations_idx++;
 545              		.loc 1 175 0 discriminator 4
 546 017a 0136     		adds	r6, r6, #1
 547              	.LVL115:
 176:.\BitNetMCU_inference.c ****                     tmpsum = (weightChunk & 0x80000000) ? -in : in; // one complements sign (bit se
 548              		.loc 1 176 0 discriminator 4
 549 017c E346     		mov	fp, ip
 550              	.LVL116:
 551              	.L49:
 175:.\BitNetMCU_inference.c ****                     in=*activations_idx++;
 552              		.loc 1 175 0 discriminator 2
 553 017e 072E     		cmp	r6, #7
 554 0180 EED9     		bls	.L51
 173:.\BitNetMCU_inference.c ****                 weightChunk = *weightidx++;
 555              		.loc 1 173 0 discriminator 2
 556 0182 0837     		adds	r7, r7, #8
 557              	.LVL117:
 174:.\BitNetMCU_inference.c ****                 for (j = 0; j < 8; j++) {
 558              		.loc 1 174 0 discriminator 2
 559 0184 7146     		mov	r1, lr
 560 0186 02E0     		b	.L48
 561              	.LVL118:
 562              	.L60:
 563 0188 8346     		mov	fp, r0
 564 018a 0024     		movs	r4, #0
 565 018c 2746     		mov	r7, r4
 566              	.LVL119:
 567              	.L48:
 173:.\BitNetMCU_inference.c ****                 weightChunk = *weightidx++;
 568              		.loc 1 173 0 discriminator 1
 569 018e 9F42     		cmp	r7, r3
 570 0190 E1D3     		bcc	.L52
 571              	.LVL120:
 572              	.L23:
 180:.\BitNetMCU_inference.c ****                 }
 181:.\BitNetMCU_inference.c ****             }
ARM GAS  C:\Users\kuzni\AppData\Local\Temp\cc7Ky549.s 			page 15


 182:.\BitNetMCU_inference.c ****         }   // else printf("Error: unsupported weight bit width %d\n", bits_per_weight);
 183:.\BitNetMCU_inference.c **** 
 184:.\BitNetMCU_inference.c ****         output[i] = sum;
 573              		.loc 1 184 0 discriminator 2
 574 0192 4AF82840 		str	r4, [r10, r8, lsl #2]
 575              	.LBE2:
  97:.\BitNetMCU_inference.c ****         int8_t *activations_idx = activations;
 576              		.loc 1 97 0 discriminator 2
 577 0196 08F10108 		add	r8, r8, #1
 578              	.LVL121:
 579              	.L16:
  97:.\BitNetMCU_inference.c ****         int8_t *activations_idx = activations;
 580              		.loc 1 97 0 is_stmt 0 discriminator 1
 581 019a C845     		cmp	r8, r9
 582 019c FFF439AF 		bcc	.L53
 185:.\BitNetMCU_inference.c ****         // printf("%d,", output[i]);
 186:.\BitNetMCU_inference.c ****     }
 187:.\BitNetMCU_inference.c **** }...
 583              		.loc 1 187 0 is_stmt 1
 584 01a0 BDE8F08F 		pop	{r4, r5, r6, r7, r8, r9, r10, fp, pc}
 585              		.cfi_endproc
 586              	.LFE1:
 587              		.size	processfclayer, .-processfclayer
 588              		.text
 589              	.Letext0:
 590              		.file 2 "c:\\program files (x86)\\cypress\\psoc creator\\3.3\\psoc creator\\import\\gnu\\arm\\4.9.
 591              		.file 3 "c:\\program files (x86)\\cypress\\psoc creator\\3.3\\psoc creator\\import\\gnu\\arm\\4.9.