ARM GAS  C:\Users\kuzni\AppData\Local\Temp\cc0Z1uAH.s 			page 1


   1              		.syntax unified
   2              		.cpu cortex-m3
   3              		.fpu softvfp
   4              		.eabi_attribute 20, 1
   5              		.eabi_attribute 21, 1
   6              		.eabi_attribute 23, 3
   7              		.eabi_attribute 24, 1
   8              		.eabi_attribute 25, 1
   9              		.eabi_attribute 26, 1
  10              		.eabi_attribute 30, 1
  11              		.eabi_attribute 34, 1
  12              		.eabi_attribute 18, 4
  13              		.thumb
  14              		.file	"cyfitter_cfg.c"
  15              		.text
  16              	.Ltext0:
  17              		.cfi_sections	.debug_frame
  18              		.section	.text.CyClockStartupError,"ax",%progbits
  19              		.align	2
  20              		.thumb
  21              		.thumb_func
  22              		.type	CyClockStartupError, %function
  23              	CyClockStartupError:
  24              	.LFB3:
  25              		.file 1 ".\\Generated_Source\\PSoC5\\cyfitter_cfg.c"
   1:.\Generated_Source\PSoC5/cyfitter_cfg.c **** /*******************************************************************************
   2:.\Generated_Source\PSoC5/cyfitter_cfg.c **** * File Name: cyfitter_cfg.c
   3:.\Generated_Source\PSoC5/cyfitter_cfg.c **** * 
   4:.\Generated_Source\PSoC5/cyfitter_cfg.c **** * PSoC Creator  3.3 CP3
   5:.\Generated_Source\PSoC5/cyfitter_cfg.c **** *
   6:.\Generated_Source\PSoC5/cyfitter_cfg.c **** * Description:
   7:.\Generated_Source\PSoC5/cyfitter_cfg.c **** * This file contains device initialization code.
   8:.\Generated_Source\PSoC5/cyfitter_cfg.c **** * Except for the user defined sections in CyClockStartupError(), this file should not be modified.
   9:.\Generated_Source\PSoC5/cyfitter_cfg.c **** * This file is automatically generated by PSoC Creator.
  10:.\Generated_Source\PSoC5/cyfitter_cfg.c **** *
  11:.\Generated_Source\PSoC5/cyfitter_cfg.c **** ********************************************************************************
  12:.\Generated_Source\PSoC5/cyfitter_cfg.c **** * Copyright (c) 2007-2016 Cypress Semiconductor.  All rights reserved.
  13:.\Generated_Source\PSoC5/cyfitter_cfg.c **** * You may use this file only in accordance with the license, terms, conditions, 
  14:.\Generated_Source\PSoC5/cyfitter_cfg.c **** * disclaimers, and limitations in the end user license agreement accompanying 
  15:.\Generated_Source\PSoC5/cyfitter_cfg.c **** * the software package with which this file was provided.
  16:.\Generated_Source\PSoC5/cyfitter_cfg.c **** ********************************************************************************/
  17:.\Generated_Source\PSoC5/cyfitter_cfg.c **** 
  18:.\Generated_Source\PSoC5/cyfitter_cfg.c **** #include <string.h>
  19:.\Generated_Source\PSoC5/cyfitter_cfg.c **** #include "cytypes.h"
  20:.\Generated_Source\PSoC5/cyfitter_cfg.c **** #include "cydevice_trm.h"
  21:.\Generated_Source\PSoC5/cyfitter_cfg.c **** #include "cyfitter.h"
  22:.\Generated_Source\PSoC5/cyfitter_cfg.c **** #include "CyLib.h"
  23:.\Generated_Source\PSoC5/cyfitter_cfg.c **** #include "cyfitter_cfg.h"
  24:.\Generated_Source\PSoC5/cyfitter_cfg.c **** 
  25:.\Generated_Source\PSoC5/cyfitter_cfg.c **** #define CY_NEED_CYCLOCKSTARTUPERROR 1
  26:.\Generated_Source\PSoC5/cyfitter_cfg.c **** 
  27:.\Generated_Source\PSoC5/cyfitter_cfg.c **** 
  28:.\Generated_Source\PSoC5/cyfitter_cfg.c **** #if defined(__GNUC__) || defined(__ARMCC_VERSION)
  29:.\Generated_Source\PSoC5/cyfitter_cfg.c ****     #define CYPACKED 
  30:.\Generated_Source\PSoC5/cyfitter_cfg.c ****     #define CYPACKED_ATTR __attribute__ ((packed))
  31:.\Generated_Source\PSoC5/cyfitter_cfg.c ****     #define CYALIGNED __attribute__ ((aligned))
  32:.\Generated_Source\PSoC5/cyfitter_cfg.c ****     #define CY_CFG_UNUSED __attribute__ ((unused))
ARM GAS  C:\Users\kuzni\AppData\Local\Temp\cc0Z1uAH.s 			page 2


  33:.\Generated_Source\PSoC5/cyfitter_cfg.c ****     #ifndef CY_CFG_SECTION
  34:.\Generated_Source\PSoC5/cyfitter_cfg.c ****         #define CY_CFG_SECTION __attribute__ ((section(".psocinit")))
  35:.\Generated_Source\PSoC5/cyfitter_cfg.c ****     #endif
  36:.\Generated_Source\PSoC5/cyfitter_cfg.c ****     
  37:.\Generated_Source\PSoC5/cyfitter_cfg.c ****     #if defined(__ARMCC_VERSION)
  38:.\Generated_Source\PSoC5/cyfitter_cfg.c ****         #define CY_CFG_MEMORY_BARRIER() __memory_changed()
  39:.\Generated_Source\PSoC5/cyfitter_cfg.c ****     #else
  40:.\Generated_Source\PSoC5/cyfitter_cfg.c ****         #define CY_CFG_MEMORY_BARRIER() __sync_synchronize()
  41:.\Generated_Source\PSoC5/cyfitter_cfg.c ****     #endif
  42:.\Generated_Source\PSoC5/cyfitter_cfg.c ****     
  43:.\Generated_Source\PSoC5/cyfitter_cfg.c **** #elif defined(__ICCARM__)
  44:.\Generated_Source\PSoC5/cyfitter_cfg.c ****     #include <intrinsics.h>
  45:.\Generated_Source\PSoC5/cyfitter_cfg.c **** 
  46:.\Generated_Source\PSoC5/cyfitter_cfg.c ****     #define CYPACKED __packed
  47:.\Generated_Source\PSoC5/cyfitter_cfg.c ****     #define CYPACKED_ATTR 
  48:.\Generated_Source\PSoC5/cyfitter_cfg.c ****     #define CYALIGNED _Pragma("data_alignment=4")
  49:.\Generated_Source\PSoC5/cyfitter_cfg.c ****     #define CY_CFG_UNUSED _Pragma("diag_suppress=Pe177")
  50:.\Generated_Source\PSoC5/cyfitter_cfg.c ****     #define CY_CFG_SECTION _Pragma("location=\".psocinit\"")
  51:.\Generated_Source\PSoC5/cyfitter_cfg.c ****     
  52:.\Generated_Source\PSoC5/cyfitter_cfg.c ****     #define CY_CFG_MEMORY_BARRIER() __DMB()
  53:.\Generated_Source\PSoC5/cyfitter_cfg.c ****     
  54:.\Generated_Source\PSoC5/cyfitter_cfg.c **** #else
  55:.\Generated_Source\PSoC5/cyfitter_cfg.c ****     #error Unsupported toolchain
  56:.\Generated_Source\PSoC5/cyfitter_cfg.c **** #endif
  57:.\Generated_Source\PSoC5/cyfitter_cfg.c **** 
  58:.\Generated_Source\PSoC5/cyfitter_cfg.c **** 
  59:.\Generated_Source\PSoC5/cyfitter_cfg.c **** CY_CFG_UNUSED
  60:.\Generated_Source\PSoC5/cyfitter_cfg.c **** static void CYMEMZERO(void *s, size_t n);
  61:.\Generated_Source\PSoC5/cyfitter_cfg.c **** CY_CFG_UNUSED
  62:.\Generated_Source\PSoC5/cyfitter_cfg.c **** static void CYMEMZERO(void *s, size_t n)
  63:.\Generated_Source\PSoC5/cyfitter_cfg.c **** {
  64:.\Generated_Source\PSoC5/cyfitter_cfg.c **** 	(void)memset(s, 0, n);
  65:.\Generated_Source\PSoC5/cyfitter_cfg.c **** }
  66:.\Generated_Source\PSoC5/cyfitter_cfg.c **** CY_CFG_UNUSED
  67:.\Generated_Source\PSoC5/cyfitter_cfg.c **** static void CYCONFIGCPY(void *dest, const void *src, size_t n);
  68:.\Generated_Source\PSoC5/cyfitter_cfg.c **** CY_CFG_UNUSED
  69:.\Generated_Source\PSoC5/cyfitter_cfg.c **** static void CYCONFIGCPY(void *dest, const void *src, size_t n)
  70:.\Generated_Source\PSoC5/cyfitter_cfg.c **** {
  71:.\Generated_Source\PSoC5/cyfitter_cfg.c **** 	(void)memcpy(dest, src, n);
  72:.\Generated_Source\PSoC5/cyfitter_cfg.c **** }
  73:.\Generated_Source\PSoC5/cyfitter_cfg.c **** CY_CFG_UNUSED
  74:.\Generated_Source\PSoC5/cyfitter_cfg.c **** static void CYCONFIGCPYCODE(void *dest, const void *src, size_t n);
  75:.\Generated_Source\PSoC5/cyfitter_cfg.c **** CY_CFG_UNUSED
  76:.\Generated_Source\PSoC5/cyfitter_cfg.c **** static void CYCONFIGCPYCODE(void *dest, const void *src, size_t n)
  77:.\Generated_Source\PSoC5/cyfitter_cfg.c **** {
  78:.\Generated_Source\PSoC5/cyfitter_cfg.c **** 	(void)memcpy(dest, src, n);
  79:.\Generated_Source\PSoC5/cyfitter_cfg.c **** }
  80:.\Generated_Source\PSoC5/cyfitter_cfg.c **** 
  81:.\Generated_Source\PSoC5/cyfitter_cfg.c **** 
  82:.\Generated_Source\PSoC5/cyfitter_cfg.c **** 
  83:.\Generated_Source\PSoC5/cyfitter_cfg.c **** /* Clock startup error codes                                                   */
  84:.\Generated_Source\PSoC5/cyfitter_cfg.c **** #define CYCLOCKSTART_NO_ERROR    0u
  85:.\Generated_Source\PSoC5/cyfitter_cfg.c **** #define CYCLOCKSTART_XTAL_ERROR  1u
  86:.\Generated_Source\PSoC5/cyfitter_cfg.c **** #define CYCLOCKSTART_32KHZ_ERROR 2u
  87:.\Generated_Source\PSoC5/cyfitter_cfg.c **** #define CYCLOCKSTART_PLL_ERROR   3u
  88:.\Generated_Source\PSoC5/cyfitter_cfg.c **** 
  89:.\Generated_Source\PSoC5/cyfitter_cfg.c **** #ifdef CY_NEED_CYCLOCKSTARTUPERROR
ARM GAS  C:\Users\kuzni\AppData\Local\Temp\cc0Z1uAH.s 			page 3


  90:.\Generated_Source\PSoC5/cyfitter_cfg.c **** /*******************************************************************************
  91:.\Generated_Source\PSoC5/cyfitter_cfg.c **** * Function Name: CyClockStartupError
  92:.\Generated_Source\PSoC5/cyfitter_cfg.c **** ********************************************************************************
  93:.\Generated_Source\PSoC5/cyfitter_cfg.c **** * Summary:
  94:.\Generated_Source\PSoC5/cyfitter_cfg.c **** *  If an error is encountered during clock configuration (crystal startup error,
  95:.\Generated_Source\PSoC5/cyfitter_cfg.c **** *  PLL lock error, etc.), the system will end up here.  Unless reimplemented by
  96:.\Generated_Source\PSoC5/cyfitter_cfg.c **** *  the customer, this function will stop in an infinite loop.
  97:.\Generated_Source\PSoC5/cyfitter_cfg.c **** *
  98:.\Generated_Source\PSoC5/cyfitter_cfg.c **** * Parameters:
  99:.\Generated_Source\PSoC5/cyfitter_cfg.c **** *   void
 100:.\Generated_Source\PSoC5/cyfitter_cfg.c **** *
 101:.\Generated_Source\PSoC5/cyfitter_cfg.c **** * Return:
 102:.\Generated_Source\PSoC5/cyfitter_cfg.c **** *   void
 103:.\Generated_Source\PSoC5/cyfitter_cfg.c **** *
 104:.\Generated_Source\PSoC5/cyfitter_cfg.c **** *******************************************************************************/
 105:.\Generated_Source\PSoC5/cyfitter_cfg.c **** CY_CFG_UNUSED
 106:.\Generated_Source\PSoC5/cyfitter_cfg.c **** static void CyClockStartupError(uint8 errorCode);
 107:.\Generated_Source\PSoC5/cyfitter_cfg.c **** CY_CFG_UNUSED
 108:.\Generated_Source\PSoC5/cyfitter_cfg.c **** static void CyClockStartupError(uint8 errorCode)
 109:.\Generated_Source\PSoC5/cyfitter_cfg.c **** {
  26              		.loc 1 109 0
  27              		.cfi_startproc
  28              		@ Volatile: function does not return.
  29              		@ args = 0, pretend = 0, frame = 0
  30              		@ frame_needed = 0, uses_anonymous_args = 0
  31              		@ link register save eliminated.
  32              	.LVL0:
  33              	.L2:
 110:.\Generated_Source\PSoC5/cyfitter_cfg.c ****     /* To remove the compiler warning if errorCode not used.                */
 111:.\Generated_Source\PSoC5/cyfitter_cfg.c ****     errorCode = errorCode;
 112:.\Generated_Source\PSoC5/cyfitter_cfg.c **** 
 113:.\Generated_Source\PSoC5/cyfitter_cfg.c ****     /* `#START CyClockStartupError` */
 114:.\Generated_Source\PSoC5/cyfitter_cfg.c **** 
 115:.\Generated_Source\PSoC5/cyfitter_cfg.c ****     /* If we have a clock startup error (bad MHz crystal, PLL lock, etc.),  */
 116:.\Generated_Source\PSoC5/cyfitter_cfg.c ****     /* we will end up here to allow the customer to implement something to  */
 117:.\Generated_Source\PSoC5/cyfitter_cfg.c ****     /* deal with the clock condition.                                       */
 118:.\Generated_Source\PSoC5/cyfitter_cfg.c **** 
 119:.\Generated_Source\PSoC5/cyfitter_cfg.c ****     /* `#END` */
 120:.\Generated_Source\PSoC5/cyfitter_cfg.c **** 
 121:.\Generated_Source\PSoC5/cyfitter_cfg.c ****     /* If nothing else, stop here since the clocks have not started         */
 122:.\Generated_Source\PSoC5/cyfitter_cfg.c ****     /* correctly.                                                           */
 123:.\Generated_Source\PSoC5/cyfitter_cfg.c ****     while(1) {}
  34              		.loc 1 123 0 discriminator 1
  35 0000 FEE7     		b	.L2
  36              		.cfi_endproc
  37              	.LFE3:
  38              		.size	CyClockStartupError, .-CyClockStartupError
  39 0002 00BF     		.section	.text.cfg_write_bytes32,"ax",%progbits
  40              		.align	2
  41              		.thumb
  42              		.thumb_func
  43              		.type	cfg_write_bytes32, %function
  44              	cfg_write_bytes32:
  45              	.LFB4:
 124:.\Generated_Source\PSoC5/cyfitter_cfg.c **** }
 125:.\Generated_Source\PSoC5/cyfitter_cfg.c **** #endif
 126:.\Generated_Source\PSoC5/cyfitter_cfg.c **** 
ARM GAS  C:\Users\kuzni\AppData\Local\Temp\cc0Z1uAH.s 			page 4


 127:.\Generated_Source\PSoC5/cyfitter_cfg.c **** #define CY_CFG_BASE_ADDR_COUNT 25u
 128:.\Generated_Source\PSoC5/cyfitter_cfg.c **** CYPACKED typedef struct
 129:.\Generated_Source\PSoC5/cyfitter_cfg.c **** {
 130:.\Generated_Source\PSoC5/cyfitter_cfg.c **** 	uint8 offset;
 131:.\Generated_Source\PSoC5/cyfitter_cfg.c **** 	uint8 value;
 132:.\Generated_Source\PSoC5/cyfitter_cfg.c **** } CYPACKED_ATTR cy_cfg_addrvalue_t;
 133:.\Generated_Source\PSoC5/cyfitter_cfg.c **** 
 134:.\Generated_Source\PSoC5/cyfitter_cfg.c **** #define cy_cfg_addr_table ((const uint32 CYFAR *)0x48000000u)
 135:.\Generated_Source\PSoC5/cyfitter_cfg.c **** #define cy_cfg_data_table ((const cy_cfg_addrvalue_t CYFAR *)0x48000064u)
 136:.\Generated_Source\PSoC5/cyfitter_cfg.c **** 
 137:.\Generated_Source\PSoC5/cyfitter_cfg.c **** /* UDB_0_5_0_CONFIG Address: CYDEV_UCFG_B0_P7_U0_BASE Size (bytes): 128 */
 138:.\Generated_Source\PSoC5/cyfitter_cfg.c **** #define BS_UDB_0_5_0_CONFIG_VAL ((const uint8 CYFAR *)0x480002C8u)
 139:.\Generated_Source\PSoC5/cyfitter_cfg.c **** 
 140:.\Generated_Source\PSoC5/cyfitter_cfg.c **** /* IOPINS0_0 Address: CYREG_PRT0_DM0 Size (bytes): 8 */
 141:.\Generated_Source\PSoC5/cyfitter_cfg.c **** #define BS_IOPINS0_0_VAL ((const uint8 CYFAR *)0x48000348u)
 142:.\Generated_Source\PSoC5/cyfitter_cfg.c **** 
 143:.\Generated_Source\PSoC5/cyfitter_cfg.c **** /* IOPINS0_2 Address: CYREG_PRT2_DM0 Size (bytes): 8 */
 144:.\Generated_Source\PSoC5/cyfitter_cfg.c **** #define BS_IOPINS0_2_VAL ((const uint8 CYFAR *)0x48000350u)
 145:.\Generated_Source\PSoC5/cyfitter_cfg.c **** 
 146:.\Generated_Source\PSoC5/cyfitter_cfg.c **** /* IOPINS0_4 Address: CYREG_PRT4_DM0 Size (bytes): 8 */
 147:.\Generated_Source\PSoC5/cyfitter_cfg.c **** #define BS_IOPINS0_4_VAL ((const uint8 CYFAR *)0x48000358u)
 148:.\Generated_Source\PSoC5/cyfitter_cfg.c **** 
 149:.\Generated_Source\PSoC5/cyfitter_cfg.c **** /* IOPINS0_6 Address: CYREG_PRT6_DM0 Size (bytes): 8 */
 150:.\Generated_Source\PSoC5/cyfitter_cfg.c **** #define BS_IOPINS0_6_VAL ((const uint8 CYFAR *)0x48000360u)
 151:.\Generated_Source\PSoC5/cyfitter_cfg.c **** 
 152:.\Generated_Source\PSoC5/cyfitter_cfg.c **** /* CYDEV_CLKDIST_ACFG0_CFG0 Address: CYREG_CLKDIST_ACFG0_CFG0 Size (bytes): 4 */
 153:.\Generated_Source\PSoC5/cyfitter_cfg.c **** #define BS_CYDEV_CLKDIST_ACFG0_CFG0_VAL ((const uint8 CYFAR *)0x48000368u)
 154:.\Generated_Source\PSoC5/cyfitter_cfg.c **** 
 155:.\Generated_Source\PSoC5/cyfitter_cfg.c **** 
 156:.\Generated_Source\PSoC5/cyfitter_cfg.c **** /*******************************************************************************
 157:.\Generated_Source\PSoC5/cyfitter_cfg.c **** * Function Name: cfg_write_bytes32
 158:.\Generated_Source\PSoC5/cyfitter_cfg.c **** ********************************************************************************
 159:.\Generated_Source\PSoC5/cyfitter_cfg.c **** * Summary:
 160:.\Generated_Source\PSoC5/cyfitter_cfg.c **** *  This function is used for setting up the chip configuration areas that
 161:.\Generated_Source\PSoC5/cyfitter_cfg.c **** *  contain relatively sparse data.
 162:.\Generated_Source\PSoC5/cyfitter_cfg.c **** *
 163:.\Generated_Source\PSoC5/cyfitter_cfg.c **** * Parameters:
 164:.\Generated_Source\PSoC5/cyfitter_cfg.c **** *   void
 165:.\Generated_Source\PSoC5/cyfitter_cfg.c **** *
 166:.\Generated_Source\PSoC5/cyfitter_cfg.c **** * Return:
 167:.\Generated_Source\PSoC5/cyfitter_cfg.c **** *   void
 168:.\Generated_Source\PSoC5/cyfitter_cfg.c **** *
 169:.\Generated_Source\PSoC5/cyfitter_cfg.c **** *******************************************************************************/
 170:.\Generated_Source\PSoC5/cyfitter_cfg.c **** static void cfg_write_bytes32(const uint32 addr_table[], const cy_cfg_addrvalue_t data_table[]);
 171:.\Generated_Source\PSoC5/cyfitter_cfg.c **** static void cfg_write_bytes32(const uint32 addr_table[], const cy_cfg_addrvalue_t data_table[])
 172:.\Generated_Source\PSoC5/cyfitter_cfg.c **** {
  46              		.loc 1 172 0
  47              		.cfi_startproc
  48              		@ args = 0, pretend = 0, frame = 0
  49              		@ frame_needed = 0, uses_anonymous_args = 0
  50              		@ link register save eliminated.
  51              	.LVL1:
  52 0000 F0B4     		push	{r4, r5, r6, r7}
  53              		.cfi_def_cfa_offset 16
  54              		.cfi_offset 4, -16
  55              		.cfi_offset 5, -12
  56              		.cfi_offset 6, -8
ARM GAS  C:\Users\kuzni\AppData\Local\Temp\cc0Z1uAH.s 			page 5


  57              		.cfi_offset 7, -4
  58              	.LVL2:
 173:.\Generated_Source\PSoC5/cyfitter_cfg.c **** 	/* For 32-bit little-endian architectures */
 174:.\Generated_Source\PSoC5/cyfitter_cfg.c **** 	uint32 i, j = 0u;
  59              		.loc 1 174 0
  60 0002 0022     		movs	r2, #0
 175:.\Generated_Source\PSoC5/cyfitter_cfg.c **** 	for (i = 0u; i < CY_CFG_BASE_ADDR_COUNT; i++)
  61              		.loc 1 175 0
  62 0004 1746     		mov	r7, r2
  63 0006 11E0     		b	.L4
  64              	.LVL3:
  65              	.L7:
  66              	.LBB2:
 176:.\Generated_Source\PSoC5/cyfitter_cfg.c **** 	{
 177:.\Generated_Source\PSoC5/cyfitter_cfg.c **** 		uint32 baseAddr = addr_table[i];
  67              		.loc 1 177 0
  68 0008 50F82760 		ldr	r6, [r0, r7, lsl #2]
  69              	.LVL4:
 178:.\Generated_Source\PSoC5/cyfitter_cfg.c **** 		uint8 count = (uint8)baseAddr;
  70              		.loc 1 178 0
  71 000c F3B2     		uxtb	r3, r6
  72              	.LVL5:
 179:.\Generated_Source\PSoC5/cyfitter_cfg.c **** 		baseAddr &= 0xFFFFFF00u;
  73              		.loc 1 179 0
  74 000e 26F0FF06 		bic	r6, r6, #255
  75              	.LVL6:
 180:.\Generated_Source\PSoC5/cyfitter_cfg.c **** 		while (count != 0u)
  76              		.loc 1 180 0
  77 0012 08E0     		b	.L5
  78              	.L6:
 181:.\Generated_Source\PSoC5/cyfitter_cfg.c **** 		{
 182:.\Generated_Source\PSoC5/cyfitter_cfg.c **** 			CY_SET_XTND_REG8((void CYFAR *)(baseAddr + data_table[j].offset), data_table[j].value);
  79              		.loc 1 182 0
  80 0014 01EB4205 		add	r5, r1, r2, lsl #1
  81 0018 11F81240 		ldrb	r4, [r1, r2, lsl #1]	@ zero_extendqisi2
  82 001c 6D78     		ldrb	r5, [r5, #1]	@ zero_extendqisi2
  83 001e A555     		strb	r5, [r4, r6]
 183:.\Generated_Source\PSoC5/cyfitter_cfg.c **** 			j++;
  84              		.loc 1 183 0
  85 0020 0132     		adds	r2, r2, #1
  86              	.LVL7:
 184:.\Generated_Source\PSoC5/cyfitter_cfg.c **** 			count--;
  87              		.loc 1 184 0
  88 0022 013B     		subs	r3, r3, #1
  89              	.LVL8:
  90 0024 DBB2     		uxtb	r3, r3
  91              	.LVL9:
  92              	.L5:
 180:.\Generated_Source\PSoC5/cyfitter_cfg.c **** 		{
  93              		.loc 1 180 0
  94 0026 002B     		cmp	r3, #0
  95 0028 F4D1     		bne	.L6
  96              	.LBE2:
 175:.\Generated_Source\PSoC5/cyfitter_cfg.c **** 	{
  97              		.loc 1 175 0 discriminator 2
  98 002a 0137     		adds	r7, r7, #1
  99              	.LVL10:
ARM GAS  C:\Users\kuzni\AppData\Local\Temp\cc0Z1uAH.s 			page 6


 100              	.L4:
 175:.\Generated_Source\PSoC5/cyfitter_cfg.c **** 	{
 101              		.loc 1 175 0 is_stmt 0 discriminator 1
 102 002c 182F     		cmp	r7, #24
 103 002e EBD9     		bls	.L7
 185:.\Generated_Source\PSoC5/cyfitter_cfg.c **** 		}
 186:.\Generated_Source\PSoC5/cyfitter_cfg.c **** 	}
 187:.\Generated_Source\PSoC5/cyfitter_cfg.c **** }
 104              		.loc 1 187 0 is_stmt 1
 105 0030 F0BC     		pop	{r4, r5, r6, r7}
 106              		.cfi_restore 7
 107              		.cfi_restore 6
 108              		.cfi_restore 5
 109              		.cfi_restore 4
 110              		.cfi_def_cfa_offset 0
 111              	.LVL11:
 112 0032 7047     		bx	lr
 113              		.cfi_endproc
 114              	.LFE4:
 115              		.size	cfg_write_bytes32, .-cfg_write_bytes32
 116              		.section	.text.AnalogSetDefault,"ax",%progbits
 117              		.align	2
 118              		.thumb
 119              		.thumb_func
 120              		.type	AnalogSetDefault, %function
 121              	AnalogSetDefault:
 122              	.LFB6:
 188:.\Generated_Source\PSoC5/cyfitter_cfg.c **** 
 189:.\Generated_Source\PSoC5/cyfitter_cfg.c **** /*******************************************************************************
 190:.\Generated_Source\PSoC5/cyfitter_cfg.c **** * Function Name: ClockSetup
 191:.\Generated_Source\PSoC5/cyfitter_cfg.c **** ********************************************************************************
 192:.\Generated_Source\PSoC5/cyfitter_cfg.c **** *
 193:.\Generated_Source\PSoC5/cyfitter_cfg.c **** * Summary:
 194:.\Generated_Source\PSoC5/cyfitter_cfg.c **** *  Performs the initialization of all of the clocks in the device based on the
 195:.\Generated_Source\PSoC5/cyfitter_cfg.c **** *  settings in the Clock tab of the DWR.  This includes enabling the requested
 196:.\Generated_Source\PSoC5/cyfitter_cfg.c **** *  clocks and setting the necessary dividers to produce the desired frequency. 
 197:.\Generated_Source\PSoC5/cyfitter_cfg.c **** *
 198:.\Generated_Source\PSoC5/cyfitter_cfg.c **** * Parameters:
 199:.\Generated_Source\PSoC5/cyfitter_cfg.c **** *  void
 200:.\Generated_Source\PSoC5/cyfitter_cfg.c **** *
 201:.\Generated_Source\PSoC5/cyfitter_cfg.c **** * Return:
 202:.\Generated_Source\PSoC5/cyfitter_cfg.c **** *  void
 203:.\Generated_Source\PSoC5/cyfitter_cfg.c **** *
 204:.\Generated_Source\PSoC5/cyfitter_cfg.c **** *******************************************************************************/
 205:.\Generated_Source\PSoC5/cyfitter_cfg.c **** static void ClockSetup(void);
 206:.\Generated_Source\PSoC5/cyfitter_cfg.c **** static void ClockSetup(void)
 207:.\Generated_Source\PSoC5/cyfitter_cfg.c **** {
 208:.\Generated_Source\PSoC5/cyfitter_cfg.c **** 	uint32 timeout;
 209:.\Generated_Source\PSoC5/cyfitter_cfg.c **** 	uint8 pllLock;
 210:.\Generated_Source\PSoC5/cyfitter_cfg.c **** 
 211:.\Generated_Source\PSoC5/cyfitter_cfg.c **** 
 212:.\Generated_Source\PSoC5/cyfitter_cfg.c **** 	/* Configure Digital Clocks based on settings from Clock DWR */
 213:.\Generated_Source\PSoC5/cyfitter_cfg.c **** 	CY_SET_XTND_REG16((void CYFAR *)(CYREG_CLKDIST_DCFG0_CFG0), 0x0000u);
 214:.\Generated_Source\PSoC5/cyfitter_cfg.c **** 	CY_SET_XTND_REG8((void CYFAR *)(CYREG_CLKDIST_DCFG0_CFG0 + 0x2u), 0x50u);
 215:.\Generated_Source\PSoC5/cyfitter_cfg.c **** 	CY_SET_XTND_REG16((void CYFAR *)(CYREG_CLKDIST_DCFG1_CFG0), 0x0001u);
 216:.\Generated_Source\PSoC5/cyfitter_cfg.c **** 	CY_SET_XTND_REG8((void CYFAR *)(CYREG_CLKDIST_DCFG1_CFG0 + 0x2u), 0x18u);
 217:.\Generated_Source\PSoC5/cyfitter_cfg.c **** 	CY_SET_XTND_REG16((void CYFAR *)(CYREG_CLKDIST_DCFG2_CFG0), 0x000Bu);
ARM GAS  C:\Users\kuzni\AppData\Local\Temp\cc0Z1uAH.s 			page 7


 218:.\Generated_Source\PSoC5/cyfitter_cfg.c **** 	CY_SET_XTND_REG8((void CYFAR *)(CYREG_CLKDIST_DCFG2_CFG0 + 0x2u), 0x18u);
 219:.\Generated_Source\PSoC5/cyfitter_cfg.c **** 
 220:.\Generated_Source\PSoC5/cyfitter_cfg.c **** 	/* Configure Analog Clocks based on settings from Clock DWR */
 221:.\Generated_Source\PSoC5/cyfitter_cfg.c **** 	CYCONFIGCPY((void CYFAR *)(CYREG_CLKDIST_ACFG0_CFG0), (const void CYFAR *)(BS_CYDEV_CLKDIST_ACFG0_
 222:.\Generated_Source\PSoC5/cyfitter_cfg.c **** 
 223:.\Generated_Source\PSoC5/cyfitter_cfg.c **** 	/* Configure ILO based on settings from Clock DWR */
 224:.\Generated_Source\PSoC5/cyfitter_cfg.c **** 	CY_SET_XTND_REG8((void CYFAR *)(CYREG_SLOWCLK_ILO_CR0), 0x02u);
 225:.\Generated_Source\PSoC5/cyfitter_cfg.c **** 	CY_SET_XTND_REG8((void CYFAR *)(CYREG_CLKDIST_CR), 0x08u);
 226:.\Generated_Source\PSoC5/cyfitter_cfg.c **** 
 227:.\Generated_Source\PSoC5/cyfitter_cfg.c **** 	/* Configure IMO based on settings from Clock DWR */
 228:.\Generated_Source\PSoC5/cyfitter_cfg.c **** 	CY_SET_XTND_REG8((void CYFAR *)(CYREG_FASTCLK_IMO_CR), 0x03u);
 229:.\Generated_Source\PSoC5/cyfitter_cfg.c **** 	CY_SET_XTND_REG8((void CYFAR *)(CYREG_IMO_TR1), (CY_GET_XTND_REG8((void CYFAR *)CYREG_FLSHID_CUST_
 230:.\Generated_Source\PSoC5/cyfitter_cfg.c **** 
 231:.\Generated_Source\PSoC5/cyfitter_cfg.c **** 	/* Configure PLL based on settings from Clock DWR */
 232:.\Generated_Source\PSoC5/cyfitter_cfg.c **** 	CY_SET_XTND_REG16((void CYFAR *)(CYREG_FASTCLK_PLL_P), 0x0008u);
 233:.\Generated_Source\PSoC5/cyfitter_cfg.c **** 	CY_SET_XTND_REG16((void CYFAR *)(CYREG_FASTCLK_PLL_CFG0), 0x1251u);
 234:.\Generated_Source\PSoC5/cyfitter_cfg.c **** 	/* Wait up to 250us for the PLL to lock */
 235:.\Generated_Source\PSoC5/cyfitter_cfg.c **** 	pllLock = 0u;
 236:.\Generated_Source\PSoC5/cyfitter_cfg.c **** 	for (timeout = 250u / 10u; (timeout > 0u) && (pllLock != 0x03u); timeout--)
 237:.\Generated_Source\PSoC5/cyfitter_cfg.c **** 	{ 
 238:.\Generated_Source\PSoC5/cyfitter_cfg.c **** 		pllLock = 0x03u & ((uint8)((uint8)pllLock << 1) | ((CY_GET_XTND_REG8((void CYFAR *)CYREG_FASTCLK_
 239:.\Generated_Source\PSoC5/cyfitter_cfg.c **** 		CyDelayCycles(10u * 48u); /* Delay 10us based on 48MHz clock */
 240:.\Generated_Source\PSoC5/cyfitter_cfg.c **** 	}
 241:.\Generated_Source\PSoC5/cyfitter_cfg.c **** 	/* If we ran out of time the PLL didn't lock so go to the error function */
 242:.\Generated_Source\PSoC5/cyfitter_cfg.c **** 	if (timeout == 0u)
 243:.\Generated_Source\PSoC5/cyfitter_cfg.c **** 	{
 244:.\Generated_Source\PSoC5/cyfitter_cfg.c **** 		CyClockStartupError(CYCLOCKSTART_PLL_ERROR);
 245:.\Generated_Source\PSoC5/cyfitter_cfg.c **** 	}
 246:.\Generated_Source\PSoC5/cyfitter_cfg.c **** 
 247:.\Generated_Source\PSoC5/cyfitter_cfg.c **** 	/* Configure Bus/Master Clock based on settings from Clock DWR */
 248:.\Generated_Source\PSoC5/cyfitter_cfg.c **** 	CY_SET_XTND_REG16((void CYFAR *)(CYREG_CLKDIST_MSTR0), 0x0100u);
 249:.\Generated_Source\PSoC5/cyfitter_cfg.c **** 	CY_SET_XTND_REG8((void CYFAR *)(CYREG_CLKDIST_MSTR0), 0x07u);
 250:.\Generated_Source\PSoC5/cyfitter_cfg.c **** 	CY_SET_XTND_REG8((void CYFAR *)(CYREG_CLKDIST_BCFG0), 0x00u);
 251:.\Generated_Source\PSoC5/cyfitter_cfg.c **** 	CY_SET_XTND_REG8((void CYFAR *)(CYREG_CLKDIST_BCFG2), 0x48u);
 252:.\Generated_Source\PSoC5/cyfitter_cfg.c **** 	CY_SET_XTND_REG8((void CYFAR *)(CYREG_CLKDIST_MSTR0), 0x00u);
 253:.\Generated_Source\PSoC5/cyfitter_cfg.c **** 	CY_SET_XTND_REG8((void CYFAR *)(CYREG_CLKDIST_LD), 0x02u);
 254:.\Generated_Source\PSoC5/cyfitter_cfg.c **** 	CY_SET_XTND_REG8((void CYFAR *)(CYREG_CLKDIST_DLY1), 0x04u);
 255:.\Generated_Source\PSoC5/cyfitter_cfg.c **** 
 256:.\Generated_Source\PSoC5/cyfitter_cfg.c **** 	CY_SET_XTND_REG8((void CYFAR *)(CYREG_PM_ACT_CFG2), ((CY_GET_XTND_REG8((void CYFAR *)CYREG_PM_ACT_
 257:.\Generated_Source\PSoC5/cyfitter_cfg.c **** 	CY_SET_XTND_REG8((void CYFAR *)(CYREG_PM_ACT_CFG1), ((CY_GET_XTND_REG8((void CYFAR *)CYREG_PM_ACT_
 258:.\Generated_Source\PSoC5/cyfitter_cfg.c **** 	CY_SET_XTND_REG8((void CYFAR *)(CYREG_PM_ACT_CFG0), ((CY_GET_XTND_REG8((void CYFAR *)CYREG_PM_ACT_
 259:.\Generated_Source\PSoC5/cyfitter_cfg.c **** }
 260:.\Generated_Source\PSoC5/cyfitter_cfg.c **** 
 261:.\Generated_Source\PSoC5/cyfitter_cfg.c **** 
 262:.\Generated_Source\PSoC5/cyfitter_cfg.c **** /* Analog API Functions */
 263:.\Generated_Source\PSoC5/cyfitter_cfg.c **** 
 264:.\Generated_Source\PSoC5/cyfitter_cfg.c **** 
 265:.\Generated_Source\PSoC5/cyfitter_cfg.c **** /*******************************************************************************
 266:.\Generated_Source\PSoC5/cyfitter_cfg.c **** * Function Name: AnalogSetDefault
 267:.\Generated_Source\PSoC5/cyfitter_cfg.c **** ********************************************************************************
 268:.\Generated_Source\PSoC5/cyfitter_cfg.c **** *
 269:.\Generated_Source\PSoC5/cyfitter_cfg.c **** * Summary:
 270:.\Generated_Source\PSoC5/cyfitter_cfg.c **** *  Sets up the analog portions of the chip to default values based on chip
 271:.\Generated_Source\PSoC5/cyfitter_cfg.c **** *  configuration options from the project.
 272:.\Generated_Source\PSoC5/cyfitter_cfg.c **** *
 273:.\Generated_Source\PSoC5/cyfitter_cfg.c **** * Parameters:
 274:.\Generated_Source\PSoC5/cyfitter_cfg.c **** *  void
ARM GAS  C:\Users\kuzni\AppData\Local\Temp\cc0Z1uAH.s 			page 8


 275:.\Generated_Source\PSoC5/cyfitter_cfg.c **** *
 276:.\Generated_Source\PSoC5/cyfitter_cfg.c **** * Return:
 277:.\Generated_Source\PSoC5/cyfitter_cfg.c **** *  void
 278:.\Generated_Source\PSoC5/cyfitter_cfg.c **** *
 279:.\Generated_Source\PSoC5/cyfitter_cfg.c **** *******************************************************************************/
 280:.\Generated_Source\PSoC5/cyfitter_cfg.c **** static void AnalogSetDefault(void);
 281:.\Generated_Source\PSoC5/cyfitter_cfg.c **** static void AnalogSetDefault(void)
 282:.\Generated_Source\PSoC5/cyfitter_cfg.c **** {
 123              		.loc 1 282 0
 124              		.cfi_startproc
 125              		@ args = 0, pretend = 0, frame = 0
 126              		@ frame_needed = 0, uses_anonymous_args = 0
 127              		@ link register save eliminated.
 283:.\Generated_Source\PSoC5/cyfitter_cfg.c **** 	uint8 bg_xover_inl_trim = CY_GET_XTND_REG8((void CYFAR *)(CYREG_FLSHID_MFG_CFG_BG_XOVER_INL_TRIM +
 128              		.loc 1 283 0
 129 0000 0A4B     		ldr	r3, .L10
 130 0002 1B78     		ldrb	r3, [r3]	@ zero_extendqisi2
 131 0004 DBB2     		uxtb	r3, r3
 132              	.LVL12:
 284:.\Generated_Source\PSoC5/cyfitter_cfg.c **** 	CY_SET_XTND_REG8((void CYFAR *)(CYREG_BG_DFT0), (bg_xover_inl_trim & 0x07u));
 133              		.loc 1 284 0
 134 0006 03F00701 		and	r1, r3, #7
 135 000a 094A     		ldr	r2, .L10+4
 136 000c 1170     		strb	r1, [r2]
 285:.\Generated_Source\PSoC5/cyfitter_cfg.c **** 	CY_SET_XTND_REG8((void CYFAR *)(CYREG_BG_DFT1), ((bg_xover_inl_trim >> 4) & 0x0Fu));
 137              		.loc 1 285 0
 138 000e 1B09     		lsrs	r3, r3, #4
 139              	.LVL13:
 140 0010 0132     		adds	r2, r2, #1
 141 0012 1370     		strb	r3, [r2]
 286:.\Generated_Source\PSoC5/cyfitter_cfg.c **** 	CY_SET_XTND_REG8((void CYFAR *)CYREG_PRT6_AG, 0x20u);
 142              		.loc 1 286 0
 143 0014 2022     		movs	r2, #32
 144 0016 074B     		ldr	r3, .L10+8
 145 0018 1A70     		strb	r2, [r3]
 287:.\Generated_Source\PSoC5/cyfitter_cfg.c **** 	CY_SET_XTND_REG8((void CYFAR *)CYREG_DSM0_SW0, 0x02u);
 146              		.loc 1 287 0
 147 001a 0222     		movs	r2, #2
 148 001c 03F69313 		addw	r3, r3, #2451
 149 0020 1A70     		strb	r2, [r3]
 288:.\Generated_Source\PSoC5/cyfitter_cfg.c **** 	CY_SET_XTND_REG8((void CYFAR *)CYREG_PUMP_CR0, 0x44u);
 150              		.loc 1 288 0
 151 0022 4422     		movs	r2, #68
 152 0024 A3F28A23 		subw	r3, r3, #650
 153 0028 1A70     		strb	r2, [r3]
 154 002a 7047     		bx	lr
 155              	.L11:
 156              		.align	2
 157              	.L10:
 158 002c CF010049 		.word	1224737231
 159 0030 6E580040 		.word	1073764462
 160 0034 6D510040 		.word	1073762669
 161              		.cfi_endproc
 162              	.LFE6:
 163              		.size	AnalogSetDefault, .-AnalogSetDefault
 164              		.section	.text.CYMEMZERO,"ax",%progbits
 165              		.align	2
ARM GAS  C:\Users\kuzni\AppData\Local\Temp\cc0Z1uAH.s 			page 9


 166              		.thumb
 167              		.thumb_func
 168              		.type	CYMEMZERO, %function
 169              	CYMEMZERO:
 170              	.LFB0:
  63:.\Generated_Source\PSoC5/cyfitter_cfg.c **** 	(void)memset(s, 0, n);
 171              		.loc 1 63 0
 172              		.cfi_startproc
 173              		@ args = 0, pretend = 0, frame = 0
 174              		@ frame_needed = 0, uses_anonymous_args = 0
 175              	.LVL14:
 176 0000 08B5     		push	{r3, lr}
 177              		.cfi_def_cfa_offset 8
 178              		.cfi_offset 3, -8
 179              		.cfi_offset 14, -4
 180 0002 0A46     		mov	r2, r1
  64:.\Generated_Source\PSoC5/cyfitter_cfg.c **** }
 181              		.loc 1 64 0
 182 0004 0021     		movs	r1, #0
 183              	.LVL15:
 184 0006 FFF7FEFF 		bl	memset
 185              	.LVL16:
 186 000a 08BD     		pop	{r3, pc}
 187              		.cfi_endproc
 188              	.LFE0:
 189              		.size	CYMEMZERO, .-CYMEMZERO
 190              		.section	.text.CYCONFIGCPY,"ax",%progbits
 191              		.align	2
 192              		.thumb
 193              		.thumb_func
 194              		.type	CYCONFIGCPY, %function
 195              	CYCONFIGCPY:
 196              	.LFB1:
  70:.\Generated_Source\PSoC5/cyfitter_cfg.c **** 	(void)memcpy(dest, src, n);
 197              		.loc 1 70 0
 198              		.cfi_startproc
 199              		@ args = 0, pretend = 0, frame = 0
 200              		@ frame_needed = 0, uses_anonymous_args = 0
 201              	.LVL17:
 202 0000 08B5     		push	{r3, lr}
 203              		.cfi_def_cfa_offset 8
 204              		.cfi_offset 3, -8
 205              		.cfi_offset 14, -4
  71:.\Generated_Source\PSoC5/cyfitter_cfg.c **** }
 206              		.loc 1 71 0
 207 0002 FFF7FEFF 		bl	memcpy
 208              	.LVL18:
 209 0006 08BD     		pop	{r3, pc}
 210              		.cfi_endproc
 211              	.LFE1:
 212              		.size	CYCONFIGCPY, .-CYCONFIGCPY
 213              		.section	.text.ClockSetup,"ax",%progbits
 214              		.align	2
 215              		.thumb
 216              		.thumb_func
 217              		.type	ClockSetup, %function
 218              	ClockSetup:
ARM GAS  C:\Users\kuzni\AppData\Local\Temp\cc0Z1uAH.s 			page 10


 219              	.LFB5:
 207:.\Generated_Source\PSoC5/cyfitter_cfg.c **** 	uint32 timeout;
 220              		.loc 1 207 0
 221              		.cfi_startproc
 222              		@ args = 0, pretend = 0, frame = 0
 223              		@ frame_needed = 0, uses_anonymous_args = 0
 224 0000 38B5     		push	{r3, r4, r5, lr}
 225              		.cfi_def_cfa_offset 16
 226              		.cfi_offset 3, -16
 227              		.cfi_offset 4, -12
 228              		.cfi_offset 5, -8
 229              		.cfi_offset 14, -4
 213:.\Generated_Source\PSoC5/cyfitter_cfg.c **** 	CY_SET_XTND_REG8((void CYFAR *)(CYREG_CLKDIST_DCFG0_CFG0 + 0x2u), 0x50u);
 230              		.loc 1 213 0
 231 0002 0024     		movs	r4, #0
 232 0004 314B     		ldr	r3, .L22
 233 0006 1C80     		strh	r4, [r3]	@ movhi
 214:.\Generated_Source\PSoC5/cyfitter_cfg.c **** 	CY_SET_XTND_REG16((void CYFAR *)(CYREG_CLKDIST_DCFG1_CFG0), 0x0001u);
 234              		.loc 1 214 0
 235 0008 5022     		movs	r2, #80
 236 000a 0233     		adds	r3, r3, #2
 237 000c 1A70     		strb	r2, [r3]
 215:.\Generated_Source\PSoC5/cyfitter_cfg.c **** 	CY_SET_XTND_REG8((void CYFAR *)(CYREG_CLKDIST_DCFG1_CFG0 + 0x2u), 0x18u);
 238              		.loc 1 215 0
 239 000e 0122     		movs	r2, #1
 240 0010 0233     		adds	r3, r3, #2
 241 0012 1A80     		strh	r2, [r3]	@ movhi
 216:.\Generated_Source\PSoC5/cyfitter_cfg.c **** 	CY_SET_XTND_REG16((void CYFAR *)(CYREG_CLKDIST_DCFG2_CFG0), 0x000Bu);
 242              		.loc 1 216 0
 243 0014 1823     		movs	r3, #24
 244 0016 2E4A     		ldr	r2, .L22+4
 245 0018 1370     		strb	r3, [r2]
 217:.\Generated_Source\PSoC5/cyfitter_cfg.c **** 	CY_SET_XTND_REG8((void CYFAR *)(CYREG_CLKDIST_DCFG2_CFG0 + 0x2u), 0x18u);
 246              		.loc 1 217 0
 247 001a 0B21     		movs	r1, #11
 248 001c 0232     		adds	r2, r2, #2
 249 001e 1180     		strh	r1, [r2]	@ movhi
 218:.\Generated_Source\PSoC5/cyfitter_cfg.c **** 
 250              		.loc 1 218 0
 251 0020 0232     		adds	r2, r2, #2
 252 0022 1370     		strb	r3, [r2]
 221:.\Generated_Source\PSoC5/cyfitter_cfg.c **** 
 253              		.loc 1 221 0
 254 0024 2B48     		ldr	r0, .L22+8
 255 0026 2C49     		ldr	r1, .L22+12
 256 0028 0422     		movs	r2, #4
 257 002a FFF7FEFF 		bl	CYCONFIGCPY
 258              	.LVL19:
 224:.\Generated_Source\PSoC5/cyfitter_cfg.c **** 	CY_SET_XTND_REG8((void CYFAR *)(CYREG_CLKDIST_CR), 0x08u);
 259              		.loc 1 224 0
 260 002e 0222     		movs	r2, #2
 261 0030 2A4B     		ldr	r3, .L22+16
 262 0032 1A70     		strb	r2, [r3]
 225:.\Generated_Source\PSoC5/cyfitter_cfg.c **** 
 263              		.loc 1 225 0
 264 0034 0822     		movs	r2, #8
 265 0036 4FF04023 		mov	r3, #1073758208
ARM GAS  C:\Users\kuzni\AppData\Local\Temp\cc0Z1uAH.s 			page 11


 266 003a 1A70     		strb	r2, [r3]
 228:.\Generated_Source\PSoC5/cyfitter_cfg.c **** 	CY_SET_XTND_REG8((void CYFAR *)(CYREG_IMO_TR1), (CY_GET_XTND_REG8((void CYFAR *)CYREG_FLSHID_CUST_
 267              		.loc 1 228 0
 268 003c 0321     		movs	r1, #3
 269 003e 03F50073 		add	r3, r3, #512
 270 0042 1970     		strb	r1, [r3]
 229:.\Generated_Source\PSoC5/cyfitter_cfg.c **** 
 271              		.loc 1 229 0
 272 0044 264B     		ldr	r3, .L22+20
 273 0046 1B78     		ldrb	r3, [r3]	@ zero_extendqisi2
 274 0048 DBB2     		uxtb	r3, r3
 275 004a 2649     		ldr	r1, .L22+24
 276 004c 0B70     		strb	r3, [r1]
 232:.\Generated_Source\PSoC5/cyfitter_cfg.c **** 	CY_SET_XTND_REG16((void CYFAR *)(CYREG_FASTCLK_PLL_CFG0), 0x1251u);
 277              		.loc 1 232 0
 278 004e 264B     		ldr	r3, .L22+28
 279 0050 1A80     		strh	r2, [r3]	@ movhi
 233:.\Generated_Source\PSoC5/cyfitter_cfg.c **** 	/* Wait up to 250us for the PLL to lock */
 280              		.loc 1 233 0
 281 0052 41F25122 		movw	r2, #4689
 282 0056 023B     		subs	r3, r3, #2
 283 0058 1A80     		strh	r2, [r3]	@ movhi
 284              	.LVL20:
 236:.\Generated_Source\PSoC5/cyfitter_cfg.c **** 	{ 
 285              		.loc 1 236 0
 286 005a 1925     		movs	r5, #25
 287 005c 0CE0     		b	.L17
 288              	.LVL21:
 289              	.L19:
 238:.\Generated_Source\PSoC5/cyfitter_cfg.c **** 		CyDelayCycles(10u * 48u); /* Delay 10us based on 48MHz clock */
 290              		.loc 1 238 0 discriminator 4
 291 005e 234B     		ldr	r3, .L22+32
 292 0060 1B78     		ldrb	r3, [r3]	@ zero_extendqisi2
 293 0062 03F00103 		and	r3, r3, #1
 294 0066 43EA4404 		orr	r4, r3, r4, lsl #1
 295              	.LVL22:
 296 006a 04F00304 		and	r4, r4, #3
 297              	.LVL23:
 239:.\Generated_Source\PSoC5/cyfitter_cfg.c **** 	}
 298              		.loc 1 239 0 discriminator 4
 299 006e 4FF4F070 		mov	r0, #480
 300 0072 FFF7FEFF 		bl	CyDelayCycles
 301              	.LVL24:
 236:.\Generated_Source\PSoC5/cyfitter_cfg.c **** 	{ 
 302              		.loc 1 236 0 discriminator 4
 303 0076 013D     		subs	r5, r5, #1
 304              	.LVL25:
 305              	.L17:
 236:.\Generated_Source\PSoC5/cyfitter_cfg.c **** 	{ 
 306              		.loc 1 236 0 is_stmt 0 discriminator 1
 307 0078 0DB1     		cbz	r5, .L18
 236:.\Generated_Source\PSoC5/cyfitter_cfg.c **** 	{ 
 308              		.loc 1 236 0 discriminator 3
 309 007a 032C     		cmp	r4, #3
 310 007c EFD1     		bne	.L19
 311              	.L18:
 242:.\Generated_Source\PSoC5/cyfitter_cfg.c **** 	{
ARM GAS  C:\Users\kuzni\AppData\Local\Temp\cc0Z1uAH.s 			page 12


 312              		.loc 1 242 0 is_stmt 1
 313 007e 15B9     		cbnz	r5, .L20
 244:.\Generated_Source\PSoC5/cyfitter_cfg.c **** 	}
 314              		.loc 1 244 0
 315 0080 0320     		movs	r0, #3
 316 0082 FFF7FEFF 		bl	CyClockStartupError
 317              	.LVL26:
 318              	.L20:
 248:.\Generated_Source\PSoC5/cyfitter_cfg.c **** 	CY_SET_XTND_REG8((void CYFAR *)(CYREG_CLKDIST_MSTR0), 0x07u);
 319              		.loc 1 248 0
 320 0086 1A4B     		ldr	r3, .L22+36
 321 0088 4FF48072 		mov	r2, #256
 322 008c 1A80     		strh	r2, [r3]	@ movhi
 249:.\Generated_Source\PSoC5/cyfitter_cfg.c **** 	CY_SET_XTND_REG8((void CYFAR *)(CYREG_CLKDIST_BCFG0), 0x00u);
 323              		.loc 1 249 0
 324 008e 0722     		movs	r2, #7
 325 0090 1A70     		strb	r2, [r3]
 250:.\Generated_Source\PSoC5/cyfitter_cfg.c **** 	CY_SET_XTND_REG8((void CYFAR *)(CYREG_CLKDIST_BCFG2), 0x48u);
 326              		.loc 1 250 0
 327 0092 0022     		movs	r2, #0
 328 0094 1749     		ldr	r1, .L22+40
 329 0096 0A70     		strb	r2, [r1]
 251:.\Generated_Source\PSoC5/cyfitter_cfg.c **** 	CY_SET_XTND_REG8((void CYFAR *)(CYREG_CLKDIST_MSTR0), 0x00u);
 330              		.loc 1 251 0
 331 0098 4820     		movs	r0, #72
 332 009a 0231     		adds	r1, r1, #2
 333 009c 0870     		strb	r0, [r1]
 252:.\Generated_Source\PSoC5/cyfitter_cfg.c **** 	CY_SET_XTND_REG8((void CYFAR *)(CYREG_CLKDIST_LD), 0x02u);
 334              		.loc 1 252 0
 335 009e 1A70     		strb	r2, [r3]
 253:.\Generated_Source\PSoC5/cyfitter_cfg.c **** 	CY_SET_XTND_REG8((void CYFAR *)(CYREG_CLKDIST_DLY1), 0x04u);
 336              		.loc 1 253 0
 337 00a0 0222     		movs	r2, #2
 338 00a2 033B     		subs	r3, r3, #3
 339 00a4 1A70     		strb	r2, [r3]
 254:.\Generated_Source\PSoC5/cyfitter_cfg.c **** 
 340              		.loc 1 254 0
 341 00a6 0422     		movs	r2, #4
 342 00a8 0A33     		adds	r3, r3, #10
 343 00aa 1A70     		strb	r2, [r3]
 256:.\Generated_Source\PSoC5/cyfitter_cfg.c **** 	CY_SET_XTND_REG8((void CYFAR *)(CYREG_PM_ACT_CFG1), ((CY_GET_XTND_REG8((void CYFAR *)CYREG_PM_ACT_
 344              		.loc 1 256 0
 345 00ac 124A     		ldr	r2, .L22+44
 346 00ae 1378     		ldrb	r3, [r2]	@ zero_extendqisi2
 347 00b0 43F00703 		orr	r3, r3, #7
 348 00b4 1370     		strb	r3, [r2]
 257:.\Generated_Source\PSoC5/cyfitter_cfg.c **** 	CY_SET_XTND_REG8((void CYFAR *)(CYREG_PM_ACT_CFG0), ((CY_GET_XTND_REG8((void CYFAR *)CYREG_PM_ACT_
 349              		.loc 1 257 0
 350 00b6 013A     		subs	r2, r2, #1
 351 00b8 1378     		ldrb	r3, [r2]	@ zero_extendqisi2
 352 00ba 43F00103 		orr	r3, r3, #1
 353 00be 1370     		strb	r3, [r2]
 258:.\Generated_Source\PSoC5/cyfitter_cfg.c **** }
 354              		.loc 1 258 0
 355 00c0 013A     		subs	r2, r2, #1
 356 00c2 1378     		ldrb	r3, [r2]	@ zero_extendqisi2
 357 00c4 43F08003 		orr	r3, r3, #128
ARM GAS  C:\Users\kuzni\AppData\Local\Temp\cc0Z1uAH.s 			page 13


 358 00c8 1370     		strb	r3, [r2]
 359 00ca 38BD     		pop	{r3, r4, r5, pc}
 360              	.LVL27:
 361              	.L23:
 362              		.align	2
 363              	.L22:
 364 00cc 80400040 		.word	1073758336
 365 00d0 86400040 		.word	1073758342
 366 00d4 00410040 		.word	1073758464
 367 00d8 68030048 		.word	1207960424
 368 00dc 00430040 		.word	1073758976
 369 00e0 08010049 		.word	1224737032
 370 00e4 A1460040 		.word	1073759905
 371 00e8 22420040 		.word	1073758754
 372 00ec 25420040 		.word	1073758757
 373 00f0 04400040 		.word	1073758212
 374 00f4 06400040 		.word	1073758214
 375 00f8 A2430040 		.word	1073759138
 376              		.cfi_endproc
 377              	.LFE5:
 378              		.size	ClockSetup, .-ClockSetup
 379              		.section	.text.SetAnalogRoutingPumps,"ax",%progbits
 380              		.align	2
 381              		.global	SetAnalogRoutingPumps
 382              		.thumb
 383              		.thumb_func
 384              		.type	SetAnalogRoutingPumps, %function
 385              	SetAnalogRoutingPumps:
 386              	.LFB7:
 289:.\Generated_Source\PSoC5/cyfitter_cfg.c **** }
 290:.\Generated_Source\PSoC5/cyfitter_cfg.c **** 
 291:.\Generated_Source\PSoC5/cyfitter_cfg.c **** 
 292:.\Generated_Source\PSoC5/cyfitter_cfg.c **** /*******************************************************************************
 293:.\Generated_Source\PSoC5/cyfitter_cfg.c **** * Function Name: SetAnalogRoutingPumps
 294:.\Generated_Source\PSoC5/cyfitter_cfg.c **** ********************************************************************************
 295:.\Generated_Source\PSoC5/cyfitter_cfg.c **** *
 296:.\Generated_Source\PSoC5/cyfitter_cfg.c **** * Summary:
 297:.\Generated_Source\PSoC5/cyfitter_cfg.c **** * Enables or disables the analog pumps feeding analog routing switches.
 298:.\Generated_Source\PSoC5/cyfitter_cfg.c **** * Intended to be called at startup, based on the Vdda system configuration;
 299:.\Generated_Source\PSoC5/cyfitter_cfg.c **** * may be called during operation when the user informs us that the Vdda voltage
 300:.\Generated_Source\PSoC5/cyfitter_cfg.c **** * crossed the pump threshold.
 301:.\Generated_Source\PSoC5/cyfitter_cfg.c **** *
 302:.\Generated_Source\PSoC5/cyfitter_cfg.c **** * Parameters:
 303:.\Generated_Source\PSoC5/cyfitter_cfg.c **** *  enabled - 1 to enable the pumps, 0 to disable the pumps
 304:.\Generated_Source\PSoC5/cyfitter_cfg.c **** *
 305:.\Generated_Source\PSoC5/cyfitter_cfg.c **** * Return:
 306:.\Generated_Source\PSoC5/cyfitter_cfg.c **** *  void
 307:.\Generated_Source\PSoC5/cyfitter_cfg.c **** *
 308:.\Generated_Source\PSoC5/cyfitter_cfg.c **** *******************************************************************************/
 309:.\Generated_Source\PSoC5/cyfitter_cfg.c **** void SetAnalogRoutingPumps(uint8 enabled)
 310:.\Generated_Source\PSoC5/cyfitter_cfg.c **** {
 387              		.loc 1 310 0
 388              		.cfi_startproc
 389              		@ args = 0, pretend = 0, frame = 0
 390              		@ frame_needed = 0, uses_anonymous_args = 0
 391              		@ link register save eliminated.
 392              	.LVL28:
ARM GAS  C:\Users\kuzni\AppData\Local\Temp\cc0Z1uAH.s 			page 14


 311:.\Generated_Source\PSoC5/cyfitter_cfg.c **** 	uint8 regValue = CY_GET_XTND_REG8((void CYFAR *)CYREG_PUMP_CR0);
 393              		.loc 1 311 0
 394 0000 054B     		ldr	r3, .L27
 395 0002 1B78     		ldrb	r3, [r3]	@ zero_extendqisi2
 396 0004 DBB2     		uxtb	r3, r3
 397              	.LVL29:
 312:.\Generated_Source\PSoC5/cyfitter_cfg.c **** 	if (enabled != 0u)
 398              		.loc 1 312 0
 399 0006 10B1     		cbz	r0, .L25
 313:.\Generated_Source\PSoC5/cyfitter_cfg.c **** 	{
 314:.\Generated_Source\PSoC5/cyfitter_cfg.c **** 		regValue |= 0x22u;
 400              		.loc 1 314 0
 401 0008 43F02203 		orr	r3, r3, #34
 402              	.LVL30:
 403 000c 01E0     		b	.L26
 404              	.L25:
 315:.\Generated_Source\PSoC5/cyfitter_cfg.c **** 	}
 316:.\Generated_Source\PSoC5/cyfitter_cfg.c **** 	else
 317:.\Generated_Source\PSoC5/cyfitter_cfg.c **** 	{
 318:.\Generated_Source\PSoC5/cyfitter_cfg.c **** 		regValue &= (uint8)~0x22u;
 405              		.loc 1 318 0
 406 000e 03F0DD03 		and	r3, r3, #221
 407              	.LVL31:
 408              	.L26:
 319:.\Generated_Source\PSoC5/cyfitter_cfg.c **** 	}
 320:.\Generated_Source\PSoC5/cyfitter_cfg.c **** 	CY_SET_XTND_REG8((void CYFAR *)CYREG_PUMP_CR0, regValue);
 409              		.loc 1 320 0
 410 0012 014A     		ldr	r2, .L27
 411 0014 1370     		strb	r3, [r2]
 412 0016 7047     		bx	lr
 413              	.L28:
 414              		.align	2
 415              	.L27:
 416 0018 76580040 		.word	1073764470
 417              		.cfi_endproc
 418              	.LFE7:
 419              		.size	SetAnalogRoutingPumps, .-SetAnalogRoutingPumps
 420              		.section	.text.cyfitter_cfg,"ax",%progbits
 421              		.align	2
 422              		.global	cyfitter_cfg
 423              		.thumb
 424              		.thumb_func
 425              		.type	cyfitter_cfg, %function
 426              	cyfitter_cfg:
 427              	.LFB8:
 321:.\Generated_Source\PSoC5/cyfitter_cfg.c **** }
 322:.\Generated_Source\PSoC5/cyfitter_cfg.c **** 
 323:.\Generated_Source\PSoC5/cyfitter_cfg.c **** #define CY_AMUX_UNUSED CYREG_BOOST_SR
 324:.\Generated_Source\PSoC5/cyfitter_cfg.c **** 
 325:.\Generated_Source\PSoC5/cyfitter_cfg.c **** 
 326:.\Generated_Source\PSoC5/cyfitter_cfg.c **** /*******************************************************************************
 327:.\Generated_Source\PSoC5/cyfitter_cfg.c **** * Function Name: cyfitter_cfg
 328:.\Generated_Source\PSoC5/cyfitter_cfg.c **** ********************************************************************************
 329:.\Generated_Source\PSoC5/cyfitter_cfg.c **** * Summary:
 330:.\Generated_Source\PSoC5/cyfitter_cfg.c **** *  This function is called by the start-up code for the selected device. It
 331:.\Generated_Source\PSoC5/cyfitter_cfg.c **** *  performs all of the necessary device configuration based on the design
 332:.\Generated_Source\PSoC5/cyfitter_cfg.c **** *  settings.  This includes settings from the Design Wide Resources (DWR) such
ARM GAS  C:\Users\kuzni\AppData\Local\Temp\cc0Z1uAH.s 			page 15


 333:.\Generated_Source\PSoC5/cyfitter_cfg.c **** *  as Clocks and Pins as well as any component configuration that is necessary.
 334:.\Generated_Source\PSoC5/cyfitter_cfg.c **** *
 335:.\Generated_Source\PSoC5/cyfitter_cfg.c **** * Parameters:  
 336:.\Generated_Source\PSoC5/cyfitter_cfg.c **** *   void
 337:.\Generated_Source\PSoC5/cyfitter_cfg.c **** *
 338:.\Generated_Source\PSoC5/cyfitter_cfg.c **** * Return:
 339:.\Generated_Source\PSoC5/cyfitter_cfg.c **** *   void
 340:.\Generated_Source\PSoC5/cyfitter_cfg.c **** *
 341:.\Generated_Source\PSoC5/cyfitter_cfg.c **** *******************************************************************************/
 342:.\Generated_Source\PSoC5/cyfitter_cfg.c **** 
 343:.\Generated_Source\PSoC5/cyfitter_cfg.c **** void cyfitter_cfg(void)
 344:.\Generated_Source\PSoC5/cyfitter_cfg.c **** {
 428              		.loc 1 344 0
 429              		.cfi_startproc
 430              		@ args = 0, pretend = 0, frame = 0
 431              		@ frame_needed = 0, uses_anonymous_args = 0
 432 0000 70B5     		push	{r4, r5, r6, lr}
 433              		.cfi_def_cfa_offset 16
 434              		.cfi_offset 4, -16
 435              		.cfi_offset 5, -12
 436              		.cfi_offset 6, -8
 437              		.cfi_offset 14, -4
 345:.\Generated_Source\PSoC5/cyfitter_cfg.c **** #ifdef CYGlobalIntDisable
 346:.\Generated_Source\PSoC5/cyfitter_cfg.c **** 	/* Disable interrupts by default. Let user enable if/when they want. */
 347:.\Generated_Source\PSoC5/cyfitter_cfg.c **** 	CYGlobalIntDisable
 438              		.loc 1 347 0
 439              	@ 347 ".\Generated_Source\PSoC5\cyfitter_cfg.c" 1
 440 0002 72B6     		CPSID   i
 441              	@ 0 "" 2
 348:.\Generated_Source\PSoC5/cyfitter_cfg.c **** #endif
 349:.\Generated_Source\PSoC5/cyfitter_cfg.c **** 
 350:.\Generated_Source\PSoC5/cyfitter_cfg.c **** 	/* Enable/Disable Debug functionality based on settings from System DWR */
 351:.\Generated_Source\PSoC5/cyfitter_cfg.c **** 	CY_SET_XTND_REG8((void CYFAR *)CYREG_MLOGIC_DEBUG, (CY_GET_XTND_REG8((void CYFAR *)CYREG_MLOGIC_DE
 442              		.loc 1 351 0
 443              		.thumb
 444 0004 364A     		ldr	r2, .L35
 445 0006 1378     		ldrb	r3, [r2]	@ zero_extendqisi2
 446 0008 43F00403 		orr	r3, r3, #4
 447 000c 1370     		strb	r3, [r2]
 448              	.LVL32:
 449              	.LBB3:
 352:.\Generated_Source\PSoC5/cyfitter_cfg.c **** 
 353:.\Generated_Source\PSoC5/cyfitter_cfg.c **** 	{
 354:.\Generated_Source\PSoC5/cyfitter_cfg.c **** 
 355:.\Generated_Source\PSoC5/cyfitter_cfg.c **** 		CYPACKED typedef struct {
 356:.\Generated_Source\PSoC5/cyfitter_cfg.c **** 			void CYFAR *address;
 357:.\Generated_Source\PSoC5/cyfitter_cfg.c **** 			uint16 size;
 358:.\Generated_Source\PSoC5/cyfitter_cfg.c **** 		} CYPACKED_ATTR cfg_memset_t;
 359:.\Generated_Source\PSoC5/cyfitter_cfg.c **** 
 360:.\Generated_Source\PSoC5/cyfitter_cfg.c **** 
 361:.\Generated_Source\PSoC5/cyfitter_cfg.c **** 		CYPACKED typedef struct {
 362:.\Generated_Source\PSoC5/cyfitter_cfg.c **** 			void CYFAR *dest;
 363:.\Generated_Source\PSoC5/cyfitter_cfg.c **** 			const void CYFAR *src;
 364:.\Generated_Source\PSoC5/cyfitter_cfg.c **** 			uint16 size;
 365:.\Generated_Source\PSoC5/cyfitter_cfg.c **** 		} CYPACKED_ATTR cfg_memcpy_t;
 366:.\Generated_Source\PSoC5/cyfitter_cfg.c **** 
 367:.\Generated_Source\PSoC5/cyfitter_cfg.c **** 		static const cfg_memset_t CYCODE cfg_memset_list [] = {
ARM GAS  C:\Users\kuzni\AppData\Local\Temp\cc0Z1uAH.s 			page 16


 368:.\Generated_Source\PSoC5/cyfitter_cfg.c **** 			/* address, size */
 369:.\Generated_Source\PSoC5/cyfitter_cfg.c **** 			{(void CYFAR *)(CYREG_PRT1_DR), 16u},
 370:.\Generated_Source\PSoC5/cyfitter_cfg.c **** 			{(void CYFAR *)(CYREG_PRT3_DR), 16u},
 371:.\Generated_Source\PSoC5/cyfitter_cfg.c **** 			{(void CYFAR *)(CYREG_PRT5_DR), 16u},
 372:.\Generated_Source\PSoC5/cyfitter_cfg.c **** 			{(void CYFAR *)(CYREG_PRT12_DR), 16u},
 373:.\Generated_Source\PSoC5/cyfitter_cfg.c **** 			{(void CYFAR *)(CYREG_PRT15_DR), 16u},
 374:.\Generated_Source\PSoC5/cyfitter_cfg.c **** 			{(void CYFAR *)(CYDEV_UCFG_B0_P0_U0_BASE), 3584u},
 375:.\Generated_Source\PSoC5/cyfitter_cfg.c **** 			{(void CYFAR *)(CYDEV_UCFG_B0_P7_U1_BASE), 384u},
 376:.\Generated_Source\PSoC5/cyfitter_cfg.c **** 			{(void CYFAR *)(CYDEV_UCFG_B1_P2_U0_BASE), 2048u},
 377:.\Generated_Source\PSoC5/cyfitter_cfg.c **** 			{(void CYFAR *)(CYDEV_UCFG_DSI0_BASE), 2560u},
 378:.\Generated_Source\PSoC5/cyfitter_cfg.c **** 			{(void CYFAR *)(CYDEV_UCFG_DSI12_BASE), 512u},
 379:.\Generated_Source\PSoC5/cyfitter_cfg.c **** 			{(void CYFAR *)(CYREG_BCTL0_MDCLK_EN), 32u},
 380:.\Generated_Source\PSoC5/cyfitter_cfg.c **** 		};
 381:.\Generated_Source\PSoC5/cyfitter_cfg.c **** 
 382:.\Generated_Source\PSoC5/cyfitter_cfg.c **** 		static const cfg_memcpy_t CYCODE cfg_memcpy_list [] = {
 383:.\Generated_Source\PSoC5/cyfitter_cfg.c **** 			/* dest, src, size */
 384:.\Generated_Source\PSoC5/cyfitter_cfg.c **** 			{(void CYFAR *)(CYDEV_UCFG_B0_P7_U0_BASE), BS_UDB_0_5_0_CONFIG_VAL, 128u},
 385:.\Generated_Source\PSoC5/cyfitter_cfg.c **** 		};
 386:.\Generated_Source\PSoC5/cyfitter_cfg.c **** 
 387:.\Generated_Source\PSoC5/cyfitter_cfg.c **** 		uint8 CYDATA i;
 388:.\Generated_Source\PSoC5/cyfitter_cfg.c **** 
 389:.\Generated_Source\PSoC5/cyfitter_cfg.c **** 		/* Zero out critical memory blocks before beginning configuration */
 390:.\Generated_Source\PSoC5/cyfitter_cfg.c **** 		for (i = 0u; i < (sizeof(cfg_memset_list)/sizeof(cfg_memset_list[0])); i++)
 450              		.loc 1 390 0
 451 000e 0024     		movs	r4, #0
 452 0010 0CE0     		b	.L30
 453              	.LVL33:
 454              	.L31:
 455              	.LBB4:
 391:.\Generated_Source\PSoC5/cyfitter_cfg.c **** 		{
 392:.\Generated_Source\PSoC5/cyfitter_cfg.c **** 			const cfg_memset_t CYCODE * CYDATA ms = &cfg_memset_list[i];
 393:.\Generated_Source\PSoC5/cyfitter_cfg.c **** 			CYMEMZERO(ms->address, (size_t)(uint32)(ms->size));
 456              		.loc 1 393 0 discriminator 3
 457 0012 3449     		ldr	r1, .L35+4
 458 0014 6300     		lsls	r3, r4, #1
 459 0016 1A19     		adds	r2, r3, r4
 460 0018 5200     		lsls	r2, r2, #1
 461 001a 0A44     		add	r2, r2, r1
 462 001c 2344     		add	r3, r3, r4
 463 001e 5B00     		lsls	r3, r3, #1
 464 0020 C858     		ldr	r0, [r1, r3]	@ unaligned
 465 0022 9188     		ldrh	r1, [r2, #4]
 466 0024 FFF7FEFF 		bl	CYMEMZERO
 467              	.LVL34:
 468              	.LBE4:
 390:.\Generated_Source\PSoC5/cyfitter_cfg.c **** 		{
 469              		.loc 1 390 0 discriminator 3
 470 0028 0134     		adds	r4, r4, #1
 471              	.LVL35:
 472 002a E4B2     		uxtb	r4, r4
 473              	.LVL36:
 474              	.L30:
 390:.\Generated_Source\PSoC5/cyfitter_cfg.c **** 		{
 475              		.loc 1 390 0 is_stmt 0 discriminator 1
 476 002c 0A2C     		cmp	r4, #10
 477 002e F0D9     		bls	.L31
 478 0030 0024     		movs	r4, #0
ARM GAS  C:\Users\kuzni\AppData\Local\Temp\cc0Z1uAH.s 			page 17


 479              	.LVL37:
 480 0032 0BE0     		b	.L32
 481              	.LVL38:
 482              	.L33:
 483              	.LBB5:
 394:.\Generated_Source\PSoC5/cyfitter_cfg.c **** 		}
 395:.\Generated_Source\PSoC5/cyfitter_cfg.c **** 
 396:.\Generated_Source\PSoC5/cyfitter_cfg.c **** 		/* Copy device configuration data into registers */
 397:.\Generated_Source\PSoC5/cyfitter_cfg.c **** 		for (i = 0u; i < (sizeof(cfg_memcpy_list)/sizeof(cfg_memcpy_list[0])); i++)
 398:.\Generated_Source\PSoC5/cyfitter_cfg.c **** 		{
 399:.\Generated_Source\PSoC5/cyfitter_cfg.c **** 			const cfg_memcpy_t CYCODE * CYDATA mc = &cfg_memcpy_list[i];
 400:.\Generated_Source\PSoC5/cyfitter_cfg.c **** 			void * CYDATA destPtr = mc->dest;
 484              		.loc 1 400 0 is_stmt 1 discriminator 3
 485 0034 2B49     		ldr	r1, .L35+4
 486 0036 A300     		lsls	r3, r4, #2
 487 0038 1A19     		adds	r2, r3, r4
 488 003a 5200     		lsls	r2, r2, #1
 489 003c 0A44     		add	r2, r2, r1
 490              	.LVL39:
 401:.\Generated_Source\PSoC5/cyfitter_cfg.c **** 			const void * CYDATA srcPtr = mc->src;
 402:.\Generated_Source\PSoC5/cyfitter_cfg.c **** 			uint16 CYDATA numBytes = mc->size;
 403:.\Generated_Source\PSoC5/cyfitter_cfg.c **** 			CYCONFIGCPY(destPtr, srcPtr, numBytes);
 491              		.loc 1 403 0 discriminator 3
 492 003e 506C     		ldr	r0, [r2, #68]	@ unaligned
 493              	.LVL40:
 494 0040 916C     		ldr	r1, [r2, #72]	@ unaligned
 495              	.LVL41:
 496 0042 8022     		movs	r2, #128
 497 0044 FFF7FEFF 		bl	CYCONFIGCPY
 498              	.LVL42:
 499              	.LBE5:
 397:.\Generated_Source\PSoC5/cyfitter_cfg.c **** 		{
 500              		.loc 1 397 0 discriminator 3
 501 0048 0134     		adds	r4, r4, #1
 502              	.LVL43:
 503 004a E4B2     		uxtb	r4, r4
 504              	.LVL44:
 505              	.L32:
 397:.\Generated_Source\PSoC5/cyfitter_cfg.c **** 		{
 506              		.loc 1 397 0 is_stmt 0 discriminator 1
 507 004c 002C     		cmp	r4, #0
 508 004e F1D0     		beq	.L33
 404:.\Generated_Source\PSoC5/cyfitter_cfg.c **** 		}
 405:.\Generated_Source\PSoC5/cyfitter_cfg.c **** 
 406:.\Generated_Source\PSoC5/cyfitter_cfg.c **** 		cfg_write_bytes32(cy_cfg_addr_table, cy_cfg_data_table);
 509              		.loc 1 406 0 is_stmt 1
 510 0050 4FF09040 		mov	r0, #1207959552
 511 0054 2449     		ldr	r1, .L35+8
 512 0056 FFF7FEFF 		bl	cfg_write_bytes32
 513              	.LVL45:
 407:.\Generated_Source\PSoC5/cyfitter_cfg.c **** 
 408:.\Generated_Source\PSoC5/cyfitter_cfg.c **** 		/* Perform normal device configuration. Order is not critical for these items. */
 409:.\Generated_Source\PSoC5/cyfitter_cfg.c **** 		CY_SET_XTND_REG8((void CYFAR *)(CYREG_DSM0_CR3), 0x0Au);
 514              		.loc 1 409 0
 515 005a 0A22     		movs	r2, #10
 516 005c 234B     		ldr	r3, .L35+12
 517 005e 1A70     		strb	r2, [r3]
ARM GAS  C:\Users\kuzni\AppData\Local\Temp\cc0Z1uAH.s 			page 18


 410:.\Generated_Source\PSoC5/cyfitter_cfg.c **** 
 411:.\Generated_Source\PSoC5/cyfitter_cfg.c **** 		/* Enable digital routing */
 412:.\Generated_Source\PSoC5/cyfitter_cfg.c **** 		CY_SET_XTND_REG8((void CYFAR *)CYREG_BCTL0_BANK_CTL, CY_GET_XTND_REG8((void CYFAR *)CYREG_BCTL0_B
 518              		.loc 1 412 0
 519 0060 234A     		ldr	r2, .L35+16
 520 0062 1378     		ldrb	r3, [r2]	@ zero_extendqisi2
 521 0064 43F00203 		orr	r3, r3, #2
 522 0068 1370     		strb	r3, [r2]
 413:.\Generated_Source\PSoC5/cyfitter_cfg.c **** 		CY_SET_XTND_REG8((void CYFAR *)CYREG_BCTL1_BANK_CTL, CY_GET_XTND_REG8((void CYFAR *)CYREG_BCTL1_B
 523              		.loc 1 413 0
 524 006a 1032     		adds	r2, r2, #16
 525 006c 1378     		ldrb	r3, [r2]	@ zero_extendqisi2
 526 006e 43F00203 		orr	r3, r3, #2
 527 0072 1370     		strb	r3, [r2]
 414:.\Generated_Source\PSoC5/cyfitter_cfg.c **** 
 415:.\Generated_Source\PSoC5/cyfitter_cfg.c **** 		/* Enable UDB array */
 416:.\Generated_Source\PSoC5/cyfitter_cfg.c **** 		CY_SET_XTND_REG8((void CYFAR *)CYREG_PM_ACT_CFG0, CY_GET_XTND_REG8((void CYFAR *)CYREG_PM_ACT_CFG
 528              		.loc 1 416 0
 529 0074 1F4C     		ldr	r4, .L35+20
 530              	.LVL46:
 531 0076 2378     		ldrb	r3, [r4]	@ zero_extendqisi2
 532 0078 43F04003 		orr	r3, r3, #64
 533 007c 2370     		strb	r3, [r4]
 417:.\Generated_Source\PSoC5/cyfitter_cfg.c **** 		CY_SET_XTND_REG8((void CYFAR *)CYREG_PM_AVAIL_CR2, CY_GET_XTND_REG8((void CYFAR *)CYREG_PM_AVAIL_
 534              		.loc 1 417 0
 535 007e A2F58632 		sub	r2, r2, #68608
 536 0082 513A     		subs	r2, r2, #81
 537 0084 1378     		ldrb	r3, [r2]	@ zero_extendqisi2
 538 0086 43F01003 		orr	r3, r3, #16
 539 008a 1370     		strb	r3, [r2]
 540              	.LBE3:
 418:.\Generated_Source\PSoC5/cyfitter_cfg.c **** 	}
 419:.\Generated_Source\PSoC5/cyfitter_cfg.c **** 
 420:.\Generated_Source\PSoC5/cyfitter_cfg.c **** 
 421:.\Generated_Source\PSoC5/cyfitter_cfg.c **** 	/* Perform second pass device configuration. These items must be configured in specific order afte
 422:.\Generated_Source\PSoC5/cyfitter_cfg.c **** 	CYCONFIGCPY((void CYFAR *)(CYREG_PRT0_DM0), (const void CYFAR *)(BS_IOPINS0_0_VAL), 8u);
 541              		.loc 1 422 0
 542 008c 1A48     		ldr	r0, .L35+24
 543 008e 1B49     		ldr	r1, .L35+28
 544 0090 0822     		movs	r2, #8
 545 0092 FFF7FEFF 		bl	CYCONFIGCPY
 546              	.LVL47:
 423:.\Generated_Source\PSoC5/cyfitter_cfg.c **** 	CYCONFIGCPY((void CYFAR *)(CYREG_PRT2_DM0), (const void CYFAR *)(BS_IOPINS0_2_VAL), 8u);
 547              		.loc 1 423 0
 548 0096 1A48     		ldr	r0, .L35+32
 549 0098 1A49     		ldr	r1, .L35+36
 550 009a 0822     		movs	r2, #8
 551 009c FFF7FEFF 		bl	CYCONFIGCPY
 552              	.LVL48:
 424:.\Generated_Source\PSoC5/cyfitter_cfg.c **** 	CYCONFIGCPY((void CYFAR *)(CYREG_PRT4_DM0), (const void CYFAR *)(BS_IOPINS0_4_VAL), 8u);
 553              		.loc 1 424 0
 554 00a0 1948     		ldr	r0, .L35+40
 555 00a2 1A49     		ldr	r1, .L35+44
 556 00a4 0822     		movs	r2, #8
 557 00a6 FFF7FEFF 		bl	CYCONFIGCPY
 558              	.LVL49:
 425:.\Generated_Source\PSoC5/cyfitter_cfg.c **** 	CYCONFIGCPY((void CYFAR *)(CYREG_PRT6_DM0), (const void CYFAR *)(BS_IOPINS0_6_VAL), 8u);
ARM GAS  C:\Users\kuzni\AppData\Local\Temp\cc0Z1uAH.s 			page 19


 559              		.loc 1 425 0
 560 00aa 1948     		ldr	r0, .L35+48
 561 00ac 1949     		ldr	r1, .L35+52
 562 00ae 0822     		movs	r2, #8
 563 00b0 FFF7FEFF 		bl	CYCONFIGCPY
 564              	.LVL50:
 426:.\Generated_Source\PSoC5/cyfitter_cfg.c **** 	/* Switch Boost to the precision bandgap reference from its internal reference */
 427:.\Generated_Source\PSoC5/cyfitter_cfg.c **** 	CY_SET_REG8((void CYXDATA *)CYREG_BOOST_CR2, (CY_GET_REG8((void CYXDATA *)CYREG_BOOST_CR2) | 0x08u
 565              		.loc 1 427 0
 566 00b4 184A     		ldr	r2, .L35+56
 567 00b6 1378     		ldrb	r3, [r2]	@ zero_extendqisi2
 568 00b8 43F00803 		orr	r3, r3, #8
 569 00bc 1370     		strb	r3, [r2]
 428:.\Generated_Source\PSoC5/cyfitter_cfg.c **** 
 429:.\Generated_Source\PSoC5/cyfitter_cfg.c **** 	/* Set Flash Cycles based on max possible frequency in case a glitch occurs during ClockSetup(). *
 430:.\Generated_Source\PSoC5/cyfitter_cfg.c **** 	CY_SET_XTND_REG8((void CYFAR *)(CYREG_CACHE_CC_CTL), (((CYDEV_INSTRUCT_CACHE_ENABLED) != 0) ? 0x01
 570              		.loc 1 430 0
 571 00be 174E     		ldr	r6, .L35+60
 572 00c0 0125     		movs	r5, #1
 573 00c2 3570     		strb	r5, [r6]
 431:.\Generated_Source\PSoC5/cyfitter_cfg.c **** 	/* Setup clocks based on selections from Clock DWR */
 432:.\Generated_Source\PSoC5/cyfitter_cfg.c **** 	ClockSetup();
 574              		.loc 1 432 0
 575 00c4 FFF7FEFF 		bl	ClockSetup
 576              	.LVL51:
 433:.\Generated_Source\PSoC5/cyfitter_cfg.c **** 	/* Set Flash Cycles based on newly configured 24.00MHz Bus Clock. */
 434:.\Generated_Source\PSoC5/cyfitter_cfg.c **** 	CY_SET_XTND_REG8((void CYFAR *)(CYREG_CACHE_CC_CTL), (((CYDEV_INSTRUCT_CACHE_ENABLED) != 0) ? 0x81
 577              		.loc 1 434 0
 578 00c8 8123     		movs	r3, #129
 579 00ca 3370     		strb	r3, [r6]
 435:.\Generated_Source\PSoC5/cyfitter_cfg.c **** 	CY_SET_XTND_REG8((void CYFAR *)(CYREG_PANTHER_WAITPIPE), 0x01u);
 580              		.loc 1 435 0
 581 00cc 144B     		ldr	r3, .L35+64
 582 00ce 1D70     		strb	r5, [r3]
 436:.\Generated_Source\PSoC5/cyfitter_cfg.c **** 
 437:.\Generated_Source\PSoC5/cyfitter_cfg.c **** 	/* Perform basic analog initialization to defaults */
 438:.\Generated_Source\PSoC5/cyfitter_cfg.c **** 	AnalogSetDefault();
 583              		.loc 1 438 0
 584 00d0 FFF7FEFF 		bl	AnalogSetDefault
 585              	.LVL52:
 439:.\Generated_Source\PSoC5/cyfitter_cfg.c **** 
 440:.\Generated_Source\PSoC5/cyfitter_cfg.c **** 	/* Configure alternate active mode */
 441:.\Generated_Source\PSoC5/cyfitter_cfg.c **** 	CYCONFIGCPY((void CYFAR *)CYDEV_PM_STBY_BASE, (const void CYFAR *)CYDEV_PM_ACT_BASE, 14u);
 586              		.loc 1 441 0
 587 00d4 1348     		ldr	r0, .L35+68
 588 00d6 2146     		mov	r1, r4
 589 00d8 0E22     		movs	r2, #14
 590 00da FFF7FEFF 		bl	CYCONFIGCPY
 591              	.LVL53:
 592 00de 70BD     		pop	{r4, r5, r6, pc}
 593              	.L36:
 594              		.align	2
 595              	.L35:
 596 00e0 E8460040 		.word	1073759976
 597 00e4 00000000 		.word	.LANCHOR0
 598 00e8 64000048 		.word	1207959652
 599 00ec 83580040 		.word	1073764483
ARM GAS  C:\Users\kuzni\AppData\Local\Temp\cc0Z1uAH.s 			page 20


 600 00f0 03500140 		.word	1073827843
 601 00f4 A0430040 		.word	1073759136
 602 00f8 02510040 		.word	1073762562
 603 00fc 48030048 		.word	1207960392
 604 0100 22510040 		.word	1073762594
 605 0104 50030048 		.word	1207960400
 606 0108 42510040 		.word	1073762626
 607 010c 58030048 		.word	1207960408
 608 0110 62510040 		.word	1073762658
 609 0114 60030048 		.word	1207960416
 610 0118 22430040 		.word	1073759010
 611 011c 00480040 		.word	1073760256
 612 0120 04000840 		.word	1074266116
 613 0124 B0430040 		.word	1073759152
 614              		.cfi_endproc
 615              	.LFE8:
 616              		.size	cyfitter_cfg, .-cyfitter_cfg
 617              		.section	.rodata
 618              		.align	2
 619              		.set	.LANCHOR0,. + 0
 620              		.type	cfg_memset_list.4885, %object
 621              		.size	cfg_memset_list.4885, 66
 622              	cfg_memset_list.4885:
 623 0000 10510040 		.word	1073762576
 624 0004 1000     		.short	16
 625 0006 30510040 		.4byte	1073762608
 626 000a 1000     		.short	16
 627 000c 50510040 		.word	1073762640
 628 0010 1000     		.short	16
 629 0012 C0510040 		.4byte	1073762752
 630 0016 1000     		.short	16
 631 0018 F0510040 		.word	1073762800
 632 001c 1000     		.short	16
 633 001e 00000140 		.4byte	1073807360
 634 0022 000E     		.short	3584
 635 0024 800E0140 		.word	1073811072
 636 0028 8001     		.short	384
 637 002a 00140140 		.4byte	1073812480
 638 002e 0008     		.short	2048
 639 0030 00400140 		.word	1073823744
 640 0034 000A     		.short	2560
 641 0036 004C0140 		.4byte	1073826816
 642 003a 0002     		.short	512
 643 003c 00500140 		.word	1073827840
 644 0040 2000     		.short	32
 645 0042 0000     		.space	2
 646              		.type	cfg_memcpy_list.4886, %object
 647              		.size	cfg_memcpy_list.4886, 10
 648              	cfg_memcpy_list.4886:
 649 0044 000E0140 		.word	1073810944
 650 0048 C8020048 		.word	1207960264
 651 004c 8000     		.short	128
 652 004e 0000     		.text
 653              	.Letext0:
 654              		.file 2 "c:\\program files (x86)\\cypress\\psoc creator\\3.3\\psoc creator\\import\\gnu\\arm\\4.9.
 655              		.file 3 ".\\Generated_Source\\PSoC5\\cytypes.h"
 656              		.file 4 ".\\Generated_Source\\PSoC5\\CyLib.h"
ARM GAS  C:\Users\kuzni\AppData\Local\Temp\cc0Z1uAH.s 			page 21

