ARM GAS  C:\Users\kuzni\AppData\Local\Temp\ccqUPoDe.s 			page 1


   1              		.syntax unified
   2              		.cpu cortex-m3
   3              		.fpu softvfp
   4              		.eabi_attribute 20, 1
   5              		.eabi_attribute 21, 1
   6              		.eabi_attribute 23, 3
   7              		.eabi_attribute 24, 1
   8              		.eabi_attribute 25, 1
   9              		.eabi_attribute 26, 1
  10              		.eabi_attribute 30, 1
  11              		.eabi_attribute 34, 1
  12              		.eabi_attribute 18, 4
  13              		.thumb
  14              		.file	"tm_layers.c"
  15              		.text
  16              	.Ltext0:
  17              		.cfi_sections	.debug_frame
  18              		.global	__aeabi_fdiv
  19              		.global	__aeabi_fmul
  20              		.global	__aeabi_i2f
  21              		.global	__aeabi_fcmpgt
  22              		.global	__aeabi_fadd
  23              		.global	__aeabi_f2iz
  24              		.section	.text.tml_conv2d_dwconv2d,"ax",%progbits
  25              		.align	2
  26              		.weak	tml_conv2d_dwconv2d
  27              		.thumb
  28              		.thumb_func
  29              		.type	tml_conv2d_dwconv2d, %function
  30              	tml_conv2d_dwconv2d:
  31              	.LFB6:
  32              		.file 1 ".\\tm_layers.c"
   1:.\tm_layers.c **** /* Copyright 2022 Sipeed Technology Co., Ltd. All Rights Reserved.
   2:.\tm_layers.c **** Licensed under the Apache License, Version 2.0 (the "License");
   3:.\tm_layers.c **** you may not use this file except in compliance with the License.
   4:.\tm_layers.c **** You may obtain a copy of the License at
   5:.\tm_layers.c ****     http://www.apache.org/licenses/LICENSE-2.0
   6:.\tm_layers.c **** Unless required by applicable law or agreed to in writing, software
   7:.\tm_layers.c **** distributed under the License is distributed on an "AS IS" BASIS,
   8:.\tm_layers.c **** WITHOUT WARRANTIES OR CONDITIONS OF ANY KIND, either express or implied.
   9:.\tm_layers.c **** See the License for the specific language governing permissions and
  10:.\tm_layers.c **** limitations under the License.
  11:.\tm_layers.c **** ==============================================================================*/
  12:.\tm_layers.c **** // It is default O0 implement
  13:.\tm_layers.c **** #include "tinymaix.h"
  14:.\tm_layers.c **** #include "float.h"
  15:.\tm_layers.c **** #include "math.h"
  16:.\tm_layers.c **** 
  17:.\tm_layers.c **** #if TM_OPT_LEVEL == TM_OPT0
  18:.\tm_layers.c **** 
  19:.\tm_layers.c **** #if TM_ARCH==TM_ARCH_CPU
  20:.\tm_layers.c ****     #include "arch_cpu.h"
  21:.\tm_layers.c **** #elif TM_ARCH==TM_ARCH_ARM_SIMD
  22:.\tm_layers.c ****     #include "arch_arm_simd.h"
  23:.\tm_layers.c **** #elif TM_ARCH==TM_ARCH_ARM_NEON
  24:.\tm_layers.c ****     #include "arch_arm_neon.h"
  25:.\tm_layers.c **** #elif TM_ARCH==TM_ARCH_ARM_MVEI
ARM GAS  C:\Users\kuzni\AppData\Local\Temp\ccqUPoDe.s 			page 2


  26:.\tm_layers.c ****     #include "arch_arm_mvei.h"
  27:.\tm_layers.c **** #elif TM_ARCH==TM_ARCH_RV32P
  28:.\tm_layers.c ****     #include "arch_rv32p.h"
  29:.\tm_layers.c **** #elif TM_ARCH==TM_ARCH_RV64V
  30:.\tm_layers.c ****     #include "arch_rv64v.h"
  31:.\tm_layers.c **** #elif TM_ARCH==TM_ARCH_CSKYV2
  32:.\tm_layers.c ****     #include "arch_cskyv2.h"
  33:.\tm_layers.c **** #elif TM_ARCH==TM_ARCH_X86_SSE2
  34:.\tm_layers.c ****     #include "arch_x86_sse2.h"
  35:.\tm_layers.c **** #else
  36:.\tm_layers.c ****     #error "UNSUPPORT ARCH!"
  37:.\tm_layers.c **** #endif
  38:.\tm_layers.c **** 
  39:.\tm_layers.c **** 
  40:.\tm_layers.c **** TM_PERF_REG(t_sbuf);TM_PERF_REG(t_dotp);TM_PERF_REG(t_post); 
  41:.\tm_layers.c **** TM_PERF_REG(t_valid); TM_PERF_REG(t_pad); 
  42:.\tm_layers.c **** TM_PERF_REG(t_conv); TM_PERF_REG(t_pwconv); TM_PERF_REG(t_dwconv); 
  43:.\tm_layers.c **** 
  44:.\tm_layers.c **** /*************************** TML_CONV2D **********************************/
  45:.\tm_layers.c **** TM_STATIC uint32_t k_oft[TM_MAX_KSIZE]; 
  46:.\tm_layers.c **** TM_STATIC mtype_t sbuf[TM_MAX_KCSIZE]; 
  47:.\tm_layers.c **** #if (TM_MDL_TYPE==TM_MDL_FP32) || (TM_MDL_TYPE==TM_MDL_FP16) 
  48:.\tm_layers.c **** #define SUMSCALE NULL
  49:.\tm_layers.c **** #define OUTSCALE outscale
  50:.\tm_layers.c **** 
  51:.\tm_layers.c **** #elif (TM_MDL_TYPE==TM_MDL_INT8) || (TM_MDL_TYPE==TM_MDL_INT16) 
  52:.\tm_layers.c **** 
  53:.\tm_layers.c **** #if TM_FASTSCALE
  54:.\tm_layers.c ****     TM_STATIC int32_t sumscale[TM_MAX_CSIZE];
  55:.\tm_layers.c ****     #define OUTSCALE outscale
  56:.\tm_layers.c **** #else
  57:.\tm_layers.c ****     TM_STATIC float sumscale[TM_MAX_CSIZE];
  58:.\tm_layers.c ****     #define OUTSCALE outscale_inv
  59:.\tm_layers.c **** #endif
  60:.\tm_layers.c **** #define SUMSCALE (sumscale + c)
  61:.\tm_layers.c **** #endif
  62:.\tm_layers.c ****  
  63:.\tm_layers.c **** //for valid or kernel in valid part, use fast method
  64:.\tm_layers.c **** tm_err_t TM_WEAK tml_conv2d_dwconv2d(tm_mat_t* in, tm_mat_t* out, wtype_t* w, btype_t* b, \
  65:.\tm_layers.c ****     int kw, int kh, int sx, int sy, int dx, int dy, int act, \
  66:.\tm_layers.c ****     int pad_top, int pad_bottom, int pad_left, int pad_right, int dmul, \
  67:.\tm_layers.c ****     sctype_t* ws, sctype_t in_s, zptype_t in_zp, sctype_t out_s, zptype_t out_zp) //kernel: (cho, c
  68:.\tm_layers.c **** {   TM_PERF_INIT(t_sbuf);TM_PERF_INIT(t_dotp);TM_PERF_INIT(t_post);
  33              		.loc 1 68 0
  34              		.cfi_startproc
  35              		@ args = 68, pretend = 0, frame = 64
  36              		@ frame_needed = 0, uses_anonymous_args = 0
  37              	.LVL0:
  38 0000 2DE9F04F 		push	{r4, r5, r6, r7, r8, r9, r10, fp, lr}
  39              		.cfi_def_cfa_offset 36
  40              		.cfi_offset 4, -36
  41              		.cfi_offset 5, -32
  42              		.cfi_offset 6, -28
  43              		.cfi_offset 7, -24
  44              		.cfi_offset 8, -20
  45              		.cfi_offset 9, -16
  46              		.cfi_offset 10, -12
ARM GAS  C:\Users\kuzni\AppData\Local\Temp\ccqUPoDe.s 			page 3


  47              		.cfi_offset 11, -8
  48              		.cfi_offset 14, -4
  49 0004 91B0     		sub	sp, sp, #68
  50              		.cfi_def_cfa_offset 104
  51 0006 0590     		str	r0, [sp, #20]
  52 0008 0091     		str	r1, [sp]
  53 000a 0192     		str	r2, [sp, #4]
  54 000c 0393     		str	r3, [sp, #12]
  55 000e 1A9F     		ldr	r7, [sp, #104]
  69:.\tm_layers.c ****     TM_PERF_INIT(t_valid);TM_PERF_INIT(t_pad);
  70:.\tm_layers.c ****     TM_PERF_INIT(t_conv); TM_PERF_INIT(t_pwconv); TM_PERF_INIT(t_dwconv);
  71:.\tm_layers.c ****     int pad_flag = (pad_top != 0 ||pad_bottom != 0 ||pad_left != 0 ||pad_right != 0);
  56              		.loc 1 71 0
  57 0010 219B     		ldr	r3, [sp, #132]
  58              	.LVL1:
  59 0012 3BB9     		cbnz	r3, .L85
  60              		.loc 1 71 0 is_stmt 0 discriminator 2
  61 0014 229B     		ldr	r3, [sp, #136]
  62 0016 3BB9     		cbnz	r3, .L86
  63              		.loc 1 71 0 discriminator 4
  64 0018 239B     		ldr	r3, [sp, #140]
  65 001a 3BB9     		cbnz	r3, .L87
  66              		.loc 1 71 0 discriminator 6
  67 001c 249B     		ldr	r3, [sp, #144]
  68 001e 3BB1     		cbz	r3, .L88
  69              		.loc 1 71 0
  70 0020 0122     		movs	r2, #1
  71              	.LVL2:
  72 0022 06E0     		b	.L2
  73              	.LVL3:
  74              	.L85:
  75 0024 0122     		movs	r2, #1
  76              	.LVL4:
  77 0026 04E0     		b	.L2
  78              	.LVL5:
  79              	.L86:
  80 0028 0122     		movs	r2, #1
  81              	.LVL6:
  82 002a 02E0     		b	.L2
  83              	.LVL7:
  84              	.L87:
  85 002c 0122     		movs	r2, #1
  86              	.LVL8:
  87 002e 00E0     		b	.L2
  88              	.LVL9:
  89              	.L88:
  90 0030 0022     		movs	r2, #0
  91              	.LVL10:
  92              	.L2:
  72:.\tm_layers.c ****     if(dx!=1 || dy!= 1) return TM_ERR_TODO;
  93              		.loc 1 72 0 is_stmt 1 discriminator 10
  94 0032 1E9B     		ldr	r3, [sp, #120]
  95 0034 012B     		cmp	r3, #1
  96 0036 40F0E783 		bne	.L89
  97              		.loc 1 72 0 is_stmt 0 discriminator 2
  98 003a 1F9B     		ldr	r3, [sp, #124]
  99 003c 012B     		cmp	r3, #1
ARM GAS  C:\Users\kuzni\AppData\Local\Temp\ccqUPoDe.s 			page 4


 100 003e 40F0E583 		bne	.L90
  73:.\tm_layers.c ****     if(act >= TM_ACT_MAXCNT) return TM_ERR_UNSUPPORT;
 101              		.loc 1 73 0 is_stmt 1
 102 0042 209B     		ldr	r3, [sp, #128]
 103 0044 052B     		cmp	r3, #5
 104 0046 00F3E383 		bgt	.L91
  74:.\tm_layers.c ****     int maxk = kw*kh;
 105              		.loc 1 74 0
 106 004a 1B9B     		ldr	r3, [sp, #108]
 107 004c 03FB07FB 		mul	fp, r3, r7
 108              	.LVL11:
  75:.\tm_layers.c ****     if(maxk>TM_MAX_KSIZE) return TM_ERR_KSIZE;
 109              		.loc 1 75 0
 110 0050 BBF1190F 		cmp	fp, #25
 111 0054 00F3DE83 		bgt	.L92
  76:.\tm_layers.c ****     if(maxk==1 && (pad_flag||dmul)) return TM_ERR_UNSUPPORT;   //assume no pad or dwconv when pwcon
 112              		.loc 1 76 0
 113 0058 BBF1010F 		cmp	fp, #1
 114 005c 06D1     		bne	.L4
 115              		.loc 1 76 0 is_stmt 0 discriminator 1
 116 005e 002A     		cmp	r2, #0
 117 0060 40F0DA83 		bne	.L93
 118              		.loc 1 76 0 discriminator 3
 119 0064 259B     		ldr	r3, [sp, #148]
 120 0066 002B     		cmp	r3, #0
 121 0068 40F0D883 		bne	.L94
 122              	.L4:
  77:.\tm_layers.c ****     int chi  = in->c;
 123              		.loc 1 77 0 is_stmt 1
 124 006c 059B     		ldr	r3, [sp, #20]
 125 006e B3F80690 		ldrh	r9, [r3, #6]
 126 0072 CDF80890 		str	r9, [sp, #8]
 127              	.LVL12:
  78:.\tm_layers.c ****     int cho  = out->c;
 128              		.loc 1 78 0
 129 0076 009A     		ldr	r2, [sp]
 130              	.LVL13:
 131 0078 D388     		ldrh	r3, [r2, #6]
 132 007a 0893     		str	r3, [sp, #32]
 133              	.LVL14:
  79:.\tm_layers.c ****     sumtype_t sum = 0;
 134              		.loc 1 79 0
 135 007c 0024     		movs	r4, #0
 136 007e 0F94     		str	r4, [sp, #60]
  80:.\tm_layers.c ****     mtype_t* outp = out->data;
 137              		.loc 1 80 0
 138 0080 9368     		ldr	r3, [r2, #8]
 139              	.LVL15:
 140 0082 0493     		str	r3, [sp, #16]
 141              	.LVL16:
  81:.\tm_layers.c **** 
  82:.\tm_layers.c **** #if (TM_MDL_TYPE == TM_MDL_INT8) || (TM_MDL_TYPE == TM_MDL_INT16)
  83:.\tm_layers.c **** #if TM_FASTSCALE
  84:.\tm_layers.c **** 	int32_t outscale = (1<<TM_FASTSCALE_SHIFT)/out_s;
  85:.\tm_layers.c **** 	for(int c=0; c<out->c;c++) sumscale[c]=1.0/ws[c]/in_s;
  86:.\tm_layers.c **** #else
  87:.\tm_layers.c **** 	sctype_t outscale = out_s;
ARM GAS  C:\Users\kuzni\AppData\Local\Temp\ccqUPoDe.s 			page 5


  88:.\tm_layers.c ****     sctype_t outscale_inv = 1.f / outscale;
 142              		.loc 1 88 0
 143 0084 4FF07E50 		mov	r0, #1065353216
 144              	.LVL17:
 145 0088 2999     		ldr	r1, [sp, #164]	@ float
 146              	.LVL18:
 147 008a FFF7FEFF 		bl	__aeabi_fdiv
 148              	.LVL19:
 149 008e 0690     		str	r0, [sp, #24]	@ float
 150              	.LVL20:
  89:.\tm_layers.c ****     int c;
  90:.\tm_layers.c **** 	for(c=0; c<out->c;c++) sumscale[c]=ws[c]*in_s;
 151              		.loc 1 90 0
 152 0090 0BE0     		b	.L5
 153              	.LVL21:
 154              	.L6:
 155              		.loc 1 90 0 is_stmt 0 discriminator 3
 156 0092 269B     		ldr	r3, [sp, #152]
 157 0094 53F82400 		ldr	r0, [r3, r4, lsl #2]	@ float
 158 0098 2799     		ldr	r1, [sp, #156]	@ float
 159 009a FFF7FEFF 		bl	__aeabi_fmul
 160              	.LVL22:
 161 009e BD4B     		ldr	r3, .L113
 162 00a0 03EB8403 		add	r3, r3, r4, lsl #2
 163 00a4 C3F80009 		str	r0, [r3, #2304]	@ float
 164 00a8 0134     		adds	r4, r4, #1
 165              	.LVL23:
 166              	.L5:
 167              		.loc 1 90 0 discriminator 1
 168 00aa 009B     		ldr	r3, [sp]
 169 00ac DB88     		ldrh	r3, [r3, #6]
 170 00ae A342     		cmp	r3, r4
 171 00b0 EFDC     		bgt	.L6
  91:.\tm_layers.c **** #endif
  92:.\tm_layers.c **** #else
  93:.\tm_layers.c **** 	sctype_t outscale = out_s;
  94:.\tm_layers.c **** #endif
  95:.\tm_layers.c **** 
  96:.\tm_layers.c ****     if(maxk==1){ TM_PERF_START(t_pwconv);   //pointwise conv
 172              		.loc 1 96 0 is_stmt 1
 173 00b2 BBF1010F 		cmp	fp, #1
 174 00b6 40F08481 		bne	.L95
 175              	.LVL24:
 176              	.LBB40:
  97:.\tm_layers.c ****         #define BATCH_SIZE 2
  98:.\tm_layers.c ****         sumtype_t sums[BATCH_SIZE];
  99:.\tm_layers.c ****         int c = 0;
 100:.\tm_layers.c ****         mtype_t* sptr = in->data;  // Add sptr declaration
 177              		.loc 1 100 0
 178 00ba 059B     		ldr	r3, [sp, #20]
 179 00bc D3F80880 		ldr	r8, [r3, #8]
 180              	.LVL25:
  99:.\tm_layers.c ****         mtype_t* sptr = in->data;  // Add sptr declaration
 181              		.loc 1 99 0
 182 00c0 4FF0000B 		mov	fp, #0
 183              	.LVL26:
 184 00c4 4746     		mov	r7, r8
ARM GAS  C:\Users\kuzni\AppData\Local\Temp\ccqUPoDe.s 			page 6


 185              	.LVL27:
 186 00c6 D846     		mov	r8, fp
 187              	.LVL28:
 101:.\tm_layers.c ****         wtype_t* kptr = w;         // Add kptr declaration
 102:.\tm_layers.c ****         for(; c<out->c-BATCH_SIZE+1; ){
 188              		.loc 1 102 0
 189 00c8 CAE0     		b	.L8
 190              	.LVL29:
 191              	.L13:
 192              	.LBB41:
 103:.\tm_layers.c ****             int bat;
 104:.\tm_layers.c ****             for(bat = 0; bat < BATCH_SIZE; bat+=2)
 105:.\tm_layers.c ****                 tm_dot_prod_pack2(sptr, kptr + chi*bat, chi, sums + bat);
 193              		.loc 1 105 0 discriminator 3
 194 00ca 029B     		ldr	r3, [sp, #8]
 195 00cc 019A     		ldr	r2, [sp, #4]
 196 00ce 0CFB0324 		mla	r4, ip, r3, r2
 197 00d2 CDF81490 		str	r9, [sp, #20]
 198 00d6 4FEA8C08 		lsl	r8, ip, #2
 199 00da 0DF1340E 		add	lr, sp, #52
 200 00de 0EEB0803 		add	r3, lr, r8
 201 00e2 0793     		str	r3, [sp, #28]
 202              	.LVL30:
 203              	.LBB42:
 204              	.LBB43:
 205              		.file 2 ".\\arch_cpu.h"
   1:.\arch_cpu.h  **** /* Copyright 2022 Sipeed Technology Co., Ltd. All Rights Reserved.
   2:.\arch_cpu.h  **** Licensed under the Apache License, Version 2.0 (the "License");
   3:.\arch_cpu.h  **** you may not use this file except in compliance with the License.
   4:.\arch_cpu.h  **** You may obtain a copy of the License at
   5:.\arch_cpu.h  ****     http://www.apache.org/licenses/LICENSE-2.0
   6:.\arch_cpu.h  **** Unless required by applicable law or agreed to in writing, software
   7:.\arch_cpu.h  **** distributed under the License is distributed on an "AS IS" BASIS,
   8:.\arch_cpu.h  **** WITHOUT WARRANTIES OR CONDITIONS OF ANY KIND, either express or implied.
   9:.\arch_cpu.h  **** See the License for the specific language governing permissions and
  10:.\arch_cpu.h  **** limitations under the License.
  11:.\arch_cpu.h  **** ==============================================================================*/
  12:.\arch_cpu.h  **** 
  13:.\arch_cpu.h  **** #include "stdlib.h"
  14:.\arch_cpu.h  **** #include "stdint.h"
  15:.\arch_cpu.h  **** #include "math.h"
  16:.\arch_cpu.h  **** #include "float.h"
  17:.\arch_cpu.h  **** #include "tinymaix.h"
  18:.\arch_cpu.h  **** 
  19:.\arch_cpu.h  **** #if (TM_MDL_TYPE != TM_MDL_FP8_143) && (TM_MDL_TYPE != TM_MDL_FP8_152)
  20:.\arch_cpu.h  **** //sum = SUM(Ai*Bi)
  21:.\arch_cpu.h  **** TM_INLINE void tm_dot_prod(mtype_t* sptr, mtype_t* kptr,uint32_t size, sumtype_t* result)
  22:.\arch_cpu.h  **** {
  23:.\arch_cpu.h  ****     sumtype_t sum=0;
  24:.\arch_cpu.h  ****     uint32_t i = 0;
  25:.\arch_cpu.h  ****     uint32_t cnt = (size>>3)<<3;  //8
  26:.\arch_cpu.h  ****     for(; i+8-1 <cnt; ){
  27:.\arch_cpu.h  ****         sum += sptr[i]*kptr[i];i++;
  28:.\arch_cpu.h  ****         sum += sptr[i]*kptr[i];i++;
  29:.\arch_cpu.h  ****         sum += sptr[i]*kptr[i];i++;
  30:.\arch_cpu.h  ****         sum += sptr[i]*kptr[i];i++;
  31:.\arch_cpu.h  ****         sum += sptr[i]*kptr[i];i++;
ARM GAS  C:\Users\kuzni\AppData\Local\Temp\ccqUPoDe.s 			page 7


  32:.\arch_cpu.h  ****         sum += sptr[i]*kptr[i];i++;
  33:.\arch_cpu.h  ****         sum += sptr[i]*kptr[i];i++;
  34:.\arch_cpu.h  ****         sum += sptr[i]*kptr[i];i++;
  35:.\arch_cpu.h  ****     }
  36:.\arch_cpu.h  ****     for(; i <size; i++){
  37:.\arch_cpu.h  ****         sum += sptr[i]*kptr[i]; 
  38:.\arch_cpu.h  ****     }
  39:.\arch_cpu.h  ****     *result = sum;
  40:.\arch_cpu.h  ****     return;
  41:.\arch_cpu.h  **** }
  42:.\arch_cpu.h  **** 
  43:.\arch_cpu.h  **** TM_INLINE  void tm_dot_prod_pack2(mtype_t* sptr, mtype_t* kptr, uint32_t size, sumtype_t* result)
  44:.\arch_cpu.h  **** { 
  45:.\arch_cpu.h  ****     sumtype_t sum0 = 0;
  46:.\arch_cpu.h  ****     sumtype_t sum1 = 0;
  47:.\arch_cpu.h  ****     mtype_t* kptr0 = kptr;
  48:.\arch_cpu.h  ****     mtype_t* kptr1 = kptr+size;
 206              		.loc 2 48 0 discriminator 3
 207 00e4 04EB0905 		add	r5, r4, r9
 208              	.LVL31:
  49:.\arch_cpu.h  **** 
  50:.\arch_cpu.h  ****     uint32_t i = 0;
  51:.\arch_cpu.h  ****     uint32_t cnt = (size>>3)<<3;  //8
 209              		.loc 2 51 0 discriminator 3
 210 00e8 29F00703 		bic	r3, r9, #7
 211              	.LVL32:
 212 00ec 0893     		str	r3, [sp, #32]
 213              	.LVL33:
  50:.\arch_cpu.h  ****     uint32_t cnt = (size>>3)<<3;  //8
 214              		.loc 2 50 0 discriminator 3
 215 00ee 0020     		movs	r0, #0
  46:.\arch_cpu.h  ****     mtype_t* kptr0 = kptr;
 216              		.loc 2 46 0 discriminator 3
 217 00f0 0146     		mov	r1, r0
  45:.\arch_cpu.h  ****     sumtype_t sum1 = 0;
 218              		.loc 2 45 0 discriminator 3
 219 00f2 8246     		mov	r10, r0
 220 00f4 46E0     		b	.L9
 221              	.LVL34:
 222              	.L10:
  52:.\arch_cpu.h  ****     for(; i+8-1 <cnt; ){
  53:.\arch_cpu.h  ****         sum0 += sptr[i]*kptr0[i]; sum1 += sptr[i]*kptr1[i]; i++;
 223              		.loc 2 53 0
 224 00f6 3A56     		ldrsb	r2, [r7, r0]
 225 00f8 2656     		ldrsb	r6, [r4, r0]
 226 00fa 06FB02A6 		mla	r6, r6, r2, r10
 227              	.LVL35:
 228 00fe 15F900A0 		ldrsb	r10, [r5, r0]
 229 0102 0AFB0211 		mla	r1, r10, r2, r1
 230              	.LVL36:
 231 0106 421C     		adds	r2, r0, #1
 232              	.LVL37:
  54:.\arch_cpu.h  ****         sum0 += sptr[i]*kptr0[i]; sum1 += sptr[i]*kptr1[i]; i++;
 233              		.loc 2 54 0
 234 0108 17F902A0 		ldrsb	r10, [r7, r2]
 235 010c 14F902B0 		ldrsb	fp, [r4, r2]
 236 0110 0BFB0A6B 		mla	fp, fp, r10, r6
ARM GAS  C:\Users\kuzni\AppData\Local\Temp\ccqUPoDe.s 			page 8


 237              	.LVL38:
 238 0114 AA56     		ldrsb	r2, [r5, r2]
 239              	.LVL39:
 240 0116 02FB0A11 		mla	r1, r2, r10, r1
 241              	.LVL40:
 242 011a 861C     		adds	r6, r0, #2
 243              	.LVL41:
  55:.\arch_cpu.h  ****         sum0 += sptr[i]*kptr0[i]; sum1 += sptr[i]*kptr1[i]; i++;
 244              		.loc 2 55 0
 245 011c BA57     		ldrsb	r2, [r7, r6]
 246 011e 14F906A0 		ldrsb	r10, [r4, r6]
 247 0122 0AFB02BB 		mla	fp, r10, r2, fp
 248              	.LVL42:
 249 0126 AE57     		ldrsb	r6, [r5, r6]
 250              	.LVL43:
 251 0128 06FB0211 		mla	r1, r6, r2, r1
 252              	.LVL44:
 253 012c C21C     		adds	r2, r0, #3
 254              	.LVL45:
  56:.\arch_cpu.h  ****         sum0 += sptr[i]*kptr0[i]; sum1 += sptr[i]*kptr1[i]; i++;
 255              		.loc 2 56 0
 256 012e BE56     		ldrsb	r6, [r7, r2]
 257 0130 14F902A0 		ldrsb	r10, [r4, r2]
 258 0134 0AFB06BB 		mla	fp, r10, r6, fp
 259              	.LVL46:
 260 0138 AA56     		ldrsb	r2, [r5, r2]
 261              	.LVL47:
 262 013a 02FB0611 		mla	r1, r2, r6, r1
 263              	.LVL48:
 264 013e 061D     		adds	r6, r0, #4
 265              	.LVL49:
  57:.\arch_cpu.h  ****         sum0 += sptr[i]*kptr0[i]; sum1 += sptr[i]*kptr1[i]; i++;
 266              		.loc 2 57 0
 267 0140 BA57     		ldrsb	r2, [r7, r6]
 268 0142 14F906A0 		ldrsb	r10, [r4, r6]
 269 0146 0AFB02BB 		mla	fp, r10, r2, fp
 270              	.LVL50:
 271 014a AE57     		ldrsb	r6, [r5, r6]
 272              	.LVL51:
 273 014c 06FB0211 		mla	r1, r6, r2, r1
 274              	.LVL52:
 275 0150 421D     		adds	r2, r0, #5
 276              	.LVL53:
  58:.\arch_cpu.h  ****         sum0 += sptr[i]*kptr0[i]; sum1 += sptr[i]*kptr1[i]; i++;
 277              		.loc 2 58 0
 278 0152 BE56     		ldrsb	r6, [r7, r2]
 279 0154 14F902A0 		ldrsb	r10, [r4, r2]
 280 0158 0AFB06BB 		mla	fp, r10, r6, fp
 281              	.LVL54:
 282 015c AA56     		ldrsb	r2, [r5, r2]
 283              	.LVL55:
 284 015e 02FB0611 		mla	r1, r2, r6, r1
 285              	.LVL56:
 286 0162 861D     		adds	r6, r0, #6
 287              	.LVL57:
  59:.\arch_cpu.h  ****         sum0 += sptr[i]*kptr0[i]; sum1 += sptr[i]*kptr1[i]; i++;
 288              		.loc 2 59 0
ARM GAS  C:\Users\kuzni\AppData\Local\Temp\ccqUPoDe.s 			page 9


 289 0164 BA57     		ldrsb	r2, [r7, r6]
 290 0166 14F906A0 		ldrsb	r10, [r4, r6]
 291 016a 0AFB02BB 		mla	fp, r10, r2, fp
 292              	.LVL58:
 293 016e AE57     		ldrsb	r6, [r5, r6]
 294              	.LVL59:
 295 0170 06FB0211 		mla	r1, r6, r2, r1
 296              	.LVL60:
  60:.\arch_cpu.h  ****         sum0 += sptr[i]*kptr0[i]; sum1 += sptr[i]*kptr1[i]; i++;
 297              		.loc 2 60 0
 298 0174 FA56     		ldrsb	r2, [r7, r3]
 299 0176 E656     		ldrsb	r6, [r4, r3]
 300 0178 06FB02BA 		mla	r10, r6, r2, fp
 301              	.LVL61:
 302 017c EB56     		ldrsb	r3, [r5, r3]
 303              	.LVL62:
 304 017e 03FB0211 		mla	r1, r3, r2, r1
 305              	.LVL63:
 306 0182 0830     		adds	r0, r0, #8
 307              	.LVL64:
 308              	.L9:
  52:.\arch_cpu.h  ****         sum0 += sptr[i]*kptr0[i]; sum1 += sptr[i]*kptr1[i]; i++;
 309              		.loc 2 52 0
 310 0184 C31D     		adds	r3, r0, #7
 311 0186 089A     		ldr	r2, [sp, #32]
 312 0188 9A42     		cmp	r2, r3
 313 018a B4D8     		bhi	.L10
 314 018c 07E0     		b	.L11
 315              	.L12:
  61:.\arch_cpu.h  ****     }
  62:.\arch_cpu.h  ****     for(; i <size; i++){
  63:.\arch_cpu.h  ****         sum0 += sptr[i]*kptr0[i]; 
 316              		.loc 2 63 0
 317 018e 3B56     		ldrsb	r3, [r7, r0]
 318 0190 2256     		ldrsb	r2, [r4, r0]
 319 0192 02FB03AA 		mla	r10, r2, r3, r10
 320              	.LVL65:
  64:.\arch_cpu.h  ****         sum1 += sptr[i]*kptr1[i]; 
 321              		.loc 2 64 0
 322 0196 2A56     		ldrsb	r2, [r5, r0]
 323 0198 02FB0311 		mla	r1, r2, r3, r1
 324              	.LVL66:
  62:.\arch_cpu.h  ****         sum0 += sptr[i]*kptr0[i]; 
 325              		.loc 2 62 0
 326 019c 0130     		adds	r0, r0, #1
 327              	.LVL67:
 328              	.L11:
 329 019e 059B     		ldr	r3, [sp, #20]
 330 01a0 8342     		cmp	r3, r0
 331 01a2 F4D8     		bhi	.L12
  65:.\arch_cpu.h  ****     }
  66:.\arch_cpu.h  **** 
  67:.\arch_cpu.h  ****     result[0] = sum0;
 332              		.loc 2 67 0
 333 01a4 4EF808A0 		str	r10, [lr, r8]
  68:.\arch_cpu.h  ****     result[1] = sum1;
 334              		.loc 2 68 0
ARM GAS  C:\Users\kuzni\AppData\Local\Temp\ccqUPoDe.s 			page 10


 335 01a8 079B     		ldr	r3, [sp, #28]
 336 01aa 5960     		str	r1, [r3, #4]
 337              	.LBE43:
 338              	.LBE42:
 104:.\tm_layers.c ****                 tm_dot_prod_pack2(sptr, kptr + chi*bat, chi, sums + bat);
 339              		.loc 1 104 0
 340 01ac 0CF1020C 		add	ip, ip, #2
 341              	.LVL68:
 342 01b0 03E0     		b	.L21
 343              	.LVL69:
 344              	.L96:
 345              	.LBE41:
 346 01b2 4FF0000C 		mov	ip, #0
 347 01b6 CDF82480 		str	r8, [sp, #36]
 348              	.LVL70:
 349              	.L21:
 350              	.LBB47:
 104:.\tm_layers.c ****                 tm_dot_prod_pack2(sptr, kptr + chi*bat, chi, sums + bat);
 351              		.loc 1 104 0 is_stmt 0 discriminator 1
 352 01ba BCF1010F 		cmp	ip, #1
 353 01be 84DD     		ble	.L13
 354 01c0 DDF82480 		ldr	r8, [sp, #36]
 106:.\tm_layers.c ****             tm_postprocess_sum(BATCH_SIZE, sums, b + c, act, outp, SUMSCALE, OUTSCALE, out_zp);
 355              		.loc 1 106 0 is_stmt 1
 356 01c4 4FEA8806 		lsl	r6, r8, #2
 357              	.LVL71:
 358              	.LBB44:
 359              	.LBB45:
  69:.\arch_cpu.h  ****     return;
  70:.\arch_cpu.h  **** }
  71:.\arch_cpu.h  **** 
  72:.\arch_cpu.h  **** TM_INLINE void tm_dot_prod_gap_3x3x1(mtype_t* sptr, mtype_t* kptr, uint32_t* k_oft, sumtype_t* resu
  73:.\arch_cpu.h  **** {
  74:.\arch_cpu.h  ****     *result = sptr[k_oft[0]]*kptr[0] + sptr[k_oft[1]]*kptr[1] + sptr[k_oft[2]]*kptr[2] + \
  75:.\arch_cpu.h  ****         sptr[k_oft[3]]*kptr[3] + sptr[k_oft[4]]*kptr[4] + sptr[k_oft[5]]*kptr[5] + \
  76:.\arch_cpu.h  ****         sptr[k_oft[6]]*kptr[6] + sptr[k_oft[7]]*kptr[7] + sptr[k_oft[8]]*kptr[8] ;
  77:.\arch_cpu.h  ****     return;                  
  78:.\arch_cpu.h  **** }
  79:.\arch_cpu.h  **** 
  80:.\arch_cpu.h  **** TM_INLINE void tm_dot_prod_3x3x1(mtype_t* sptr, mtype_t* kptr, sumtype_t* result)
  81:.\arch_cpu.h  **** {
  82:.\arch_cpu.h  ****     *result = sptr[0]*kptr[0] + sptr[1]*kptr[1] + sptr[2]*kptr[2] + \
  83:.\arch_cpu.h  ****         sptr[3]*kptr[3] + sptr[4]*kptr[4] + sptr[5]*kptr[5] + \
  84:.\arch_cpu.h  ****         sptr[6]*kptr[6] + sptr[7]*kptr[7] + sptr[8]*kptr[8] ;
  85:.\arch_cpu.h  ****     return;
  86:.\arch_cpu.h  **** }
  87:.\arch_cpu.h  **** 
  88:.\arch_cpu.h  **** 
  89:.\arch_cpu.h  **** 
  90:.\arch_cpu.h  **** #else
  91:.\arch_cpu.h  **** /*************************** FP8 SIMULATION **********************************/
  92:.\arch_cpu.h  **** #define SUMSCALE 1.0
  93:.\arch_cpu.h  **** 
  94:.\arch_cpu.h  **** TM_INLINE void tm_dot_prod(mtype_t* sptr, mtype_t* kptr,uint32_t size, sumtype_t* result)
  95:.\arch_cpu.h  **** {
  96:.\arch_cpu.h  ****     sumtype_t sum=0;
  97:.\arch_cpu.h  ****     int i;
ARM GAS  C:\Users\kuzni\AppData\Local\Temp\ccqUPoDe.s 			page 11


  98:.\arch_cpu.h  ****     for(i=0; i <size; i++){
  99:.\arch_cpu.h  ****         float _s = tm_fp8to32(sptr[i]);
 100:.\arch_cpu.h  ****         float _k = tm_fp8to32(kptr[i]);
 101:.\arch_cpu.h  ****         sum += _s*_k;
 102:.\arch_cpu.h  ****         //printf("%.3f*%.3f+",_s,_k);
 103:.\arch_cpu.h  ****     }
 104:.\arch_cpu.h  ****     //printf("\r\n");
 105:.\arch_cpu.h  ****     *result = sum;
 106:.\arch_cpu.h  ****     return;
 107:.\arch_cpu.h  **** }
 108:.\arch_cpu.h  **** 
 109:.\arch_cpu.h  **** TM_INLINE void tm_postprocess_sum(sumtype_t sum, btype_t b, int act, mtype_t* outp, \
 110:.\arch_cpu.h  ****     sctype_t scale, sctype_t out_s, zptype_t out_zp)
 111:.\arch_cpu.h  **** {   //printf("sum=%.6f,", sum);
 112:.\arch_cpu.h  ****     sum += tm_fp8to32(b); //printf("%.6f,", sum);
 113:.\arch_cpu.h  ****     switch(act){    //activation func
 114:.\arch_cpu.h  ****     case TM_ACT_RELU:
 115:.\arch_cpu.h  ****         sum = sum>0?sum:0;
 116:.\arch_cpu.h  ****         break;
 117:.\arch_cpu.h  ****     case TM_ACT_RELU6:
 118:.\arch_cpu.h  ****         sum = sum>0?sum:0;
 119:.\arch_cpu.h  ****         sum = sum>6?6:sum;
 120:.\arch_cpu.h  ****         break;
 121:.\arch_cpu.h  ****     default:
 122:.\arch_cpu.h  ****         break;
 123:.\arch_cpu.h  ****     }
 124:.\arch_cpu.h  ****     //printf("%.6f,", sum);
 125:.\arch_cpu.h  ****     *outp = tm_fp32to8(sum);
 126:.\arch_cpu.h  ****     //printf("  %02x,%.6f\r\n", *outp, tm_fp8to32(*outp));
 127:.\arch_cpu.h  ****     return;
 128:.\arch_cpu.h  **** }
 129:.\arch_cpu.h  **** 
 130:.\arch_cpu.h  **** #endif
 131:.\arch_cpu.h  **** 
 132:.\arch_cpu.h  **** #if (TM_MDL_TYPE==TM_MDL_FP32) || (TM_MDL_TYPE==TM_MDL_FP16) 
 133:.\arch_cpu.h  **** 
 134:.\arch_cpu.h  **** TM_INLINE void tm_postprocess_sum(int n, sumtype_t* sums, btype_t* bs, int act, mtype_t* outp, \
 135:.\arch_cpu.h  ****     sctype_t* scales, sctype_t out_s, zptype_t out_zp)
 136:.\arch_cpu.h  **** {
 137:.\arch_cpu.h  ****     int i;
 138:.\arch_cpu.h  ****     for(i = 0; i < n; i++) {
 139:.\arch_cpu.h  ****         sumtype_t sum = sums[i];
 140:.\arch_cpu.h  ****         sum += bs[i];
 141:.\arch_cpu.h  ****         switch(act){    //activation func
 142:.\arch_cpu.h  ****         case TM_ACT_RELU:
 143:.\arch_cpu.h  ****         case TM_ACT_RELU6: //treat relu6 as relu in float mode //speed up
 144:.\arch_cpu.h  ****             sum = sum>0?sum:0;
 145:.\arch_cpu.h  ****             break;
 146:.\arch_cpu.h  ****         //    sum = sum>0?sum:0;
 147:.\arch_cpu.h  ****         //    sum = sum>6?6:sum;
 148:.\arch_cpu.h  ****         //    break;
 149:.\arch_cpu.h  ****         default:
 150:.\arch_cpu.h  ****             break;
 151:.\arch_cpu.h  ****         }
 152:.\arch_cpu.h  ****         outp[i] = (mtype_t)sum;
 153:.\arch_cpu.h  ****     }
 154:.\arch_cpu.h  ****     return;
ARM GAS  C:\Users\kuzni\AppData\Local\Temp\ccqUPoDe.s 			page 12


 155:.\arch_cpu.h  **** }
 156:.\arch_cpu.h  **** 
 157:.\arch_cpu.h  **** #elif (TM_MDL_TYPE==TM_MDL_INT8) || (TM_MDL_TYPE==TM_MDL_INT16) 
 158:.\arch_cpu.h  **** 
 159:.\arch_cpu.h  **** #if !TM_FASTSCALE
 160:.\arch_cpu.h  **** TM_INLINE void tm_postprocess_sum(int n, sumtype_t* sums, btype_t* bs, int act, mtype_t* outp, scty
 161:.\arch_cpu.h  **** #else
 162:.\arch_cpu.h  **** TM_INLINE void tm_postprocess_sum(int n, sumtype_t* sums, btype_t* bs, int act, mtype_t* outp, int3
 163:.\arch_cpu.h  **** #endif
 164:.\arch_cpu.h  **** {
 165:.\arch_cpu.h  ****     int i;
 166:.\arch_cpu.h  ****     for(i = 0; i < n; i++) {
 360              		.loc 2 166 0
 361 01c8 0025     		movs	r5, #0
 362 01ca DDF880A0 		ldr	r10, [sp, #128]
 363 01ce 3BE0     		b	.L14
 364              	.LVL72:
 365              	.L20:
 366              	.LBB46:
 167:.\arch_cpu.h  ****         sumtype_t sum = sums[i];
 367              		.loc 2 167 0
 368 01d0 AB46     		mov	fp, r5
 369 01d2 0DAB     		add	r3, sp, #52
 370              	.LVL73:
 371 01d4 53F82500 		ldr	r0, [r3, r5, lsl #2]
 372              	.LVL74:
 373 01d8 06EB8504 		add	r4, r6, r5, lsl #2
 168:.\arch_cpu.h  ****         sum += bs[i];
 374              		.loc 2 168 0
 375 01dc 039B     		ldr	r3, [sp, #12]
 376              	.LVL75:
 377 01de 1B59     		ldr	r3, [r3, r4]
 378              	.LVL76:
 169:.\arch_cpu.h  ****         #if !TM_FASTSCALE
 170:.\arch_cpu.h  ****             float sumf = sum*scales[i];
 379              		.loc 2 170 0
 380 01e0 1844     		add	r0, r0, r3
 381              	.LVL77:
 382 01e2 FFF7FEFF 		bl	__aeabi_i2f
 383              	.LVL78:
 384 01e6 6B4B     		ldr	r3, .L113
 385 01e8 1C44     		add	r4, r4, r3
 386 01ea D4F80019 		ldr	r1, [r4, #2304]	@ float
 387 01ee FFF7FEFF 		bl	__aeabi_fmul
 388              	.LVL79:
 389 01f2 0446     		mov	r4, r0
 390              	.LVL80:
 171:.\arch_cpu.h  ****         #else 
 172:.\arch_cpu.h  ****             sumtype_t sumf = (sum<<TM_FASTSCALE_SHIFT)/scales[i];
 173:.\arch_cpu.h  ****         #endif
 174:.\arch_cpu.h  ****         switch(act){    //activation func
 391              		.loc 2 174 0
 392 01f4 BAF1010F 		cmp	r10, #1
 393 01f8 03D0     		beq	.L16
 394 01fa BAF1030F 		cmp	r10, #3
 395 01fe 06D0     		beq	.L17
 396 0200 10E0     		b	.L15
ARM GAS  C:\Users\kuzni\AppData\Local\Temp\ccqUPoDe.s 			page 13


 397              	.L16:
 175:.\arch_cpu.h  ****         case TM_ACT_RELU:
 176:.\arch_cpu.h  ****             sumf = sumf>0?sumf:0;
 398              		.loc 2 176 0
 399 0202 0021     		movs	r1, #0
 400 0204 FFF7FEFF 		bl	__aeabi_fcmpgt
 401              	.LVL81:
 402 0208 60B9     		cbnz	r0, .L15
 403 020a 0024     		movs	r4, #0
 404              	.LVL82:
 405 020c 0AE0     		b	.L15
 406              	.LVL83:
 407              	.L17:
 177:.\arch_cpu.h  ****             break;
 178:.\arch_cpu.h  ****         case TM_ACT_RELU6:
 179:.\arch_cpu.h  ****             sumf = sumf>0?sumf:0;
 408              		.loc 2 179 0
 409 020e 0021     		movs	r1, #0
 410 0210 FFF7FEFF 		bl	__aeabi_fcmpgt
 411              	.LVL84:
 412 0214 00B9     		cbnz	r0, .L18
 413 0216 0024     		movs	r4, #0
 414              	.LVL85:
 415              	.L18:
 180:.\arch_cpu.h  ****         #if (!TM_FASTSCALE)
 181:.\arch_cpu.h  ****             sumf = sumf>6?6:sumf;
 416              		.loc 2 181 0
 417 0218 2046     		mov	r0, r4
 418 021a 5F49     		ldr	r1, .L113+4
 419 021c FFF7FEFF 		bl	__aeabi_fcmpgt
 420              	.LVL86:
 421 0220 00B1     		cbz	r0, .L15
 422 0222 5D4C     		ldr	r4, .L113+4
 423              	.LVL87:
 424              	.L15:
 182:.\arch_cpu.h  ****         #else
 183:.\arch_cpu.h  ****             sumf = sumf>(6<<TM_FASTSCALE_SHIFT)?(6<<TM_FASTSCALE_SHIFT):sumf;
 184:.\arch_cpu.h  ****         #endif
 185:.\arch_cpu.h  ****             break;
 186:.\arch_cpu.h  ****         default:
 187:.\arch_cpu.h  ****             break;
 188:.\arch_cpu.h  ****         }
 189:.\arch_cpu.h  ****         #if !TM_FASTSCALE
 190:.\arch_cpu.h  ****             outp[i] = (mtype_t)(sumf*out_s_inv + out_zp);  //(mtype_t)((int)(sumf/out_s) + out_zp) 
 425              		.loc 2 190 0
 426 0224 0698     		ldr	r0, [sp, #24]	@ float
 427 0226 2146     		mov	r1, r4
 428 0228 FFF7FEFF 		bl	__aeabi_fmul
 429              	.LVL88:
 430 022c 0446     		mov	r4, r0
 431              	.LVL89:
 432 022e 2A98     		ldr	r0, [sp, #168]
 433 0230 FFF7FEFF 		bl	__aeabi_i2f
 434              	.LVL90:
 435 0234 0146     		mov	r1, r0
 436 0236 2046     		mov	r0, r4
 437 0238 FFF7FEFF 		bl	__aeabi_fadd
ARM GAS  C:\Users\kuzni\AppData\Local\Temp\ccqUPoDe.s 			page 14


 438              	.LVL91:
 439 023c FFF7FEFF 		bl	__aeabi_f2iz
 440              	.LVL92:
 441 0240 049B     		ldr	r3, [sp, #16]
 442 0242 03F80B00 		strb	r0, [r3, fp]
 443              	.LBE46:
 166:.\arch_cpu.h  ****         sumtype_t sum = sums[i];
 444              		.loc 2 166 0
 445 0246 0135     		adds	r5, r5, #1
 446              	.LVL93:
 447              	.L14:
 448 0248 012D     		cmp	r5, #1
 449 024a C1DD     		ble	.L20
 450              	.LBE45:
 451              	.LBE44:
 107:.\tm_layers.c ****             c += BATCH_SIZE;
 452              		.loc 1 107 0
 453 024c 08F10208 		add	r8, r8, #2
 454              	.LVL94:
 108:.\tm_layers.c ****             outp += BATCH_SIZE;
 455              		.loc 1 108 0
 456 0250 049B     		ldr	r3, [sp, #16]
 457 0252 0233     		adds	r3, r3, #2
 458 0254 0493     		str	r3, [sp, #16]
 459              	.LVL95:
 109:.\tm_layers.c ****             kptr += chi*BATCH_SIZE;//*2;
 460              		.loc 1 109 0
 461 0256 019B     		ldr	r3, [sp, #4]
 462              	.LVL96:
 463 0258 029A     		ldr	r2, [sp, #8]
 464 025a 03EB4203 		add	r3, r3, r2, lsl #1
 465 025e 0193     		str	r3, [sp, #4]
 466              	.LVL97:
 467              	.L8:
 468              	.LBE47:
 102:.\tm_layers.c ****             int bat;
 469              		.loc 1 102 0
 470 0260 009B     		ldr	r3, [sp]
 471 0262 DB88     		ldrh	r3, [r3, #6]
 472 0264 013B     		subs	r3, r3, #1
 473 0266 4345     		cmp	r3, r8
 474 0268 A3DC     		bgt	.L96
 475 026a C346     		mov	fp, r8
 476 026c B846     		mov	r8, r7
 477              	.LVL98:
 478 026e 019C     		ldr	r4, [sp, #4]
 479 0270 88E0     		b	.L22
 480              	.LVL99:
 481              	.L34:
 110:.\tm_layers.c ****         }
 111:.\tm_layers.c ****         for(; c<out->c; c++){
 112:.\tm_layers.c ****             tm_dot_prod(sptr, kptr, chi, &sum); //size=maxk*chi //pw maxk==1
 482              		.loc 1 112 0 discriminator 2
 483 0272 4E46     		mov	r6, r9
 484              	.LVL100:
 485              	.LBB48:
 486              	.LBB49:
ARM GAS  C:\Users\kuzni\AppData\Local\Temp\ccqUPoDe.s 			page 15


  25:.\arch_cpu.h  ****     for(; i+8-1 <cnt; ){
 487              		.loc 2 25 0 discriminator 2
 488 0274 29F00707 		bic	r7, r9, #7
 489              	.LVL101:
  24:.\arch_cpu.h  ****     uint32_t cnt = (size>>3)<<3;  //8
 490              		.loc 2 24 0 discriminator 2
 491 0278 0020     		movs	r0, #0
  23:.\arch_cpu.h  ****     uint32_t i = 0;
 492              		.loc 2 23 0 discriminator 2
 493 027a 0346     		mov	r3, r0
 494 027c 2EE0     		b	.L23
 495              	.LVL102:
 496              	.L24:
  27:.\arch_cpu.h  ****         sum += sptr[i]*kptr[i];i++;
 497              		.loc 2 27 0
 498 027e 18F90020 		ldrsb	r2, [r8, r0]
 499 0282 2556     		ldrsb	r5, [r4, r0]
 500 0284 05FB0233 		mla	r3, r5, r2, r3
 501              	.LVL103:
 502 0288 451C     		adds	r5, r0, #1
 503              	.LVL104:
  28:.\arch_cpu.h  ****         sum += sptr[i]*kptr[i];i++;
 504              		.loc 2 28 0
 505 028a 18F90520 		ldrsb	r2, [r8, r5]
 506 028e 6557     		ldrsb	r5, [r4, r5]
 507              	.LVL105:
 508 0290 05FB0233 		mla	r3, r5, r2, r3
 509              	.LVL106:
 510 0294 851C     		adds	r5, r0, #2
 511              	.LVL107:
  29:.\arch_cpu.h  ****         sum += sptr[i]*kptr[i];i++;
 512              		.loc 2 29 0
 513 0296 18F90520 		ldrsb	r2, [r8, r5]
 514 029a 6557     		ldrsb	r5, [r4, r5]
 515              	.LVL108:
 516 029c 05FB0233 		mla	r3, r5, r2, r3
 517              	.LVL109:
 518 02a0 C51C     		adds	r5, r0, #3
 519              	.LVL110:
  30:.\arch_cpu.h  ****         sum += sptr[i]*kptr[i];i++;
 520              		.loc 2 30 0
 521 02a2 18F90520 		ldrsb	r2, [r8, r5]
 522 02a6 6557     		ldrsb	r5, [r4, r5]
 523              	.LVL111:
 524 02a8 05FB0233 		mla	r3, r5, r2, r3
 525              	.LVL112:
 526 02ac 051D     		adds	r5, r0, #4
 527              	.LVL113:
  31:.\arch_cpu.h  ****         sum += sptr[i]*kptr[i];i++;
 528              		.loc 2 31 0
 529 02ae 18F90520 		ldrsb	r2, [r8, r5]
 530 02b2 6557     		ldrsb	r5, [r4, r5]
 531              	.LVL114:
 532 02b4 05FB0233 		mla	r3, r5, r2, r3
 533              	.LVL115:
 534 02b8 451D     		adds	r5, r0, #5
 535              	.LVL116:
ARM GAS  C:\Users\kuzni\AppData\Local\Temp\ccqUPoDe.s 			page 16


  32:.\arch_cpu.h  ****         sum += sptr[i]*kptr[i];i++;
 536              		.loc 2 32 0
 537 02ba 18F90520 		ldrsb	r2, [r8, r5]
 538 02be 6557     		ldrsb	r5, [r4, r5]
 539              	.LVL117:
 540 02c0 05FB0233 		mla	r3, r5, r2, r3
 541              	.LVL118:
 542 02c4 851D     		adds	r5, r0, #6
 543              	.LVL119:
  33:.\arch_cpu.h  ****         sum += sptr[i]*kptr[i];i++;
 544              		.loc 2 33 0
 545 02c6 18F90520 		ldrsb	r2, [r8, r5]
 546 02ca 6557     		ldrsb	r5, [r4, r5]
 547              	.LVL120:
 548 02cc 05FB0233 		mla	r3, r5, r2, r3
 549              	.LVL121:
  34:.\arch_cpu.h  ****     }
 550              		.loc 2 34 0
 551 02d0 18F90120 		ldrsb	r2, [r8, r1]
 552 02d4 6156     		ldrsb	r1, [r4, r1]
 553              	.LVL122:
 554 02d6 01FB0233 		mla	r3, r1, r2, r3
 555              	.LVL123:
 556 02da 0830     		adds	r0, r0, #8
 557              	.LVL124:
 558              	.L23:
  26:.\arch_cpu.h  ****         sum += sptr[i]*kptr[i];i++;
 559              		.loc 2 26 0
 560 02dc C11D     		adds	r1, r0, #7
 561 02de 8F42     		cmp	r7, r1
 562 02e0 CDD8     		bhi	.L24
 563 02e2 05E0     		b	.L25
 564              	.L26:
  37:.\arch_cpu.h  ****     }
 565              		.loc 2 37 0
 566 02e4 18F90020 		ldrsb	r2, [r8, r0]
 567 02e8 2156     		ldrsb	r1, [r4, r0]
 568 02ea 01FB0233 		mla	r3, r1, r2, r3
 569              	.LVL125:
  36:.\arch_cpu.h  ****         sum += sptr[i]*kptr[i]; 
 570              		.loc 2 36 0
 571 02ee 0130     		adds	r0, r0, #1
 572              	.LVL126:
 573              	.L25:
 574 02f0 8642     		cmp	r6, r0
 575 02f2 F7D8     		bhi	.L26
  39:.\arch_cpu.h  ****     return;
 576              		.loc 2 39 0
 577 02f4 0F93     		str	r3, [sp, #60]
 578              	.LBE49:
 579              	.LBE48:
 113:.\tm_layers.c ****             tm_postprocess_sum(1, &sum, b + c, act, outp, SUMSCALE, OUTSCALE, out_zp); outp++;
 580              		.loc 1 113 0
 581 02f6 4FEA8B07 		lsl	r7, fp, #2
 582              	.LVL127:
 583              	.LBB50:
 584              	.LBB51:
ARM GAS  C:\Users\kuzni\AppData\Local\Temp\ccqUPoDe.s 			page 17


 166:.\arch_cpu.h  ****         sumtype_t sum = sums[i];
 585              		.loc 2 166 0
 586 02fa 0026     		movs	r6, #0
 587              	.LVL128:
 588 02fc 3AE0     		b	.L27
 589              	.LVL129:
 590              	.L33:
 591              	.LBB52:
 167:.\arch_cpu.h  ****         sum += bs[i];
 592              		.loc 2 167 0
 593 02fe B246     		mov	r10, r6
 594 0300 0FAB     		add	r3, sp, #60
 595              	.LVL130:
 596 0302 53F82600 		ldr	r0, [r3, r6, lsl #2]
 597              	.LVL131:
 598 0306 07EB8605 		add	r5, r7, r6, lsl #2
 168:.\arch_cpu.h  ****         #if !TM_FASTSCALE
 599              		.loc 2 168 0
 600 030a 039B     		ldr	r3, [sp, #12]
 601              	.LVL132:
 602 030c 5B59     		ldr	r3, [r3, r5]
 603              	.LVL133:
 170:.\arch_cpu.h  ****         #else 
 604              		.loc 2 170 0
 605 030e 1844     		add	r0, r0, r3
 606              	.LVL134:
 607 0310 FFF7FEFF 		bl	__aeabi_i2f
 608              	.LVL135:
 609 0314 1F4B     		ldr	r3, .L113
 610 0316 1D44     		add	r5, r5, r3
 611 0318 D5F80019 		ldr	r1, [r5, #2304]	@ float
 612 031c FFF7FEFF 		bl	__aeabi_fmul
 613              	.LVL136:
 614 0320 0546     		mov	r5, r0
 615              	.LVL137:
 174:.\arch_cpu.h  ****         case TM_ACT_RELU:
 616              		.loc 2 174 0
 617 0322 209B     		ldr	r3, [sp, #128]
 618 0324 012B     		cmp	r3, #1
 619 0326 02D0     		beq	.L29
 620 0328 032B     		cmp	r3, #3
 621 032a 06D0     		beq	.L30
 622 032c 10E0     		b	.L28
 623              	.L29:
 176:.\arch_cpu.h  ****             break;
 624              		.loc 2 176 0
 625 032e 0021     		movs	r1, #0
 626 0330 FFF7FEFF 		bl	__aeabi_fcmpgt
 627              	.LVL138:
 628 0334 60B9     		cbnz	r0, .L28
 629 0336 0025     		movs	r5, #0
 630              	.LVL139:
 631 0338 0AE0     		b	.L28
 632              	.LVL140:
 633              	.L30:
 179:.\arch_cpu.h  ****         #if (!TM_FASTSCALE)
 634              		.loc 2 179 0
ARM GAS  C:\Users\kuzni\AppData\Local\Temp\ccqUPoDe.s 			page 18


 635 033a 0021     		movs	r1, #0
 636 033c FFF7FEFF 		bl	__aeabi_fcmpgt
 637              	.LVL141:
 638 0340 00B9     		cbnz	r0, .L31
 639 0342 0025     		movs	r5, #0
 640              	.LVL142:
 641              	.L31:
 181:.\arch_cpu.h  ****         #else
 642              		.loc 2 181 0
 643 0344 2846     		mov	r0, r5
 644 0346 1449     		ldr	r1, .L113+4
 645 0348 FFF7FEFF 		bl	__aeabi_fcmpgt
 646              	.LVL143:
 647 034c 00B1     		cbz	r0, .L28
 648 034e 124D     		ldr	r5, .L113+4
 649              	.LVL144:
 650              	.L28:
 651              		.loc 2 190 0
 652 0350 0698     		ldr	r0, [sp, #24]	@ float
 653 0352 2946     		mov	r1, r5
 654 0354 FFF7FEFF 		bl	__aeabi_fmul
 655              	.LVL145:
 656 0358 0546     		mov	r5, r0
 657              	.LVL146:
 658 035a 2A98     		ldr	r0, [sp, #168]
 659 035c FFF7FEFF 		bl	__aeabi_i2f
 660              	.LVL147:
 661 0360 0146     		mov	r1, r0
 662 0362 2846     		mov	r0, r5
 663 0364 FFF7FEFF 		bl	__aeabi_fadd
 664              	.LVL148:
 665 0368 FFF7FEFF 		bl	__aeabi_f2iz
 666              	.LVL149:
 667 036c 049B     		ldr	r3, [sp, #16]
 668 036e 03F80A00 		strb	r0, [r3, r10]
 669              	.LBE52:
 166:.\arch_cpu.h  ****         sumtype_t sum = sums[i];
 670              		.loc 2 166 0
 671 0372 0136     		adds	r6, r6, #1
 672              	.LVL150:
 673              	.L27:
 674 0374 002E     		cmp	r6, #0
 675 0376 C2DD     		ble	.L33
 676              	.LBE51:
 677              	.LBE50:
 678              		.loc 1 113 0 discriminator 2
 679 0378 049B     		ldr	r3, [sp, #16]
 680 037a 0133     		adds	r3, r3, #1
 681 037c 0493     		str	r3, [sp, #16]
 682              	.LVL151:
 114:.\tm_layers.c ****             kptr += chi;
 683              		.loc 1 114 0 discriminator 2
 684 037e 4C44     		add	r4, r4, r9
 685              	.LVL152:
 111:.\tm_layers.c ****             tm_dot_prod(sptr, kptr, chi, &sum); //size=maxk*chi //pw maxk==1
 686              		.loc 1 111 0 discriminator 2
 687 0380 0BF1010B 		add	fp, fp, #1
ARM GAS  C:\Users\kuzni\AppData\Local\Temp\ccqUPoDe.s 			page 19


 688              	.LVL153:
 689              	.L22:
 111:.\tm_layers.c ****             tm_dot_prod(sptr, kptr, chi, &sum); //size=maxk*chi //pw maxk==1
 690              		.loc 1 111 0 is_stmt 0 discriminator 1
 691 0384 009B     		ldr	r3, [sp]
 692 0386 DB88     		ldrh	r3, [r3, #6]
 693 0388 5B45     		cmp	r3, fp
 694 038a 3FF772AF 		bgt	.L34
 115:.\tm_layers.c ****         }
 116:.\tm_layers.c ****         TM_PERF_ADD(t_pwconv);
 117:.\tm_layers.c ****         return TM_OK;
 695              		.loc 1 117 0 is_stmt 1
 696 038e 0020     		movs	r0, #0
 697 0390 45E2     		b	.L3
 698              	.L114:
 699 0392 00BF     		.align	2
 700              	.L113:
 701 0394 00000000 		.word	.LANCHOR0
 702 0398 0000C040 		.word	1086324736
 703              	.LVL154:
 704              	.L35:
 705              	.LBE40:
 118:.\tm_layers.c ****     }
 119:.\tm_layers.c **** 
 120:.\tm_layers.c ****     if(dmul) {TM_PERF_START(t_dwconv);} else {TM_PERF_START(t_conv);};
 121:.\tm_layers.c ****     int oft = 0;
 122:.\tm_layers.c ****     int idx = 0;
 123:.\tm_layers.c ****     int y = 0;
 124:.\tm_layers.c ****     int x = 0;
 125:.\tm_layers.c ****     for(y=0; y<kh; y++){    //gen k_oft table
 126:.\tm_layers.c ****         for(x=0; x<kw; x++){
 127:.\tm_layers.c ****             k_oft[idx] = oft;
 706              		.loc 1 127 0 discriminator 3
 707 039c A34A     		ldr	r2, .L115
 708 039e 02EB8102 		add	r2, r2, r1, lsl #2
 709 03a2 C2F8A837 		str	r3, [r2, #1960]
 128:.\tm_layers.c ****             idx += 1;
 710              		.loc 1 128 0 discriminator 3
 711 03a6 0131     		adds	r1, r1, #1
 712              	.LVL155:
 129:.\tm_layers.c ****             oft += chi;
 713              		.loc 1 129 0 discriminator 3
 714 03a8 2B44     		add	r3, r3, r5
 715              	.LVL156:
 126:.\tm_layers.c ****             k_oft[idx] = oft;
 716              		.loc 1 126 0 discriminator 3
 717 03aa 0130     		adds	r0, r0, #1
 718              	.LVL157:
 719 03ac 00E0     		b	.L36
 720              	.LVL158:
 721              	.L97:
 722 03ae 0020     		movs	r0, #0
 723              	.L36:
 724              	.LVL159:
 126:.\tm_layers.c ****             k_oft[idx] = oft;
 725              		.loc 1 126 0 is_stmt 0 discriminator 1
 726 03b0 B842     		cmp	r0, r7
ARM GAS  C:\Users\kuzni\AppData\Local\Temp\ccqUPoDe.s 			page 20


 727 03b2 F3DB     		blt	.L35
 130:.\tm_layers.c ****         }
 131:.\tm_layers.c ****         oft += (in->w - kw)*chi;
 728              		.loc 1 131 0 is_stmt 1 discriminator 2
 729 03b4 059A     		ldr	r2, [sp, #20]
 730 03b6 9288     		ldrh	r2, [r2, #4]
 731 03b8 D21B     		subs	r2, r2, r7
 732 03ba 05FB0233 		mla	r3, r5, r2, r3
 733              	.LVL160:
 125:.\tm_layers.c ****         for(x=0; x<kw; x++){
 734              		.loc 1 125 0 discriminator 2
 735 03be 0134     		adds	r4, r4, #1
 736              	.LVL161:
 737 03c0 03E0     		b	.L7
 738              	.LVL162:
 739              	.L95:
 740 03c2 0024     		movs	r4, #0
 741              	.LVL163:
 742 03c4 2146     		mov	r1, r4
 743 03c6 2346     		mov	r3, r4
 744 03c8 029D     		ldr	r5, [sp, #8]
 745              	.L7:
 746              	.LVL164:
 125:.\tm_layers.c ****         for(x=0; x<kw; x++){
 747              		.loc 1 125 0 is_stmt 0 discriminator 1
 748 03ca 1B9A     		ldr	r2, [sp, #108]
 749 03cc 9442     		cmp	r4, r2
 750 03ce EEDB     		blt	.L97
 132:.\tm_layers.c ****     }
 133:.\tm_layers.c ****     chi  = dmul ? 1 : in->c; // dmul>=1 indicate depthwise; dummy chi for dwconv compatible
 751              		.loc 1 133 0 is_stmt 1
 752 03d0 259B     		ldr	r3, [sp, #148]
 753              	.LVL165:
 754 03d2 1BB9     		cbnz	r3, .L98
 755              		.loc 1 133 0 is_stmt 0 discriminator 1
 756 03d4 059B     		ldr	r3, [sp, #20]
 757 03d6 DB88     		ldrh	r3, [r3, #6]
 758 03d8 0293     		str	r3, [sp, #8]
 759 03da 01E0     		b	.L37
 760              	.L98:
 761              		.loc 1 133 0
 762 03dc 0123     		movs	r3, #1
 763 03de 0293     		str	r3, [sp, #8]
 764              	.L37:
 765              	.LVL166:
 134:.\tm_layers.c ****     int slow_flag = 0; //same pad part is slow
 135:.\tm_layers.c ****     for (y = 0; y < out->h; y++) {
 766              		.loc 1 135 0 is_stmt 1 discriminator 4
 767 03e0 0023     		movs	r3, #0
 768 03e2 0A93     		str	r3, [sp, #40]
 769 03e4 D946     		mov	r9, fp
 770 03e6 07E2     		b	.L38
 771              	.LVL167:
 772              	.L84:
 773              	.LBB53:
 136:.\tm_layers.c ****         int src_y0 = sy*y - pad_top;
 774              		.loc 1 136 0
ARM GAS  C:\Users\kuzni\AppData\Local\Temp\ccqUPoDe.s 			page 21


 775 03e8 0A9B     		ldr	r3, [sp, #40]
 776 03ea 1D9A     		ldr	r2, [sp, #116]
 777              	.LVL168:
 778 03ec 03FB02F3 		mul	r3, r3, r2
 779 03f0 219A     		ldr	r2, [sp, #132]
 780 03f2 9B1A     		subs	r3, r3, r2
 781 03f4 0993     		str	r3, [sp, #36]
 782              	.LVL169:
 137:.\tm_layers.c ****         for (x = 0; x < out->w; x++) {
 783              		.loc 1 137 0
 784 03f6 0023     		movs	r3, #0
 785              	.LVL170:
 786 03f8 0B93     		str	r3, [sp, #44]
 787 03fa F4E1     		b	.L39
 788              	.LVL171:
 789              	.L83:
 790              	.LBB54:
 138:.\tm_layers.c ****             int src_x0 = sx*x - pad_left;
 791              		.loc 1 138 0
 792 03fc 0B9B     		ldr	r3, [sp, #44]
 793 03fe 1C9A     		ldr	r2, [sp, #112]
 794              	.LVL172:
 795 0400 03FB02F3 		mul	r3, r3, r2
 796 0404 239A     		ldr	r2, [sp, #140]
 797 0406 9B1A     		subs	r3, r3, r2
 798              	.LVL173:
 139:.\tm_layers.c ****             sumtype_t sum;
 140:.\tm_layers.c ****             slow_flag = ((src_y0<0)+(src_x0<0)+(src_y0+kh>in->h)+(src_x0+kw>in->w));
 799              		.loc 1 140 0
 800 0408 DA0F     		lsrs	r2, r3, #31
 801 040a 0998     		ldr	r0, [sp, #36]
 802 040c 0146     		mov	r1, r0
 803 040e 02EBD072 		add	r2, r2, r0, lsr #31
 804 0412 1B98     		ldr	r0, [sp, #108]
 805 0414 0144     		add	r1, r1, r0
 806 0416 059D     		ldr	r5, [sp, #20]
 807 0418 6888     		ldrh	r0, [r5, #2]
 808 041a 8142     		cmp	r1, r0
 809 041c D4BF     		ite	le
 810 041e 1146     		movle	r1, r2
 811 0420 511C     		addgt	r1, r2, #1
 812 0422 DC19     		adds	r4, r3, r7
 813 0424 AA88     		ldrh	r2, [r5, #4]
 814 0426 9442     		cmp	r4, r2
 815 0428 C8BF     		it	gt
 816 042a 0131     		addgt	r1, r1, #1
 817              	.LVL174:
 141:.\tm_layers.c ****             //TM_PERF_START(t_sbuf);
 142:.\tm_layers.c ****             if(!slow_flag) {TM_PERF_START(t_valid); //valid or same valid part
 818              		.loc 1 142 0
 819 042c 61BB     		cbnz	r1, .L40
 820              	.LBB55:
 143:.\tm_layers.c ****                 mtype_t* sptr_base = (mtype_t*)TM_MATP(in, src_y0, src_x0, 0); //?c/dmul:0
 821              		.loc 1 143 0
 822 042e A968     		ldr	r1, [r5, #8]
 823              	.LVL175:
 824 0430 099C     		ldr	r4, [sp, #36]
ARM GAS  C:\Users\kuzni\AppData\Local\Temp\ccqUPoDe.s 			page 22


 825              	.LVL176:
 826 0432 02FB0433 		mla	r3, r2, r4, r3
 827              	.LVL177:
 828 0436 B5F806E0 		ldrh	lr, [r5, #6]
 829 043a 0EFB031E 		mla	lr, lr, r3, r1
 830              	.LVL178:
 144:.\tm_layers.c ****                 mtype_t* sptr = sptr_base; //= (mtype_t*)TM_MATP(in, src_y0, src_x0, 0); //sbuf 
 831              		.loc 1 144 0
 832 043e 7446     		mov	r4, lr
 145:.\tm_layers.c ****                 uint32_t sidx=0;    //sbuf:cho,chi,maxk //dw:chi==1;
 146:.\tm_layers.c ****                 int cc = 0;
 147:.\tm_layers.c ****                 for (cc = 0; cc < (dmul?cho:chi); cc++) {
 833              		.loc 1 147 0
 834 0440 0026     		movs	r6, #0
 145:.\tm_layers.c ****                 uint32_t sidx=0;    //sbuf:cho,chi,maxk //dw:chi==1;
 835              		.loc 1 145 0
 836 0442 3546     		mov	r5, r6
 837 0444 BC46     		mov	ip, r7
 838 0446 259F     		ldr	r7, [sp, #148]
 839              	.LVL179:
 840              		.loc 1 147 0
 841 0448 16E0     		b	.L41
 842              	.LVL180:
 843              	.L42:
 844              	.LBB56:
 148:.\tm_layers.c ****                     int k = 0;
 149:.\tm_layers.c ****                     for (k = 0; k < maxk; k++) {
 150:.\tm_layers.c ****                         sbuf[sidx+k] = sptr[k_oft[k]];
 845              		.loc 1 150 0 discriminator 3
 846 044a E918     		adds	r1, r5, r3
 847 044c 774A     		ldr	r2, .L115
 848 044e 02EB8302 		add	r2, r2, r3, lsl #2
 849 0452 D2F8A827 		ldr	r2, [r2, #1960]
 850 0456 A05C     		ldrb	r0, [r4, r2]	@ zero_extendqisi2
 851 0458 754A     		ldr	r2, .L115+4
 852 045a 5054     		strb	r0, [r2, r1]
 149:.\tm_layers.c ****                         sbuf[sidx+k] = sptr[k_oft[k]];
 853              		.loc 1 149 0 discriminator 3
 854 045c 0133     		adds	r3, r3, #1
 855              	.LVL181:
 856 045e 00E0     		b	.L46
 857              	.LVL182:
 858              	.L100:
 859              	.LBE56:
 860 0460 0023     		movs	r3, #0
 861              	.L46:
 862              	.LVL183:
 863              	.LBB57:
 149:.\tm_layers.c ****                         sbuf[sidx+k] = sptr[k_oft[k]];
 864              		.loc 1 149 0 is_stmt 0 discriminator 1
 865 0462 4B45     		cmp	r3, r9
 866 0464 F1DB     		blt	.L42
 151:.\tm_layers.c ****                     }
 152:.\tm_layers.c ****                     sidx += maxk;
 867              		.loc 1 152 0 is_stmt 1
 868 0466 4D44     		add	r5, r5, r9
 869              	.LVL184:
ARM GAS  C:\Users\kuzni\AppData\Local\Temp\ccqUPoDe.s 			page 23


 153:.\tm_layers.c ****                     sptr = sptr_base + (dmul?(cc+1)/dmul:(cc+1));
 870              		.loc 1 153 0
 871 0468 1FB1     		cbz	r7, .L43
 872              		.loc 1 153 0 is_stmt 0 discriminator 1
 873 046a 741C     		adds	r4, r6, #1
 874              	.LVL185:
 875 046c 94FBF7F4 		sdiv	r4, r4, r7
 876 0470 00E0     		b	.L44
 877              	.LVL186:
 878              	.L43:
 879              		.loc 1 153 0 discriminator 2
 880 0472 741C     		adds	r4, r6, #1
 881              	.LVL187:
 882              	.L44:
 883              		.loc 1 153 0 discriminator 4
 884 0474 7444     		add	r4, r4, lr
 885              	.LVL188:
 886              	.LBE57:
 147:.\tm_layers.c ****                     int k = 0;
 887              		.loc 1 147 0 is_stmt 1 discriminator 4
 888 0476 0136     		adds	r6, r6, #1
 889              	.LVL189:
 890              	.L41:
 147:.\tm_layers.c ****                     int k = 0;
 891              		.loc 1 147 0 is_stmt 0 discriminator 2
 892 0478 0FB1     		cbz	r7, .L99
 147:.\tm_layers.c ****                     int k = 0;
 893              		.loc 1 147 0
 894 047a 089B     		ldr	r3, [sp, #32]
 895 047c 00E0     		b	.L45
 896              	.L99:
 897 047e 029B     		ldr	r3, [sp, #8]
 898              	.L45:
 147:.\tm_layers.c ****                     int k = 0;
 899              		.loc 1 147 0 discriminator 6
 900 0480 B342     		cmp	r3, r6
 901 0482 EDDC     		bgt	.L100
 902 0484 6746     		mov	r7, ip
 903 0486 5FE0     		b	.L47
 904              	.LVL190:
 905              	.L40:
 906              	.LBE55:
 907              	.LBB58:
 154:.\tm_layers.c ****                 }
 155:.\tm_layers.c ****             } else {  TM_PERF_START(t_pad);       //same pad part
 156:.\tm_layers.c ****                 int _ky0 = src_y0<0 ? -src_y0 : 0;
 908              		.loc 1 156 0 is_stmt 1
 909 0488 0999     		ldr	r1, [sp, #36]
 910              	.LVL191:
 911 048a 0029     		cmp	r1, #0
 912 048c 02DA     		bge	.L101
 913              		.loc 1 156 0 is_stmt 0 discriminator 1
 914 048e 4942     		negs	r1, r1
 915 0490 0791     		str	r1, [sp, #28]
 916 0492 01E0     		b	.L48
 917              	.L101:
 918              		.loc 1 156 0
ARM GAS  C:\Users\kuzni\AppData\Local\Temp\ccqUPoDe.s 			page 24


 919 0494 0021     		movs	r1, #0
 920 0496 0791     		str	r1, [sp, #28]
 921              	.L48:
 922              	.LVL192:
 157:.\tm_layers.c ****                 int _kx0 = src_x0<0 ? -src_x0 : 0;
 923              		.loc 1 157 0 is_stmt 1 discriminator 4
 924 0498 002B     		cmp	r3, #0
 925 049a 02DA     		bge	.L102
 926              		.loc 1 157 0 is_stmt 0 discriminator 1
 927 049c C3F1000A 		rsb	r10, r3, #0
 928 04a0 01E0     		b	.L49
 929              	.L102:
 930              		.loc 1 157 0
 931 04a2 4FF0000A 		mov	r10, #0
 932              	.L49:
 933              	.LVL193:
 158:.\tm_layers.c ****                 int _ky1 = in->h-src_y0>kh ? kh : in->h-src_y0;
 934              		.loc 1 158 0 is_stmt 1 discriminator 4
 935 04a6 099E     		ldr	r6, [sp, #36]
 936 04a8 801B     		subs	r0, r0, r6
 937              	.LVL194:
 938 04aa 1B99     		ldr	r1, [sp, #108]
 939 04ac 8142     		cmp	r1, r0
 940 04ae A8BF     		it	ge
 941 04b0 0146     		movge	r1, r0
 942 04b2 0D46     		mov	r5, r1
 943              	.LVL195:
 159:.\tm_layers.c ****                 int _kx1 = in->w-src_x0>kw ? kw : in->w-src_x0;
 944              		.loc 1 159 0 discriminator 4
 945 04b4 D41A     		subs	r4, r2, r3
 946              	.LVL196:
 947 04b6 BC42     		cmp	r4, r7
 948 04b8 A8BF     		it	ge
 949 04ba 3C46     		movge	r4, r7
 950              	.LVL197:
 160:.\tm_layers.c ****                 uint32_t sidx=0;    //sbuf:cho,chi,maxk //dw:chi==1;
 161:.\tm_layers.c ****                 uint32_t s_step = (_ky1-_ky0)*(_kx1-_kx0);
 162:.\tm_layers.c ****                 mtype_t* sptr_base = (mtype_t*)TM_MATP(in, src_y0, src_x0, 0);
 951              		.loc 1 162 0 discriminator 4
 952 04bc 0599     		ldr	r1, [sp, #20]
 953              	.LVL198:
 954 04be 8968     		ldr	r1, [r1, #8]
 955 04c0 02FB0633 		mla	r3, r2, r6, r3
 956              	.LVL199:
 957 04c4 059A     		ldr	r2, [sp, #20]
 958              	.LVL200:
 959 04c6 B2F806B0 		ldrh	fp, [r2, #6]
 960 04ca 0BFB031B 		mla	fp, fp, r3, r1
 961              	.LVL201:
 163:.\tm_layers.c ****                 mtype_t* sptr = sptr_base;
 164:.\tm_layers.c ****             #if TM_MDL_TYPE == TM_MDL_INT8
 165:.\tm_layers.c ****                 memset(sbuf, in_zp, dmul?cho*maxk:chi*maxk);    //do padding
 962              		.loc 1 165 0 discriminator 4
 963 04ce 259B     		ldr	r3, [sp, #148]
 964 04d0 1BB1     		cbz	r3, .L50
 965              		.loc 1 165 0 is_stmt 0 discriminator 1
 966 04d2 089B     		ldr	r3, [sp, #32]
ARM GAS  C:\Users\kuzni\AppData\Local\Temp\ccqUPoDe.s 			page 25


 967 04d4 09FB03F2 		mul	r2, r9, r3
 968 04d8 02E0     		b	.L51
 969              	.L50:
 970              		.loc 1 165 0 discriminator 2
 971 04da 029B     		ldr	r3, [sp, #8]
 972 04dc 09FB03F2 		mul	r2, r9, r3
 973              	.L51:
 974              		.loc 1 165 0 discriminator 4
 975 04e0 5348     		ldr	r0, .L115+4
 976 04e2 2899     		ldr	r1, [sp, #160]
 977 04e4 FFF7FEFF 		bl	memset
 978              	.LVL202:
 163:.\tm_layers.c ****                 mtype_t* sptr = sptr_base;
 979              		.loc 1 163 0 is_stmt 1 discriminator 4
 980 04e8 DE46     		mov	lr, fp
 166:.\tm_layers.c ****             #elif (TM_MDL_TYPE == TM_MDL_FP32)||(TM_MDL_TYPE == TM_MDL_FP16)||(TM_MDL_TYPE == TM_MD
 167:.\tm_layers.c ****                 memset(sbuf, 0, (dmul?cho*maxk:chi*maxk)*sizeof(mtype_t));
 168:.\tm_layers.c ****             #else
 169:.\tm_layers.c ****             #error "unsupport mdl type"
 170:.\tm_layers.c ****             #endif
 171:.\tm_layers.c ****                 int cc = 0;
 172:.\tm_layers.c ****                 for (cc = 0; cc < (dmul?cho:chi); cc++) {
 981              		.loc 1 172 0 discriminator 4
 982 04ea 4FF00008 		mov	r8, #0
 160:.\tm_layers.c ****                 uint32_t s_step = (_ky1-_ky0)*(_kx1-_kx0);
 983              		.loc 1 160 0 discriminator 4
 984 04ee C446     		mov	ip, r8
 985              		.loc 1 172 0 discriminator 4
 986 04f0 23E0     		b	.L52
 987              	.LVL203:
 988              	.L53:
 989              	.LBB59:
 990              	.LBB60:
 173:.\tm_layers.c ****                     int _ky = 0;
 174:.\tm_layers.c ****                     int _kx = 0;
 175:.\tm_layers.c ****                     for(_ky=_ky0; _ky<_ky1; _ky++){
 176:.\tm_layers.c ****                         for(_kx=_kx0; _kx<_kx1; _kx++){
 177:.\tm_layers.c ****                             int k = _ky*kw + _kx;
 991              		.loc 1 177 0 discriminator 3
 992 04f2 07FB0620 		mla	r0, r7, r6, r2
 993              	.LVL204:
 178:.\tm_layers.c ****                             sbuf[sidx+k] = sptr[k_oft[k]];
 994              		.loc 1 178 0 discriminator 3
 995 04f6 0CEB0001 		add	r1, ip, r0
 996 04fa 4C4B     		ldr	r3, .L115
 997 04fc 03EB8003 		add	r3, r3, r0, lsl #2
 998 0500 D3F8A837 		ldr	r3, [r3, #1960]
 999 0504 1EF80300 		ldrb	r0, [lr, r3]	@ zero_extendqisi2
 1000              	.LVL205:
 1001 0508 494B     		ldr	r3, .L115+4
 1002 050a 5854     		strb	r0, [r3, r1]
 1003              	.LBE60:
 176:.\tm_layers.c ****                             int k = _ky*kw + _kx;
 1004              		.loc 1 176 0 discriminator 3
 1005 050c 0132     		adds	r2, r2, #1
 1006              	.LVL206:
 1007 050e 00E0     		b	.L54
ARM GAS  C:\Users\kuzni\AppData\Local\Temp\ccqUPoDe.s 			page 26


 1008              	.LVL207:
 1009              	.L103:
 1010 0510 5246     		mov	r2, r10
 1011              	.L54:
 1012              	.LVL208:
 176:.\tm_layers.c ****                             int k = _ky*kw + _kx;
 1013              		.loc 1 176 0 is_stmt 0 discriminator 1
 1014 0512 A242     		cmp	r2, r4
 1015 0514 EDDB     		blt	.L53
 175:.\tm_layers.c ****                         for(_kx=_kx0; _kx<_kx1; _kx++){
 1016              		.loc 1 175 0 is_stmt 1 discriminator 2
 1017 0516 0136     		adds	r6, r6, #1
 1018              	.LVL209:
 1019 0518 00E0     		b	.L58
 1020              	.LVL210:
 1021              	.L105:
 1022              	.LBE59:
 1023 051a 079E     		ldr	r6, [sp, #28]
 1024              	.L58:
 1025              	.LVL211:
 1026              	.LBB61:
 175:.\tm_layers.c ****                         for(_kx=_kx0; _kx<_kx1; _kx++){
 1027              		.loc 1 175 0 is_stmt 0 discriminator 1
 1028 051c AE42     		cmp	r6, r5
 1029 051e F7DB     		blt	.L103
 179:.\tm_layers.c ****                         }
 180:.\tm_layers.c ****                     }
 181:.\tm_layers.c ****                     sidx += maxk;
 1030              		.loc 1 181 0 is_stmt 1
 1031 0520 CC44     		add	ip, ip, r9
 1032              	.LVL212:
 182:.\tm_layers.c ****                     sptr = sptr_base + (dmul?(cc+1)/dmul:(cc+1));
 1033              		.loc 1 182 0
 1034 0522 259B     		ldr	r3, [sp, #148]
 1035 0524 23B1     		cbz	r3, .L55
 1036              		.loc 1 182 0 is_stmt 0 discriminator 1
 1037 0526 08F1010E 		add	lr, r8, #1
 1038              	.LVL213:
 1039 052a 9EFBF3FE 		sdiv	lr, lr, r3
 1040 052e 01E0     		b	.L56
 1041              	.LVL214:
 1042              	.L55:
 1043              		.loc 1 182 0 discriminator 2
 1044 0530 08F1010E 		add	lr, r8, #1
 1045              	.LVL215:
 1046              	.L56:
 1047              		.loc 1 182 0 discriminator 4
 1048 0534 DE44     		add	lr, lr, fp
 1049              	.LVL216:
 1050              	.LBE61:
 172:.\tm_layers.c ****                     int _ky = 0;
 1051              		.loc 1 172 0 is_stmt 1 discriminator 4
 1052 0536 08F10108 		add	r8, r8, #1
 1053              	.LVL217:
 1054              	.L52:
 172:.\tm_layers.c ****                     int _ky = 0;
 1055              		.loc 1 172 0 is_stmt 0 discriminator 2
ARM GAS  C:\Users\kuzni\AppData\Local\Temp\ccqUPoDe.s 			page 27


 1056 053a 259B     		ldr	r3, [sp, #148]
 1057 053c 0BB1     		cbz	r3, .L104
 172:.\tm_layers.c ****                     int _ky = 0;
 1058              		.loc 1 172 0
 1059 053e 089B     		ldr	r3, [sp, #32]
 1060 0540 00E0     		b	.L57
 1061              	.L104:
 1062 0542 029B     		ldr	r3, [sp, #8]
 1063              	.L57:
 172:.\tm_layers.c ****                     int _ky = 0;
 1064              		.loc 1 172 0 discriminator 6
 1065 0544 4345     		cmp	r3, r8
 1066 0546 E8DC     		bgt	.L105
 1067              	.LVL218:
 1068              	.L47:
 1069              	.LBE58:
 183:.\tm_layers.c ****                 }
 184:.\tm_layers.c ****             }
 185:.\tm_layers.c ****             //TM_PERF_ADD(t_sbuf);
 186:.\tm_layers.c ****             mtype_t* sptr = sbuf;    //sbuf prepare ok~
 187:.\tm_layers.c ****             if(maxk*chi==9 && dmul){ //simple opt for 3x3 dwconv
 1070              		.loc 1 187 0 is_stmt 1
 1071 0548 029B     		ldr	r3, [sp, #8]
 1072 054a 09FB03F3 		mul	r3, r9, r3
 1073 054e 0793     		str	r3, [sp, #28]
 1074 0550 092B     		cmp	r3, #9
 1075 0552 40F03981 		bne	.L106
 1076              		.loc 1 187 0 is_stmt 0 discriminator 1
 1077 0556 259B     		ldr	r3, [sp, #148]
 1078 0558 002B     		cmp	r3, #0
 1079 055a 40F09180 		bne	.L107
 1080 055e 4FF00008 		mov	r8, #0
 1081 0562 334C     		ldr	r4, .L115+4
 1082 0564 1A97     		str	r7, [sp, #104]
 1083 0566 049F     		ldr	r7, [sp, #16]
 1084 0568 33E1     		b	.L59
 1085              	.LVL219:
 1086              	.L68:
 1087              	.LBB62:
 1088              	.LBB63:
 188:.\tm_layers.c ****                 int c = 0;
 189:.\tm_layers.c ****                 for(c=0; c<out->c; c++){
 190:.\tm_layers.c ****                     wtype_t* kptr = (wtype_t*)w + c*chi*maxk;//TM_PERF_START(t_dotp);
 1089              		.loc 1 190 0 is_stmt 1 discriminator 3
 1090 056a 029B     		ldr	r3, [sp, #8]
 1091 056c 03FB0BF2 		mul	r2, r3, fp
 1092 0570 09FB02F2 		mul	r2, r9, r2
 1093 0574 0199     		ldr	r1, [sp, #4]
 1094 0576 0B46     		mov	r3, r1
 1095 0578 1344     		add	r3, r3, r2
 1096              	.LVL220:
 1097              	.LBB64:
 1098              	.LBB65:
  82:.\arch_cpu.h  ****         sptr[3]*kptr[3] + sptr[4]*kptr[4] + sptr[5]*kptr[5] + \
 1099              		.loc 2 82 0 discriminator 3
 1100 057a 9AF90000 		ldrsb	r0, [r10]
 1101 057e 8956     		ldrsb	r1, [r1, r2]
ARM GAS  C:\Users\kuzni\AppData\Local\Temp\ccqUPoDe.s 			page 28


 1102 0580 9AF90140 		ldrsb	r4, [r10, #1]
 1103 0584 93F90120 		ldrsb	r2, [r3, #1]
 1104 0588 02FB04F2 		mul	r2, r2, r4
 1105 058c 01FB0021 		mla	r1, r1, r0, r2
 1106 0590 9AF90220 		ldrsb	r2, [r10, #2]
 1107 0594 93F90200 		ldrsb	r0, [r3, #2]
 1108 0598 00FB0211 		mla	r1, r0, r2, r1
  83:.\arch_cpu.h  ****         sptr[6]*kptr[6] + sptr[7]*kptr[7] + sptr[8]*kptr[8] ;
 1109              		.loc 2 83 0 discriminator 3
 1110 059c 9AF90320 		ldrsb	r2, [r10, #3]
 1111 05a0 93F90300 		ldrsb	r0, [r3, #3]
  82:.\arch_cpu.h  ****         sptr[3]*kptr[3] + sptr[4]*kptr[4] + sptr[5]*kptr[5] + \
 1112              		.loc 2 82 0 discriminator 3
 1113 05a4 00FB0211 		mla	r1, r0, r2, r1
  83:.\arch_cpu.h  ****         sptr[6]*kptr[6] + sptr[7]*kptr[7] + sptr[8]*kptr[8] ;
 1114              		.loc 2 83 0 discriminator 3
 1115 05a8 9AF90420 		ldrsb	r2, [r10, #4]
 1116 05ac 93F90400 		ldrsb	r0, [r3, #4]
 1117 05b0 00FB0211 		mla	r1, r0, r2, r1
 1118 05b4 9AF90520 		ldrsb	r2, [r10, #5]
 1119 05b8 93F90500 		ldrsb	r0, [r3, #5]
 1120 05bc 00FB0211 		mla	r1, r0, r2, r1
  84:.\arch_cpu.h  ****     return;
 1121              		.loc 2 84 0 discriminator 3
 1122 05c0 9AF90620 		ldrsb	r2, [r10, #6]
 1123 05c4 93F90600 		ldrsb	r0, [r3, #6]
  83:.\arch_cpu.h  ****         sptr[6]*kptr[6] + sptr[7]*kptr[7] + sptr[8]*kptr[8] ;
 1124              		.loc 2 83 0 discriminator 3
 1125 05c8 00FB0211 		mla	r1, r0, r2, r1
  84:.\arch_cpu.h  ****     return;
 1126              		.loc 2 84 0 discriminator 3
 1127 05cc 9AF90720 		ldrsb	r2, [r10, #7]
 1128 05d0 93F90700 		ldrsb	r0, [r3, #7]
 1129 05d4 00FB0211 		mla	r1, r0, r2, r1
 1130 05d8 9AF90820 		ldrsb	r2, [r10, #8]
 1131 05dc 93F90830 		ldrsb	r3, [r3, #8]
 1132              	.LVL221:
 1133 05e0 03FB0213 		mla	r3, r3, r2, r1
  82:.\arch_cpu.h  ****         sptr[3]*kptr[3] + sptr[4]*kptr[4] + sptr[5]*kptr[5] + \
 1134              		.loc 2 82 0 discriminator 3
 1135 05e4 0D93     		str	r3, [sp, #52]
 1136              	.LBE65:
 1137              	.LBE64:
 191:.\tm_layers.c ****                     tm_dot_prod_3x3x1(sptr, kptr, &sum);//TM_PERF_ADD(t_dotp);TM_PERF_START(t_post)
 192:.\tm_layers.c ****                     tm_postprocess_sum(1, &sum, b + c, act, outp, SUMSCALE, OUTSCALE, out_zp); outp
 1138              		.loc 1 192 0 discriminator 3
 1139 05e6 4FEA8B06 		lsl	r6, fp, #2
 1140              	.LVL222:
 1141              	.LBB66:
 1142              	.LBB67:
 166:.\arch_cpu.h  ****         sumtype_t sum = sums[i];
 1143              		.loc 2 166 0 discriminator 3
 1144 05ea 0025     		movs	r5, #0
 1145 05ec 3FE0     		b	.L61
 1146              	.LVL223:
 1147              	.L67:
 1148              	.LBB68:
ARM GAS  C:\Users\kuzni\AppData\Local\Temp\ccqUPoDe.s 			page 29


 167:.\arch_cpu.h  ****         sum += bs[i];
 1149              		.loc 2 167 0
 1150 05ee A846     		mov	r8, r5
 1151 05f0 0DAB     		add	r3, sp, #52
 1152              	.LVL224:
 1153 05f2 53F82500 		ldr	r0, [r3, r5, lsl #2]
 1154              	.LVL225:
 1155 05f6 06EB8504 		add	r4, r6, r5, lsl #2
 168:.\arch_cpu.h  ****         #if !TM_FASTSCALE
 1156              		.loc 2 168 0
 1157 05fa 039B     		ldr	r3, [sp, #12]
 1158              	.LVL226:
 1159 05fc 1B59     		ldr	r3, [r3, r4]
 1160              	.LVL227:
 170:.\arch_cpu.h  ****         #else 
 1161              		.loc 2 170 0
 1162 05fe 1844     		add	r0, r0, r3
 1163              	.LVL228:
 1164 0600 FFF7FEFF 		bl	__aeabi_i2f
 1165              	.LVL229:
 1166 0604 0A4B     		ldr	r3, .L115+4
 1167 0606 1C44     		add	r4, r4, r3
 1168 0608 D4F80019 		ldr	r1, [r4, #2304]	@ float
 1169 060c FFF7FEFF 		bl	__aeabi_fmul
 1170              	.LVL230:
 1171 0610 0446     		mov	r4, r0
 1172              	.LVL231:
 174:.\arch_cpu.h  ****         case TM_ACT_RELU:
 1173              		.loc 2 174 0
 1174 0612 209B     		ldr	r3, [sp, #128]
 1175 0614 012B     		cmp	r3, #1
 1176 0616 02D0     		beq	.L63
 1177 0618 032B     		cmp	r3, #3
 1178 061a 0BD0     		beq	.L64
 1179 061c 15E0     		b	.L62
 1180              	.L63:
 176:.\arch_cpu.h  ****             break;
 1181              		.loc 2 176 0
 1182 061e 0021     		movs	r1, #0
 1183 0620 FFF7FEFF 		bl	__aeabi_fcmpgt
 1184              	.LVL232:
 1185 0624 88B9     		cbnz	r0, .L62
 1186 0626 0024     		movs	r4, #0
 1187              	.LVL233:
 1188 0628 0FE0     		b	.L62
 1189              	.L116:
 1190 062a 00BF     		.align	2
 1191              	.L115:
 1192 062c F8100000 		.word	.LANCHOR1
 1193 0630 00000000 		.word	.LANCHOR0
 1194              	.LVL234:
 1195              	.L64:
 179:.\arch_cpu.h  ****         #if (!TM_FASTSCALE)
 1196              		.loc 2 179 0
 1197 0634 0021     		movs	r1, #0
 1198 0636 FFF7FEFF 		bl	__aeabi_fcmpgt
 1199              	.LVL235:
ARM GAS  C:\Users\kuzni\AppData\Local\Temp\ccqUPoDe.s 			page 30


 1200 063a 00B9     		cbnz	r0, .L65
 1201 063c 0024     		movs	r4, #0
 1202              	.LVL236:
 1203              	.L65:
 181:.\arch_cpu.h  ****         #else
 1204              		.loc 2 181 0
 1205 063e 2046     		mov	r0, r4
 1206 0640 7849     		ldr	r1, .L117
 1207 0642 FFF7FEFF 		bl	__aeabi_fcmpgt
 1208              	.LVL237:
 1209 0646 00B1     		cbz	r0, .L62
 1210 0648 764C     		ldr	r4, .L117
 1211              	.LVL238:
 1212              	.L62:
 1213              		.loc 2 190 0
 1214 064a 0698     		ldr	r0, [sp, #24]	@ float
 1215 064c 2146     		mov	r1, r4
 1216 064e FFF7FEFF 		bl	__aeabi_fmul
 1217              	.LVL239:
 1218 0652 0446     		mov	r4, r0
 1219              	.LVL240:
 1220 0654 2A98     		ldr	r0, [sp, #168]
 1221 0656 FFF7FEFF 		bl	__aeabi_i2f
 1222              	.LVL241:
 1223 065a 0146     		mov	r1, r0
 1224 065c 2046     		mov	r0, r4
 1225 065e FFF7FEFF 		bl	__aeabi_fadd
 1226              	.LVL242:
 1227 0662 FFF7FEFF 		bl	__aeabi_f2iz
 1228              	.LVL243:
 1229 0666 049B     		ldr	r3, [sp, #16]
 1230 0668 03F80800 		strb	r0, [r3, r8]
 1231              	.LBE68:
 166:.\arch_cpu.h  ****         sumtype_t sum = sums[i];
 1232              		.loc 2 166 0
 1233 066c 0135     		adds	r5, r5, #1
 1234              	.LVL244:
 1235              	.L61:
 1236 066e 002D     		cmp	r5, #0
 1237 0670 BDDD     		ble	.L67
 1238              	.LBE67:
 1239              	.LBE66:
 1240              		.loc 1 192 0 discriminator 3
 1241 0672 049B     		ldr	r3, [sp, #16]
 1242 0674 0133     		adds	r3, r3, #1
 1243 0676 0493     		str	r3, [sp, #16]
 1244              	.LVL245:
 193:.\tm_layers.c ****                     sptr += maxk; //dwconv need move step
 1245              		.loc 1 193 0 discriminator 3
 1246 0678 CA44     		add	r10, r10, r9
 1247              	.LVL246:
 1248              	.LBE63:
 189:.\tm_layers.c ****                     wtype_t* kptr = (wtype_t*)w + c*chi*maxk;//TM_PERF_START(t_dotp);
 1249              		.loc 1 189 0 discriminator 3
 1250 067a 0BF1010B 		add	fp, fp, #1
 1251              	.LVL247:
 1252 067e 03E0     		b	.L60
ARM GAS  C:\Users\kuzni\AppData\Local\Temp\ccqUPoDe.s 			page 31


 1253              	.LVL248:
 1254              	.L107:
 1255              	.LBE62:
 1256 0680 4FF0000B 		mov	fp, #0
 1257 0684 DFF8A0A1 		ldr	r10, .L117+4
 1258              	.LVL249:
 1259              	.L60:
 1260              	.LBB69:
 189:.\tm_layers.c ****                     wtype_t* kptr = (wtype_t*)w + c*chi*maxk;//TM_PERF_START(t_dotp);
 1261              		.loc 1 189 0 is_stmt 0 discriminator 1
 1262 0688 009B     		ldr	r3, [sp]
 1263 068a DB88     		ldrh	r3, [r3, #6]
 1264 068c 5B45     		cmp	r3, fp
 1265 068e 3FF76CAF 		bgt	.L68
 1266 0692 A5E0     		b	.L69
 1267              	.LVL250:
 1268              	.L82:
 1269              	.LBE69:
 1270              	.LBB70:
 1271              	.LBB71:
 194:.\tm_layers.c ****                 }
 195:.\tm_layers.c ****             }else {
 196:.\tm_layers.c ****                 int c = 0;
 197:.\tm_layers.c ****                 for(c=0; c<out->c; c++){
 198:.\tm_layers.c ****                     wtype_t* kptr = (wtype_t*)w + c*chi*maxk;//TM_PERF_START(t_dotp);
 1272              		.loc 1 198 0 is_stmt 1
 1273 0694 029B     		ldr	r3, [sp, #8]
 1274 0696 03FB08F0 		mul	r0, r3, r8
 1275 069a 019B     		ldr	r3, [sp, #4]
 1276 069c 09FB0030 		mla	r0, r9, r0, r3
 1277              	.LVL251:
 199:.\tm_layers.c ****                     tm_dot_prod(sptr, kptr, maxk*chi, &sum);//TM_PERF_ADD(t_dotp);TM_PERF_START(t_p
 1278              		.loc 1 199 0
 1279 06a0 079B     		ldr	r3, [sp, #28]
 1280 06a2 1E46     		mov	r6, r3
 1281              	.LVL252:
 1282              	.LBB72:
 1283              	.LBB73:
  25:.\arch_cpu.h  ****     for(; i+8-1 <cnt; ){
 1284              		.loc 2 25 0
 1285 06a4 23F0070E 		bic	lr, r3, #7
 1286              	.LVL253:
  24:.\arch_cpu.h  ****     uint32_t cnt = (size>>3)<<3;  //8
 1287              		.loc 2 24 0
 1288 06a8 0021     		movs	r1, #0
  23:.\arch_cpu.h  ****     uint32_t i = 0;
 1289              		.loc 2 23 0
 1290 06aa 0B46     		mov	r3, r1
 1291              	.LVL254:
 1292 06ac 39E0     		b	.L70
 1293              	.LVL255:
 1294              	.L71:
  27:.\arch_cpu.h  ****         sum += sptr[i]*kptr[i];i++;
 1295              		.loc 2 27 0
 1296 06ae 6556     		ldrsb	r5, [r4, r1]
 1297 06b0 10F901C0 		ldrsb	ip, [r0, r1]
 1298 06b4 0CFB0533 		mla	r3, ip, r5, r3
ARM GAS  C:\Users\kuzni\AppData\Local\Temp\ccqUPoDe.s 			page 32


 1299              	.LVL256:
 1300 06b8 01F1010C 		add	ip, r1, #1
 1301              	.LVL257:
  28:.\arch_cpu.h  ****         sum += sptr[i]*kptr[i];i++;
 1302              		.loc 2 28 0
 1303 06bc 14F90C50 		ldrsb	r5, [r4, ip]
 1304 06c0 10F90CC0 		ldrsb	ip, [r0, ip]
 1305              	.LVL258:
 1306 06c4 0CFB0533 		mla	r3, ip, r5, r3
 1307              	.LVL259:
 1308 06c8 01F1020C 		add	ip, r1, #2
 1309              	.LVL260:
  29:.\arch_cpu.h  ****         sum += sptr[i]*kptr[i];i++;
 1310              		.loc 2 29 0
 1311 06cc 14F90C50 		ldrsb	r5, [r4, ip]
 1312 06d0 10F90CC0 		ldrsb	ip, [r0, ip]
 1313              	.LVL261:
 1314 06d4 0CFB0533 		mla	r3, ip, r5, r3
 1315              	.LVL262:
 1316 06d8 01F1030C 		add	ip, r1, #3
 1317              	.LVL263:
  30:.\arch_cpu.h  ****         sum += sptr[i]*kptr[i];i++;
 1318              		.loc 2 30 0
 1319 06dc 14F90C50 		ldrsb	r5, [r4, ip]
 1320 06e0 10F90CC0 		ldrsb	ip, [r0, ip]
 1321              	.LVL264:
 1322 06e4 0CFB0533 		mla	r3, ip, r5, r3
 1323              	.LVL265:
 1324 06e8 01F1040C 		add	ip, r1, #4
 1325              	.LVL266:
  31:.\arch_cpu.h  ****         sum += sptr[i]*kptr[i];i++;
 1326              		.loc 2 31 0
 1327 06ec 14F90C50 		ldrsb	r5, [r4, ip]
 1328 06f0 10F90CC0 		ldrsb	ip, [r0, ip]
 1329              	.LVL267:
 1330 06f4 0CFB0533 		mla	r3, ip, r5, r3
 1331              	.LVL268:
 1332 06f8 01F1050C 		add	ip, r1, #5
 1333              	.LVL269:
  32:.\arch_cpu.h  ****         sum += sptr[i]*kptr[i];i++;
 1334              		.loc 2 32 0
 1335 06fc 14F90C50 		ldrsb	r5, [r4, ip]
 1336 0700 10F90CC0 		ldrsb	ip, [r0, ip]
 1337              	.LVL270:
 1338 0704 0CFB0533 		mla	r3, ip, r5, r3
 1339              	.LVL271:
 1340 0708 01F1060C 		add	ip, r1, #6
 1341              	.LVL272:
  33:.\arch_cpu.h  ****         sum += sptr[i]*kptr[i];i++;
 1342              		.loc 2 33 0
 1343 070c 14F90C50 		ldrsb	r5, [r4, ip]
 1344 0710 10F90CC0 		ldrsb	ip, [r0, ip]
 1345              	.LVL273:
 1346 0714 0CFB0533 		mla	r3, ip, r5, r3
 1347              	.LVL274:
  34:.\arch_cpu.h  ****     }
 1348              		.loc 2 34 0
ARM GAS  C:\Users\kuzni\AppData\Local\Temp\ccqUPoDe.s 			page 33


 1349 0718 A556     		ldrsb	r5, [r4, r2]
 1350 071a 8256     		ldrsb	r2, [r0, r2]
 1351              	.LVL275:
 1352 071c 02FB0533 		mla	r3, r2, r5, r3
 1353              	.LVL276:
 1354 0720 0831     		adds	r1, r1, #8
 1355              	.LVL277:
 1356              	.L70:
  26:.\arch_cpu.h  ****         sum += sptr[i]*kptr[i];i++;
 1357              		.loc 2 26 0
 1358 0722 CA1D     		adds	r2, r1, #7
 1359 0724 9645     		cmp	lr, r2
 1360 0726 C2D8     		bhi	.L71
 1361 0728 04E0     		b	.L72
 1362              	.L73:
  37:.\arch_cpu.h  ****     }
 1363              		.loc 2 37 0
 1364 072a 6256     		ldrsb	r2, [r4, r1]
 1365 072c 4556     		ldrsb	r5, [r0, r1]
 1366 072e 05FB0233 		mla	r3, r5, r2, r3
 1367              	.LVL278:
  36:.\arch_cpu.h  ****         sum += sptr[i]*kptr[i]; 
 1368              		.loc 2 36 0
 1369 0732 0131     		adds	r1, r1, #1
 1370              	.LVL279:
 1371              	.L72:
 1372 0734 8E42     		cmp	r6, r1
 1373 0736 F8D8     		bhi	.L73
  39:.\arch_cpu.h  ****     return;
 1374              		.loc 2 39 0
 1375 0738 0D93     		str	r3, [sp, #52]
 1376              	.LBE73:
 1377              	.LBE72:
 200:.\tm_layers.c ****                     tm_postprocess_sum(1, &sum, b + c, act, outp, SUMSCALE, OUTSCALE, out_zp); outp
 1378              		.loc 1 200 0
 1379 073a 4FEA880A 		lsl	r10, r8, #2
 1380              	.LVL280:
 1381              	.LBB74:
 1382              	.LBB75:
 166:.\arch_cpu.h  ****         sumtype_t sum = sums[i];
 1383              		.loc 2 166 0
 1384 073e 0025     		movs	r5, #0
 1385 0740 39E0     		b	.L74
 1386              	.LVL281:
 1387              	.L80:
 1388              	.LBB76:
 167:.\arch_cpu.h  ****         sum += bs[i];
 1389              		.loc 2 167 0
 1390 0742 AB46     		mov	fp, r5
 1391 0744 0DAB     		add	r3, sp, #52
 1392              	.LVL282:
 1393 0746 53F82500 		ldr	r0, [r3, r5, lsl #2]
 1394              	.LVL283:
 1395 074a 0AEB8506 		add	r6, r10, r5, lsl #2
 168:.\arch_cpu.h  ****         #if !TM_FASTSCALE
 1396              		.loc 2 168 0
 1397 074e 039B     		ldr	r3, [sp, #12]
ARM GAS  C:\Users\kuzni\AppData\Local\Temp\ccqUPoDe.s 			page 34


 1398              	.LVL284:
 1399 0750 9B59     		ldr	r3, [r3, r6]
 1400              	.LVL285:
 170:.\arch_cpu.h  ****         #else 
 1401              		.loc 2 170 0
 1402 0752 1844     		add	r0, r0, r3
 1403              	.LVL286:
 1404 0754 FFF7FEFF 		bl	__aeabi_i2f
 1405              	.LVL287:
 1406 0758 334B     		ldr	r3, .L117+4
 1407 075a 1E44     		add	r6, r6, r3
 1408 075c D6F80019 		ldr	r1, [r6, #2304]	@ float
 1409 0760 FFF7FEFF 		bl	__aeabi_fmul
 1410              	.LVL288:
 1411 0764 0646     		mov	r6, r0
 1412              	.LVL289:
 174:.\arch_cpu.h  ****         case TM_ACT_RELU:
 1413              		.loc 2 174 0
 1414 0766 209B     		ldr	r3, [sp, #128]
 1415 0768 012B     		cmp	r3, #1
 1416 076a 02D0     		beq	.L76
 1417 076c 032B     		cmp	r3, #3
 1418 076e 06D0     		beq	.L77
 1419 0770 10E0     		b	.L75
 1420              	.L76:
 176:.\arch_cpu.h  ****             break;
 1421              		.loc 2 176 0
 1422 0772 0021     		movs	r1, #0
 1423 0774 FFF7FEFF 		bl	__aeabi_fcmpgt
 1424              	.LVL290:
 1425 0778 60B9     		cbnz	r0, .L75
 1426 077a 0026     		movs	r6, #0
 1427              	.LVL291:
 1428 077c 0AE0     		b	.L75
 1429              	.LVL292:
 1430              	.L77:
 179:.\arch_cpu.h  ****         #if (!TM_FASTSCALE)
 1431              		.loc 2 179 0
 1432 077e 0021     		movs	r1, #0
 1433 0780 FFF7FEFF 		bl	__aeabi_fcmpgt
 1434              	.LVL293:
 1435 0784 00B9     		cbnz	r0, .L78
 1436 0786 0026     		movs	r6, #0
 1437              	.LVL294:
 1438              	.L78:
 181:.\arch_cpu.h  ****         #else
 1439              		.loc 2 181 0
 1440 0788 3046     		mov	r0, r6
 1441 078a 2649     		ldr	r1, .L117
 1442 078c FFF7FEFF 		bl	__aeabi_fcmpgt
 1443              	.LVL295:
 1444 0790 00B1     		cbz	r0, .L75
 1445 0792 244E     		ldr	r6, .L117
 1446              	.LVL296:
 1447              	.L75:
 1448              		.loc 2 190 0
 1449 0794 0698     		ldr	r0, [sp, #24]	@ float
ARM GAS  C:\Users\kuzni\AppData\Local\Temp\ccqUPoDe.s 			page 35


 1450 0796 3146     		mov	r1, r6
 1451 0798 FFF7FEFF 		bl	__aeabi_fmul
 1452              	.LVL297:
 1453 079c 0646     		mov	r6, r0
 1454              	.LVL298:
 1455 079e 2A98     		ldr	r0, [sp, #168]
 1456 07a0 FFF7FEFF 		bl	__aeabi_i2f
 1457              	.LVL299:
 1458 07a4 0146     		mov	r1, r0
 1459 07a6 3046     		mov	r0, r6
 1460 07a8 FFF7FEFF 		bl	__aeabi_fadd
 1461              	.LVL300:
 1462 07ac FFF7FEFF 		bl	__aeabi_f2iz
 1463              	.LVL301:
 1464 07b0 07F80B00 		strb	r0, [r7, fp]
 1465              	.LBE76:
 166:.\arch_cpu.h  ****         sumtype_t sum = sums[i];
 1466              		.loc 2 166 0
 1467 07b4 0135     		adds	r5, r5, #1
 1468              	.LVL302:
 1469              	.L74:
 1470 07b6 002D     		cmp	r5, #0
 1471 07b8 C3DD     		ble	.L80
 1472              	.LBE75:
 1473              	.LBE74:
 1474              		.loc 1 200 0
 1475 07ba 0137     		adds	r7, r7, #1
 1476              	.LVL303:
 201:.\tm_layers.c ****                     if(dmul) sptr += maxk; //dwconv need move step
 1477              		.loc 1 201 0
 1478 07bc 259B     		ldr	r3, [sp, #148]
 1479 07be 03B1     		cbz	r3, .L81
 1480              		.loc 1 201 0 is_stmt 0 discriminator 1
 1481 07c0 4C44     		add	r4, r4, r9
 1482              	.LVL304:
 1483              	.L81:
 1484              	.LBE71:
 197:.\tm_layers.c ****                     wtype_t* kptr = (wtype_t*)w + c*chi*maxk;//TM_PERF_START(t_dotp);
 1485              		.loc 1 197 0 is_stmt 1 discriminator 2
 1486 07c2 08F10108 		add	r8, r8, #1
 1487              	.LVL305:
 1488 07c6 04E0     		b	.L59
 1489              	.LVL306:
 1490              	.L106:
 1491              	.LBE70:
 1492 07c8 4FF00008 		mov	r8, #0
 1493 07cc 164C     		ldr	r4, .L117+4
 1494 07ce 1A97     		str	r7, [sp, #104]
 1495 07d0 049F     		ldr	r7, [sp, #16]
 1496              	.LVL307:
 1497              	.L59:
 1498              	.LBB77:
 197:.\tm_layers.c ****                     wtype_t* kptr = (wtype_t*)w + c*chi*maxk;//TM_PERF_START(t_dotp);
 1499              		.loc 1 197 0 is_stmt 0 discriminator 1
 1500 07d2 009B     		ldr	r3, [sp]
 1501 07d4 DB88     		ldrh	r3, [r3, #6]
 1502 07d6 4345     		cmp	r3, r8
ARM GAS  C:\Users\kuzni\AppData\Local\Temp\ccqUPoDe.s 			page 36


 1503 07d8 3FF75CAF 		bgt	.L82
 1504 07dc 0497     		str	r7, [sp, #16]
 1505 07de 1A9F     		ldr	r7, [sp, #104]
 1506              	.LVL308:
 1507              	.L69:
 1508              	.LBE77:
 1509              	.LBE54:
 137:.\tm_layers.c ****             int src_x0 = sx*x - pad_left;
 1510              		.loc 1 137 0 is_stmt 1 discriminator 2
 1511 07e0 0B9B     		ldr	r3, [sp, #44]
 1512 07e2 0133     		adds	r3, r3, #1
 1513 07e4 0B93     		str	r3, [sp, #44]
 1514              	.LVL309:
 1515              	.L39:
 1516 07e6 009B     		ldr	r3, [sp]
 1517 07e8 9B88     		ldrh	r3, [r3, #4]
 1518 07ea 0B9A     		ldr	r2, [sp, #44]
 1519 07ec 9342     		cmp	r3, r2
 1520 07ee 3FF705AE 		bgt	.L83
 1521              	.LBE53:
 135:.\tm_layers.c ****         int src_y0 = sy*y - pad_top;
 1522              		.loc 1 135 0 discriminator 2
 1523 07f2 0A9B     		ldr	r3, [sp, #40]
 1524 07f4 0133     		adds	r3, r3, #1
 1525 07f6 0A93     		str	r3, [sp, #40]
 1526              	.LVL310:
 1527              	.L38:
 135:.\tm_layers.c ****         int src_y0 = sy*y - pad_top;
 1528              		.loc 1 135 0 is_stmt 0 discriminator 1
 1529 07f8 009B     		ldr	r3, [sp]
 1530 07fa 5B88     		ldrh	r3, [r3, #2]
 1531 07fc 0A9A     		ldr	r2, [sp, #40]
 1532 07fe 9342     		cmp	r3, r2
 1533 0800 3FF7F2AD 		bgt	.L84
 202:.\tm_layers.c ****                 }
 203:.\tm_layers.c ****             }
 204:.\tm_layers.c ****             if(!slow_flag) {TM_PERF_ADD(t_valid);} else {TM_PERF_ADD(t_pad);}
 205:.\tm_layers.c ****         }
 206:.\tm_layers.c ****     }
 207:.\tm_layers.c ****     if(dmul) {TM_PERF_ADD(t_dwconv);} else {TM_PERF_ADD(t_conv);};
 208:.\tm_layers.c ****     return TM_OK;
 1534              		.loc 1 208 0 is_stmt 1
 1535 0804 0020     		movs	r0, #0
 1536 0806 0AE0     		b	.L3
 1537              	.LVL311:
 1538              	.L89:
  72:.\tm_layers.c ****     if(act >= TM_ACT_MAXCNT) return TM_ERR_UNSUPPORT;
 1539              		.loc 1 72 0
 1540 0808 0720     		movs	r0, #7
 1541              	.LVL312:
 1542 080a 08E0     		b	.L3
 1543              	.LVL313:
 1544              	.L90:
 1545 080c 0720     		movs	r0, #7
 1546              	.LVL314:
 1547 080e 06E0     		b	.L3
 1548              	.LVL315:
ARM GAS  C:\Users\kuzni\AppData\Local\Temp\ccqUPoDe.s 			page 37


 1549              	.L91:
  73:.\tm_layers.c ****     int maxk = kw*kh;
 1550              		.loc 1 73 0
 1551 0810 0320     		movs	r0, #3
 1552              	.LVL316:
 1553 0812 04E0     		b	.L3
 1554              	.LVL317:
 1555              	.L92:
  75:.\tm_layers.c ****     if(maxk==1 && (pad_flag||dmul)) return TM_ERR_UNSUPPORT;   //assume no pad or dwconv when pwcon
 1556              		.loc 1 75 0
 1557 0814 0920     		movs	r0, #9
 1558              	.LVL318:
 1559 0816 02E0     		b	.L3
 1560              	.LVL319:
 1561              	.L93:
  76:.\tm_layers.c ****     int chi  = in->c;
 1562              		.loc 1 76 0
 1563 0818 0320     		movs	r0, #3
 1564              	.LVL320:
 1565 081a 00E0     		b	.L3
 1566              	.LVL321:
 1567              	.L94:
 1568 081c 0320     		movs	r0, #3
 1569              	.LVL322:
 1570              	.L3:
 209:.\tm_layers.c **** }
 1571              		.loc 1 209 0 discriminator 1
 1572 081e 11B0     		add	sp, sp, #68
 1573              		.cfi_def_cfa_offset 36
 1574              	.LVL323:
 1575              		@ sp needed
 1576 0820 BDE8F08F 		pop	{r4, r5, r6, r7, r8, r9, r10, fp, pc}
 1577              	.LVL324:
 1578              	.L118:
 1579              		.align	2
 1580              	.L117:
 1581 0824 0000C040 		.word	1086324736
 1582 0828 00000000 		.word	.LANCHOR0
 1583              		.cfi_endproc
 1584              	.LFE6:
 1585              		.size	tml_conv2d_dwconv2d, .-tml_conv2d_dwconv2d
 1586              		.section	.text.tml_gap,"ax",%progbits
 1587              		.align	2
 1588              		.weak	tml_gap
 1589              		.thumb
 1590              		.thumb_func
 1591              		.type	tml_gap, %function
 1592              	tml_gap:
 1593              	.LFB7:
 210:.\tm_layers.c **** 
 211:.\tm_layers.c **** /*************************** TML_GAP **********************************/
 212:.\tm_layers.c **** tm_err_t TM_WEAK tml_gap(tm_mat_t* in, tm_mat_t* out, sctype_t in_s, zptype_t in_zp, sctype_t out_s
 213:.\tm_layers.c **** {   TM_DBGT_INIT();
 1594              		.loc 1 213 0
 1595              		.cfi_startproc
 1596              		@ args = 8, pretend = 0, frame = 0
 1597              		@ frame_needed = 0, uses_anonymous_args = 0
ARM GAS  C:\Users\kuzni\AppData\Local\Temp\ccqUPoDe.s 			page 38


 1598              	.LVL325:
 1599 0000 2DE9F84F 		push	{r3, r4, r5, r6, r7, r8, r9, r10, fp, lr}
 1600              		.cfi_def_cfa_offset 40
 1601              		.cfi_offset 3, -40
 1602              		.cfi_offset 4, -36
 1603              		.cfi_offset 5, -32
 1604              		.cfi_offset 6, -28
 1605              		.cfi_offset 7, -24
 1606              		.cfi_offset 8, -20
 1607              		.cfi_offset 9, -16
 1608              		.cfi_offset 10, -12
 1609              		.cfi_offset 11, -8
 1610              		.cfi_offset 14, -4
 1611 0004 0446     		mov	r4, r0
 1612 0006 0E46     		mov	r6, r1
 1613 0008 9146     		mov	r9, r2
 1614 000a 9846     		mov	r8, r3
 1615              	.LVL326:
 214:.\tm_layers.c ****     mtype_t* data;
 215:.\tm_layers.c ****     int c = 0;
 216:.\tm_layers.c ****     for(c=0; c <out->c; c++){
 1616              		.loc 1 216 0
 1617 000c 0025     		movs	r5, #0
 1618 000e 33E0     		b	.L120
 1619              	.LVL327:
 1620              	.L124:
 1621              	.LBB78:
 217:.\tm_layers.c ****         sumtype_t sum = 0;
 218:.\tm_layers.c ****         data = in->data + c;
 1622              		.loc 1 218 0
 1623 0010 A268     		ldr	r2, [r4, #8]
 1624 0012 2F46     		mov	r7, r5
 1625 0014 2A44     		add	r2, r2, r5
 1626              	.LVL328:
 219:.\tm_layers.c ****         int y = 0;
 220:.\tm_layers.c ****         int x = 0;
 221:.\tm_layers.c ****         for(y=0; y <in->h; y++){
 1627              		.loc 1 221 0
 1628 0016 4FF0000C 		mov	ip, #0
 217:.\tm_layers.c ****         sumtype_t sum = 0;
 1629              		.loc 1 217 0
 1630 001a 6046     		mov	r0, ip
 1631              		.loc 1 221 0
 1632 001c 0BE0     		b	.L121
 1633              	.LVL329:
 1634              	.L122:
 222:.\tm_layers.c ****             for(x=0; x <in->w; x++){
 223:.\tm_layers.c ****                 sum  += ((sumtype_t)(*data));
 1635              		.loc 1 223 0 discriminator 3
 1636 001e 92F90010 		ldrsb	r1, [r2]
 1637 0022 0844     		add	r0, r0, r1
 1638              	.LVL330:
 224:.\tm_layers.c ****                 data += out->c;
 1639              		.loc 1 224 0 discriminator 3
 1640 0024 7244     		add	r2, r2, lr
 1641              	.LVL331:
 222:.\tm_layers.c ****             for(x=0; x <in->w; x++){
ARM GAS  C:\Users\kuzni\AppData\Local\Temp\ccqUPoDe.s 			page 39


 1642              		.loc 1 222 0 discriminator 3
 1643 0026 0133     		adds	r3, r3, #1
 1644              	.LVL332:
 1645 0028 00E0     		b	.L123
 1646              	.LVL333:
 1647              	.L125:
 1648 002a 0023     		movs	r3, #0
 1649              	.L123:
 1650              	.LVL334:
 222:.\tm_layers.c ****             for(x=0; x <in->w; x++){
 1651              		.loc 1 222 0 is_stmt 0 discriminator 1
 1652 002c A188     		ldrh	r1, [r4, #4]
 1653 002e 9942     		cmp	r1, r3
 1654 0030 F5DC     		bgt	.L122
 221:.\tm_layers.c ****             for(x=0; x <in->w; x++){
 1655              		.loc 1 221 0 is_stmt 1 discriminator 2
 1656 0032 0CF1010C 		add	ip, ip, #1
 1657              	.LVL335:
 1658              	.L121:
 221:.\tm_layers.c ****             for(x=0; x <in->w; x++){
 1659              		.loc 1 221 0 is_stmt 0 discriminator 1
 1660 0036 6388     		ldrh	r3, [r4, #2]
 1661 0038 6345     		cmp	r3, ip
 1662 003a F6DC     		bgt	.L125
 225:.\tm_layers.c ****             }
 226:.\tm_layers.c ****         }
 227:.\tm_layers.c ****     #if TM_MDL_TYPE == TM_MDL_INT8 || TM_MDL_TYPE == TM_MDL_INT16
 228:.\tm_layers.c ****         out->data[c] = (mtype_t)((sum/((in->h)*(in->w))-in_zp)*in_s/out_s + out_zp); //requant
 1663              		.loc 1 228 0 is_stmt 1 discriminator 2
 1664 003c D6F808A0 		ldr	r10, [r6, #8]
 1665 0040 A288     		ldrh	r2, [r4, #4]
 1666              	.LVL336:
 1667 0042 02FB03F3 		mul	r3, r2, r3
 1668 0046 90FBF3F0 		sdiv	r0, r0, r3
 1669              	.LVL337:
 1670 004a C8EB0000 		rsb	r0, r8, r0
 1671 004e FFF7FEFF 		bl	__aeabi_i2f
 1672              	.LVL338:
 1673 0052 4946     		mov	r1, r9
 1674 0054 FFF7FEFF 		bl	__aeabi_fmul
 1675              	.LVL339:
 1676 0058 0A99     		ldr	r1, [sp, #40]	@ float
 1677 005a FFF7FEFF 		bl	__aeabi_fdiv
 1678              	.LVL340:
 1679 005e 8346     		mov	fp, r0
 1680 0060 0B98     		ldr	r0, [sp, #44]
 1681 0062 FFF7FEFF 		bl	__aeabi_i2f
 1682              	.LVL341:
 1683 0066 0146     		mov	r1, r0
 1684 0068 5846     		mov	r0, fp
 1685 006a FFF7FEFF 		bl	__aeabi_fadd
 1686              	.LVL342:
 1687 006e FFF7FEFF 		bl	__aeabi_f2iz
 1688              	.LVL343:
 1689 0072 0AF80700 		strb	r0, [r10, r7]
 1690              	.LBE78:
 216:.\tm_layers.c ****         sumtype_t sum = 0;
ARM GAS  C:\Users\kuzni\AppData\Local\Temp\ccqUPoDe.s 			page 40


 1691              		.loc 1 216 0 discriminator 2
 1692 0076 0135     		adds	r5, r5, #1
 1693              	.LVL344:
 1694              	.L120:
 216:.\tm_layers.c ****         sumtype_t sum = 0;
 1695              		.loc 1 216 0 is_stmt 0 discriminator 1
 1696 0078 B6F806E0 		ldrh	lr, [r6, #6]
 1697 007c AE45     		cmp	lr, r5
 1698 007e C7DC     		bgt	.L124
 229:.\tm_layers.c ****     #elif TM_MDL_TYPE == TM_MDL_FP32 || TM_MDL_TYPE == TM_MDL_FP16
 230:.\tm_layers.c ****         out->data[c] = (mtype_t)(sum/((in->h)*(in->w)));
 231:.\tm_layers.c ****     //#else //#elif TM_MDL_TYPE == TM_MDL_FP8_143 || TM_MDL_TYPE == TM_MDL_FP8_152
 232:.\tm_layers.c ****     #endif
 233:.\tm_layers.c ****     }
 234:.\tm_layers.c ****     return TM_OK;
 235:.\tm_layers.c **** }
 1699              		.loc 1 235 0 is_stmt 1
 1700 0080 0020     		movs	r0, #0
 1701 0082 BDE8F88F 		pop	{r3, r4, r5, r6, r7, r8, r9, r10, fp, pc}
 1702              		.cfi_endproc
 1703              	.LFE7:
 1704              		.size	tml_gap, .-tml_gap
 1705 0086 00BF     		.section	.text.tml_fc,"ax",%progbits
 1706              		.align	2
 1707              		.weak	tml_fc
 1708              		.thumb
 1709              		.thumb_func
 1710              		.type	tml_fc, %function
 1711              	tml_fc:
 1712              	.LFB8:
 236:.\tm_layers.c **** 
 237:.\tm_layers.c **** /*************************** TML_FC **********************************/
 238:.\tm_layers.c **** tm_err_t TM_WEAK tml_fc(tm_mat_t* in, tm_mat_t* out,  wtype_t* w, btype_t* b, \
 239:.\tm_layers.c ****     sctype_t* ws, sctype_t in_s, zptype_t in_zp, sctype_t out_s, zptype_t out_zp)
 240:.\tm_layers.c **** {   TM_DBGT_INIT();
 1713              		.loc 1 240 0
 1714              		.cfi_startproc
 1715              		@ args = 20, pretend = 0, frame = 0
 1716              		@ frame_needed = 0, uses_anonymous_args = 0
 1717              	.LVL345:
 1718 0000 2DE9F84F 		push	{r3, r4, r5, r6, r7, r8, r9, r10, fp, lr}
 1719              		.cfi_def_cfa_offset 40
 1720              		.cfi_offset 3, -40
 1721              		.cfi_offset 4, -36
 1722              		.cfi_offset 5, -32
 1723              		.cfi_offset 6, -28
 1724              		.cfi_offset 7, -24
 1725              		.cfi_offset 8, -20
 1726              		.cfi_offset 9, -16
 1727              		.cfi_offset 10, -12
 1728              		.cfi_offset 11, -8
 1729              		.cfi_offset 14, -4
 1730 0004 0746     		mov	r7, r0
 1731 0006 0E46     		mov	r6, r1
 1732 0008 9146     		mov	r9, r2
 1733 000a 9846     		mov	r8, r3
 241:.\tm_layers.c ****     mtype_t* data = in->data;
ARM GAS  C:\Users\kuzni\AppData\Local\Temp\ccqUPoDe.s 			page 41


 1734              		.loc 1 241 0
 1735 000c 8468     		ldr	r4, [r0, #8]
 1736              	.LVL346:
 242:.\tm_layers.c ****     int c = 0;
 243:.\tm_layers.c ****     for(c=0; c <out->c; c++){
 1737              		.loc 1 243 0
 1738 000e 0025     		movs	r5, #0
 1739 0010 6AE0     		b	.L128
 1740              	.LVL347:
 1741              	.L133:
 1742              	.LBB79:
 244:.\tm_layers.c ****         sumtype_t sum = 0;
 245:.\tm_layers.c ****         tm_dot_prod(data, w+c*in->c, in->c, &sum);
 1743              		.loc 1 245 0 discriminator 3
 1744 0012 B7F806A0 		ldrh	r10, [r7, #6]
 1745 0016 05FB0A9E 		mla	lr, r5, r10, r9
 1746 001a D346     		mov	fp, r10
 1747              	.LVL348:
 1748              	.LBB80:
 1749              	.LBB81:
  25:.\arch_cpu.h  ****     for(; i+8-1 <cnt; ){
 1750              		.loc 2 25 0 discriminator 3
 1751 001c 2AF0070A 		bic	r10, r10, #7
 1752              	.LVL349:
  24:.\arch_cpu.h  ****     uint32_t cnt = (size>>3)<<3;  //8
 1753              		.loc 2 24 0 discriminator 3
 1754 0020 0021     		movs	r1, #0
  23:.\arch_cpu.h  ****     uint32_t i = 0;
 1755              		.loc 2 23 0 discriminator 3
 1756 0022 0B46     		mov	r3, r1
 1757 0024 36E0     		b	.L129
 1758              	.LVL350:
 1759              	.L130:
  27:.\arch_cpu.h  ****         sum += sptr[i]*kptr[i];i++;
 1760              		.loc 2 27 0
 1761 0026 6256     		ldrsb	r2, [r4, r1]
 1762 0028 1EF901C0 		ldrsb	ip, [lr, r1]
 1763 002c 0CFB0233 		mla	r3, ip, r2, r3
 1764              	.LVL351:
 1765 0030 4A1C     		adds	r2, r1, #1
 1766              	.LVL352:
  28:.\arch_cpu.h  ****         sum += sptr[i]*kptr[i];i++;
 1767              		.loc 2 28 0
 1768 0032 14F902C0 		ldrsb	ip, [r4, r2]
 1769 0036 1EF90220 		ldrsb	r2, [lr, r2]
 1770              	.LVL353:
 1771 003a 02FB0C33 		mla	r3, r2, ip, r3
 1772              	.LVL354:
 1773 003e 8A1C     		adds	r2, r1, #2
 1774              	.LVL355:
  29:.\arch_cpu.h  ****         sum += sptr[i]*kptr[i];i++;
 1775              		.loc 2 29 0
 1776 0040 14F902C0 		ldrsb	ip, [r4, r2]
 1777 0044 1EF90220 		ldrsb	r2, [lr, r2]
 1778              	.LVL356:
 1779 0048 02FB0C33 		mla	r3, r2, ip, r3
 1780              	.LVL357:
ARM GAS  C:\Users\kuzni\AppData\Local\Temp\ccqUPoDe.s 			page 42


 1781 004c 01F1030C 		add	ip, r1, #3
 1782              	.LVL358:
  30:.\arch_cpu.h  ****         sum += sptr[i]*kptr[i];i++;
 1783              		.loc 2 30 0
 1784 0050 14F90C20 		ldrsb	r2, [r4, ip]
 1785 0054 1EF90CC0 		ldrsb	ip, [lr, ip]
 1786              	.LVL359:
 1787 0058 0CFB023C 		mla	ip, ip, r2, r3
 1788              	.LVL360:
 1789 005c 0A1D     		adds	r2, r1, #4
 1790              	.LVL361:
  31:.\arch_cpu.h  ****         sum += sptr[i]*kptr[i];i++;
 1791              		.loc 2 31 0
 1792 005e A356     		ldrsb	r3, [r4, r2]
 1793 0060 1EF90220 		ldrsb	r2, [lr, r2]
 1794              	.LVL362:
 1795 0064 02FB03C2 		mla	r2, r2, r3, ip
 1796              	.LVL363:
 1797 0068 01F1050C 		add	ip, r1, #5
 1798              	.LVL364:
  32:.\arch_cpu.h  ****         sum += sptr[i]*kptr[i];i++;
 1799              		.loc 2 32 0
 1800 006c 14F90C30 		ldrsb	r3, [r4, ip]
 1801 0070 1EF90CC0 		ldrsb	ip, [lr, ip]
 1802              	.LVL365:
 1803 0074 0CFB0323 		mla	r3, ip, r3, r2
 1804              	.LVL366:
 1805 0078 01F1060C 		add	ip, r1, #6
 1806              	.LVL367:
  33:.\arch_cpu.h  ****         sum += sptr[i]*kptr[i];i++;
 1807              		.loc 2 33 0
 1808 007c 14F90C20 		ldrsb	r2, [r4, ip]
 1809 0080 1EF90CC0 		ldrsb	ip, [lr, ip]
 1810              	.LVL368:
 1811 0084 0CFB0233 		mla	r3, ip, r2, r3
 1812              	.LVL369:
  34:.\arch_cpu.h  ****     }
 1813              		.loc 2 34 0
 1814 0088 2256     		ldrsb	r2, [r4, r0]
 1815 008a 1EF90000 		ldrsb	r0, [lr, r0]
 1816              	.LVL370:
 1817 008e 00FB0233 		mla	r3, r0, r2, r3
 1818              	.LVL371:
 1819 0092 0831     		adds	r1, r1, #8
 1820              	.LVL372:
 1821              	.L129:
  26:.\arch_cpu.h  ****         sum += sptr[i]*kptr[i];i++;
 1822              		.loc 2 26 0
 1823 0094 C81D     		adds	r0, r1, #7
 1824 0096 8245     		cmp	r10, r0
 1825 0098 C5D8     		bhi	.L130
 1826 009a 05E0     		b	.L131
 1827              	.L132:
  37:.\arch_cpu.h  ****     }
 1828              		.loc 2 37 0
 1829 009c 6256     		ldrsb	r2, [r4, r1]
 1830 009e 1EF90100 		ldrsb	r0, [lr, r1]
ARM GAS  C:\Users\kuzni\AppData\Local\Temp\ccqUPoDe.s 			page 43


 1831 00a2 00FB0233 		mla	r3, r0, r2, r3
 1832              	.LVL373:
  36:.\arch_cpu.h  ****         sum += sptr[i]*kptr[i]; 
 1833              		.loc 2 36 0
 1834 00a6 0131     		adds	r1, r1, #1
 1835              	.LVL374:
 1836              	.L131:
 1837 00a8 8B45     		cmp	fp, r1
 1838 00aa F7D8     		bhi	.L132
 1839              	.LBE81:
 1840              	.LBE80:
 246:.\tm_layers.c ****         sum += b[c];    //fuse with zp
 1841              		.loc 1 246 0 discriminator 3
 1842 00ac 58F82500 		ldr	r0, [r8, r5, lsl #2]
 1843              	.LVL375:
 247:.\tm_layers.c ****     #if TM_MDL_TYPE == TM_MDL_INT8 || TM_MDL_TYPE == TM_MDL_INT16
 248:.\tm_layers.c ****         out->data[c] = (mtype_t)(sum*in_s*ws[0]/out_s + out_zp); //requant
 1844              		.loc 1 248 0 discriminator 3
 1845 00b0 D6F808A0 		ldr	r10, [r6, #8]
 1846              	.LVL376:
 1847 00b4 1844     		add	r0, r0, r3
 1848              	.LVL377:
 1849 00b6 FFF7FEFF 		bl	__aeabi_i2f
 1850              	.LVL378:
 1851 00ba 0B99     		ldr	r1, [sp, #44]	@ float
 1852 00bc FFF7FEFF 		bl	__aeabi_fmul
 1853              	.LVL379:
 1854 00c0 0A9B     		ldr	r3, [sp, #40]
 1855 00c2 1968     		ldr	r1, [r3]	@ float
 1856 00c4 FFF7FEFF 		bl	__aeabi_fmul
 1857              	.LVL380:
 1858 00c8 0D99     		ldr	r1, [sp, #52]	@ float
 1859 00ca FFF7FEFF 		bl	__aeabi_fdiv
 1860              	.LVL381:
 1861 00ce 8346     		mov	fp, r0
 1862              	.LVL382:
 1863 00d0 0E98     		ldr	r0, [sp, #56]
 1864 00d2 FFF7FEFF 		bl	__aeabi_i2f
 1865              	.LVL383:
 1866 00d6 0146     		mov	r1, r0
 1867 00d8 5846     		mov	r0, fp
 1868 00da FFF7FEFF 		bl	__aeabi_fadd
 1869              	.LVL384:
 1870 00de FFF7FEFF 		bl	__aeabi_f2iz
 1871              	.LVL385:
 1872 00e2 0AF80500 		strb	r0, [r10, r5]
 1873              	.LBE79:
 243:.\tm_layers.c ****         sumtype_t sum = 0;
 1874              		.loc 1 243 0 discriminator 3
 1875 00e6 0135     		adds	r5, r5, #1
 1876              	.LVL386:
 1877              	.L128:
 243:.\tm_layers.c ****         sumtype_t sum = 0;
 1878              		.loc 1 243 0 is_stmt 0 discriminator 1
 1879 00e8 F388     		ldrh	r3, [r6, #6]
 1880 00ea AB42     		cmp	r3, r5
 1881 00ec 91DC     		bgt	.L133
ARM GAS  C:\Users\kuzni\AppData\Local\Temp\ccqUPoDe.s 			page 44


 249:.\tm_layers.c ****     #else
 250:.\tm_layers.c ****         out->data[c] = (mtype_t)(sum);
 251:.\tm_layers.c ****     #endif
 252:.\tm_layers.c ****     }
 253:.\tm_layers.c ****     return TM_OK;
 254:.\tm_layers.c **** }
 1882              		.loc 1 254 0 is_stmt 1
 1883 00ee 0020     		movs	r0, #0
 1884 00f0 BDE8F88F 		pop	{r3, r4, r5, r6, r7, r8, r9, r10, fp, pc}
 1885              		.cfi_endproc
 1886              	.LFE8:
 1887              		.size	tml_fc, .-tml_fc
 1888              		.global	__aeabi_fcmplt
 1889              		.global	__aeabi_fsub
 1890              		.global	__aeabi_f2uiz
 1891              		.section	.text.tml_softmax,"ax",%progbits
 1892              		.align	2
 1893              		.weak	tml_softmax
 1894              		.thumb
 1895              		.thumb_func
 1896              		.type	tml_softmax, %function
 1897              	tml_softmax:
 1898              	.LFB9:
 255:.\tm_layers.c **** 
 256:.\tm_layers.c **** /*************************** TML_SOFTMAX **********************************/
 257:.\tm_layers.c **** tm_err_t TM_WEAK tml_softmax(tm_mat_t* in, tm_mat_t* out, sctype_t in_s, zptype_t in_zp, sctype_t o
 258:.\tm_layers.c **** {   TM_DBGT_INIT(); //note we have float size output buf even in INT8/INT16 mode
 1899              		.loc 1 258 0
 1900              		.cfi_startproc
 1901              		@ args = 8, pretend = 0, frame = 8
 1902              		@ frame_needed = 0, uses_anonymous_args = 0
 1903              	.LVL387:
 1904 0000 2DE9F04F 		push	{r4, r5, r6, r7, r8, r9, r10, fp, lr}
 1905              		.cfi_def_cfa_offset 36
 1906              		.cfi_offset 4, -36
 1907              		.cfi_offset 5, -32
 1908              		.cfi_offset 6, -28
 1909              		.cfi_offset 7, -24
 1910              		.cfi_offset 8, -20
 1911              		.cfi_offset 9, -16
 1912              		.cfi_offset 10, -12
 1913              		.cfi_offset 11, -8
 1914              		.cfi_offset 14, -4
 1915 0004 83B0     		sub	sp, sp, #12
 1916              		.cfi_def_cfa_offset 48
 1917 0006 0746     		mov	r7, r0
 1918 0008 8946     		mov	r9, r1
 1919 000a 0192     		str	r2, [sp, #4]	@ float
 1920 000c 9B46     		mov	fp, r3
 259:.\tm_layers.c ****     mtype_t* din = in->data;
 1921              		.loc 1 259 0
 1922 000e D0F808A0 		ldr	r10, [r0, #8]
 1923              	.LVL388:
 260:.\tm_layers.c ****     float*  dout = (float*)(out->data);
 1924              		.loc 1 260 0
 1925 0012 8C68     		ldr	r4, [r1, #8]
 1926              	.LVL389:
ARM GAS  C:\Users\kuzni\AppData\Local\Temp\ccqUPoDe.s 			page 45


 261:.\tm_layers.c ****     float   dmax =  -FLT_MAX;
 262:.\tm_layers.c ****     int c = 0;
 263:.\tm_layers.c ****     for(c=0; c <in->c; c++){
 1927              		.loc 1 263 0
 1928 0014 0025     		movs	r5, #0
 261:.\tm_layers.c ****     float   dmax =  -FLT_MAX;
 1929              		.loc 1 261 0
 1930 0016 6FF40008 		mvn	r8, #8388608
 1931              		.loc 1 263 0
 1932 001a 12E0     		b	.L136
 1933              	.LVL390:
 1934              	.L138:
 264:.\tm_layers.c ****     #if TM_MDL_TYPE == TM_MDL_INT8 || TM_MDL_TYPE == TM_MDL_INT16
 265:.\tm_layers.c ****         dout[c] = (float)((sumtype_t)din[c] - in_zp)*in_s;
 1935              		.loc 1 265 0
 1936 001c 1AF90500 		ldrsb	r0, [r10, r5]
 1937 0020 CBEB0000 		rsb	r0, fp, r0
 1938 0024 FFF7FEFF 		bl	__aeabi_i2f
 1939              	.LVL391:
 1940 0028 0199     		ldr	r1, [sp, #4]	@ float
 1941 002a FFF7FEFF 		bl	__aeabi_fmul
 1942              	.LVL392:
 1943 002e 0646     		mov	r6, r0
 1944 0030 44F82500 		str	r0, [r4, r5, lsl #2]	@ float
 266:.\tm_layers.c ****     #else
 267:.\tm_layers.c ****         dout[c] = din[c];
 268:.\tm_layers.c ****     #endif
 269:.\tm_layers.c ****         if(dout[c] > dmax) dmax = dout[c];
 1945              		.loc 1 269 0
 1946 0034 4046     		mov	r0, r8
 1947 0036 3146     		mov	r1, r6
 1948 0038 FFF7FEFF 		bl	__aeabi_fcmplt
 1949              	.LVL393:
 1950 003c 00B1     		cbz	r0, .L137
 1951 003e B046     		mov	r8, r6
 1952              	.LVL394:
 1953              	.L137:
 263:.\tm_layers.c ****     #if TM_MDL_TYPE == TM_MDL_INT8 || TM_MDL_TYPE == TM_MDL_INT16
 1954              		.loc 1 263 0 discriminator 2
 1955 0040 0135     		adds	r5, r5, #1
 1956              	.LVL395:
 1957              	.L136:
 263:.\tm_layers.c ****     #if TM_MDL_TYPE == TM_MDL_INT8 || TM_MDL_TYPE == TM_MDL_INT16
 1958              		.loc 1 263 0 is_stmt 0 discriminator 1
 1959 0042 FB88     		ldrh	r3, [r7, #6]
 1960 0044 AB42     		cmp	r3, r5
 1961 0046 E9DC     		bgt	.L138
 1962 0048 0026     		movs	r6, #0
 1963 004a 0025     		movs	r5, #0
 1964              	.LVL396:
 1965 004c 45E0     		b	.L139
 1966              	.LVL397:
 1967              	.L140:
 270:.\tm_layers.c ****     }
 271:.\tm_layers.c ****     float sum = 0;
 272:.\tm_layers.c ****     for(c=0; c <in->c; c++){
 273:.\tm_layers.c ****         dout[c] -= dmax;
ARM GAS  C:\Users\kuzni\AppData\Local\Temp\ccqUPoDe.s 			page 46


 1968              		.loc 1 273 0 is_stmt 1 discriminator 3
 1969 004e 54F82500 		ldr	r0, [r4, r5, lsl #2]	@ float
 1970 0052 4146     		mov	r1, r8
 1971 0054 FFF7FEFF 		bl	__aeabi_fsub
 1972              	.LVL398:
 1973 0058 44F82500 		str	r0, [r4, r5, lsl #2]	@ float
 1974              	.LVL399:
 1975              	.LBB82:
 1976              	.LBB83:
 1977              		.file 3 ".\\tinymaix.h"
   1:.\tinymaix.h  **** /* Copyright 2022 Sipeed Technology Co., Ltd. All Rights Reserved.
   2:.\tinymaix.h  **** Licensed under the Apache License, Version 2.0 (the "License");
   3:.\tinymaix.h  **** you may not use this file except in compliance with the License.
   4:.\tinymaix.h  **** You may obtain a copy of the License at
   5:.\tinymaix.h  ****     http://www.apache.org/licenses/LICENSE-2.0
   6:.\tinymaix.h  **** Unless required by applicable law or agreed to in writing, software
   7:.\tinymaix.h  **** distributed under the License is distributed on an "AS IS" BASIS,
   8:.\tinymaix.h  **** WITHOUT WARRANTIES OR CONDITIONS OF ANY KIND, either express or implied.
   9:.\tinymaix.h  **** See the License for the specific language governing permissions and
  10:.\tinymaix.h  **** limitations under the License.
  11:.\tinymaix.h  **** ==============================================================================*/
  12:.\tinymaix.h  **** 
  13:.\tinymaix.h  **** #ifndef __TINYMAIX_H
  14:.\tinymaix.h  **** #define __TINYMAIX_H
  15:.\tinymaix.h  **** 
  16:.\tinymaix.h  **** #include <stdint.h>
  17:.\tinymaix.h  **** #include <stdio.h>
  18:.\tinymaix.h  **** #include <stdlib.h>
  19:.\tinymaix.h  **** #include <string.h>
  20:.\tinymaix.h  **** 
  21:.\tinymaix.h  **** #define  TM_MDL_INT8    0
  22:.\tinymaix.h  **** #define  TM_MDL_INT16   1
  23:.\tinymaix.h  **** #define  TM_MDL_FP32    2
  24:.\tinymaix.h  **** #define  TM_MDL_FP16    3
  25:.\tinymaix.h  **** #define  TM_MDL_FP8_143 4 //experimental
  26:.\tinymaix.h  **** #define  TM_MDL_FP8_152 5 //experimental
  27:.\tinymaix.h  **** #include "tm_port.h"
  28:.\tinymaix.h  **** 
  29:.\tinymaix.h  **** #ifndef TM_STATIC
  30:.\tinymaix.h  **** // Set default value, if not defined in tm_port.h
  31:.\tinymaix.h  **** #define TM_STATIC static
  32:.\tinymaix.h  **** #endif
  33:.\tinymaix.h  **** 
  34:.\tinymaix.h  **** /******************************* MARCO ************************************/
  35:.\tinymaix.h  **** #define TM_MDL_MAGIC 'XIAM'     //mdl magic sign
  36:.\tinymaix.h  **** #define TM_ALIGN_SIZE   (8)     //8 byte align
  37:.\tinymaix.h  **** #define TM_ALIGN(addr)  ((((size_t)(addr))+(TM_ALIGN_SIZE-1))/TM_ALIGN_SIZE*TM_ALIGN_SIZE)
  38:.\tinymaix.h  **** #define TM_MATP(mat,y,x,ch) ((mat)->data + ((y)*(mat)->w + (x))*(mat)->c + (ch))
  39:.\tinymaix.h  ****                                 //HWC
  40:.\tinymaix.h  **** #if   TM_MDL_TYPE == TM_MDL_INT8
  41:.\tinymaix.h  ****     typedef int8_t  mtype_t;    //mat data type
  42:.\tinymaix.h  ****     typedef int8_t  wtype_t;    //weight data type
  43:.\tinymaix.h  ****     typedef int32_t btype_t;    //bias data type
  44:.\tinymaix.h  ****     typedef int32_t sumtype_t;  //sum data type 
  45:.\tinymaix.h  ****     typedef int32_t zptype_t;   //zeropoint data type 
  46:.\tinymaix.h  ****     #define UINT2INT_SHIFT (0)
  47:.\tinymaix.h  **** #elif TM_MDL_TYPE == TM_MDL_INT16
ARM GAS  C:\Users\kuzni\AppData\Local\Temp\ccqUPoDe.s 			page 47


  48:.\tinymaix.h  ****     typedef int16_t mtype_t;    //mat data type
  49:.\tinymaix.h  ****     typedef int16_t wtype_t;    //weight data type
  50:.\tinymaix.h  ****     typedef int32_t btype_t;    //bias data type
  51:.\tinymaix.h  ****     typedef int32_t sumtype_t;  //sum data type 
  52:.\tinymaix.h  ****     typedef int32_t zptype_t;   //zeropoint data type
  53:.\tinymaix.h  ****     #define UINT2INT_SHIFT (8)
  54:.\tinymaix.h  **** #elif TM_MDL_TYPE == TM_MDL_FP32
  55:.\tinymaix.h  ****     typedef float   mtype_t;    //mat data type
  56:.\tinymaix.h  ****     typedef float   wtype_t;    //weight data type
  57:.\tinymaix.h  ****     typedef float   btype_t;    //bias data type
  58:.\tinymaix.h  ****     typedef float   sumtype_t;  //sum data type 
  59:.\tinymaix.h  ****     typedef float   zptype_t;   //zeropoint data type 
  60:.\tinymaix.h  **** #elif TM_MDL_TYPE == TM_MDL_FP16
  61:.\tinymaix.h  ****     #if TM_ARCH != TM_ARCH_RV64V
  62:.\tinymaix.h  ****         #error "only support RV64V's float16!"
  63:.\tinymaix.h  ****     #endif
  64:.\tinymaix.h  ****     #include <riscv_vector.h>
  65:.\tinymaix.h  ****     typedef float16_t mtype_t;    //mat data type
  66:.\tinymaix.h  ****     typedef float16_t wtype_t;    //weight data type
  67:.\tinymaix.h  ****     typedef float16_t btype_t;    //bias data type
  68:.\tinymaix.h  ****     typedef float16_t sumtype_t;  //sum data type 
  69:.\tinymaix.h  ****     typedef float16_t zptype_t;   //zeropoint data type
  70:.\tinymaix.h  **** #elif (TM_MDL_TYPE == TM_MDL_FP8_143) || (TM_MDL_TYPE == TM_MDL_FP8_152)
  71:.\tinymaix.h  ****     #if TM_ARCH != TM_ARCH_CPU
  72:.\tinymaix.h  ****         #error "only support CPU simulation now!"
  73:.\tinymaix.h  ****     #endif
  74:.\tinymaix.h  ****     typedef uint8_t mtype_t;    //mat data type
  75:.\tinymaix.h  ****     typedef uint8_t wtype_t;    //weight data type
  76:.\tinymaix.h  ****     typedef uint8_t btype_t;    //bias data type
  77:.\tinymaix.h  ****     typedef float sumtype_t;    //sum data type 
  78:.\tinymaix.h  ****     typedef float zptype_t;     //zeropoint data type
  79:.\tinymaix.h  **** #else 
  80:.\tinymaix.h  ****     #error "Not support this MDL_TYPE!"
  81:.\tinymaix.h  **** #endif
  82:.\tinymaix.h  **** 
  83:.\tinymaix.h  **** #if TM_MDL_TYPE == TM_MDL_FP8_143
  84:.\tinymaix.h  ****     #define TM_FP8_SCNT (1)
  85:.\tinymaix.h  ****     #define TM_FP8_ECNT (4)
  86:.\tinymaix.h  ****     #define TM_FP8_MCNT (3)
  87:.\tinymaix.h  ****     #define TM_FP8_BIAS (9)
  88:.\tinymaix.h  **** #elif TM_MDL_TYPE == TM_MDL_FP8_152
  89:.\tinymaix.h  ****     #define TM_FP8_SCNT (1)
  90:.\tinymaix.h  ****     #define TM_FP8_ECNT (5)
  91:.\tinymaix.h  ****     #define TM_FP8_MCNT (2)
  92:.\tinymaix.h  ****     #define TM_FP8_BIAS (15)
  93:.\tinymaix.h  **** #endif
  94:.\tinymaix.h  **** 
  95:.\tinymaix.h  **** typedef float sctype_t;
  96:.\tinymaix.h  **** #define TM_FASTSCALE_SHIFT (8)
  97:.\tinymaix.h  **** 
  98:.\tinymaix.h  **** /******************************* ENUM ************************************/
  99:.\tinymaix.h  **** typedef enum{
 100:.\tinymaix.h  ****     TM_OK = 0,
 101:.\tinymaix.h  ****     TM_ERR= 1,
 102:.\tinymaix.h  ****     TM_ERR_MAGIC     = 2,
 103:.\tinymaix.h  ****     TM_ERR_UNSUPPORT = 3,
 104:.\tinymaix.h  ****     TM_ERR_OOM       = 4,
ARM GAS  C:\Users\kuzni\AppData\Local\Temp\ccqUPoDe.s 			page 48


 105:.\tinymaix.h  ****     TM_ERR_LAYERTYPE = 5,
 106:.\tinymaix.h  ****     TM_ERR_DIMS      = 6,
 107:.\tinymaix.h  ****     TM_ERR_TODO      = 7,
 108:.\tinymaix.h  ****     TM_ERR_MDLTYPE   = 8,
 109:.\tinymaix.h  ****     TM_ERR_KSIZE     = 9,
 110:.\tinymaix.h  **** }tm_err_t;
 111:.\tinymaix.h  **** 
 112:.\tinymaix.h  **** typedef enum{
 113:.\tinymaix.h  ****     TML_CONV2D    = 0,
 114:.\tinymaix.h  ****     TML_GAP       = 1,
 115:.\tinymaix.h  ****     TML_FC        = 2,
 116:.\tinymaix.h  ****     TML_SOFTMAX   = 3,
 117:.\tinymaix.h  ****     TML_RESHAPE   = 4,
 118:.\tinymaix.h  ****     TML_DWCONV2D  = 5,
 119:.\tinymaix.h  ****     TML_ADD       = 6,
 120:.\tinymaix.h  ****     TML_MAXCNT    ,
 121:.\tinymaix.h  **** }tm_layer_type_t;
 122:.\tinymaix.h  **** 
 123:.\tinymaix.h  **** typedef enum{
 124:.\tinymaix.h  ****     TM_PAD_VALID  = 0,
 125:.\tinymaix.h  ****     TM_PAD_SAME   = 1,
 126:.\tinymaix.h  **** }tm_pad_type_t;
 127:.\tinymaix.h  **** 
 128:.\tinymaix.h  **** typedef enum{
 129:.\tinymaix.h  ****     TM_ACT_NONE   = 0,
 130:.\tinymaix.h  ****     TM_ACT_RELU   = 1,
 131:.\tinymaix.h  ****     TM_ACT_RELU1  = 2,
 132:.\tinymaix.h  ****     TM_ACT_RELU6  = 3,
 133:.\tinymaix.h  ****     TM_ACT_TANH   = 4,
 134:.\tinymaix.h  ****     TM_ACT_SIGNBIT= 5,
 135:.\tinymaix.h  ****     TM_ACT_MAXCNT ,
 136:.\tinymaix.h  **** }tm_act_type_t;
 137:.\tinymaix.h  **** 
 138:.\tinymaix.h  **** 
 139:.\tinymaix.h  **** typedef enum {
 140:.\tinymaix.h  ****     TMPP_NONE      = 0,
 141:.\tinymaix.h  ****     TMPP_FP2INT    = 1,  //user own fp buf -> int input buf
 142:.\tinymaix.h  ****     TMPP_UINT2INT  = 2,  //int8: cvt in place; int16: can't cvt in place
 143:.\tinymaix.h  ****     TMPP_UINT2FP01 = 3,  // u8/255.0
 144:.\tinymaix.h  ****     TMPP_UINT2FPN11= 4,  // (u8-128)/128 
 145:.\tinymaix.h  ****     TMPP_UINT2DTYPE= 5,  //uint8 to fp16,fp8
 146:.\tinymaix.h  ****     TMPP_MAXCNT,
 147:.\tinymaix.h  **** }tm_pp_t;
 148:.\tinymaix.h  **** 
 149:.\tinymaix.h  **** /******************************* STRUCT ************************************/
 150:.\tinymaix.h  **** //mdlbin in flash
 151:.\tinymaix.h  **** typedef struct{
 152:.\tinymaix.h  ****     uint32_t magic;         //"MAIX"
 153:.\tinymaix.h  ****     uint8_t  mdl_type;      //0 int8, 1 int16, 2 fp32,
 154:.\tinymaix.h  ****     uint8_t  out_deq;       //0 don't dequant out; 1 dequant out
 155:.\tinymaix.h  ****     uint16_t input_cnt;     //only support 1 yet
 156:.\tinymaix.h  ****     uint16_t output_cnt;    //only support 1 yet
 157:.\tinymaix.h  ****     uint16_t layer_cnt;     
 158:.\tinymaix.h  ****     uint32_t buf_size;      //main buf size for middle result = pingpong+keep
 159:.\tinymaix.h  ****     uint32_t sub_size;      //pingpong buf size;
 160:.\tinymaix.h  ****     uint16_t in_dims[4];    //0:dims; 1:dim0; 2:dim1; 3:dim2
 161:.\tinymaix.h  ****     uint16_t out_dims[4];
ARM GAS  C:\Users\kuzni\AppData\Local\Temp\ccqUPoDe.s 			page 49


 162:.\tinymaix.h  ****     uint8_t  reserve[28];   //reserve for future
 163:.\tinymaix.h  ****     uint8_t  layers_body[0];//oft 64 here
 164:.\tinymaix.h  **** }tm_mdlbin_t;
 165:.\tinymaix.h  **** 
 166:.\tinymaix.h  **** //mdl meta data in ram
 167:.\tinymaix.h  **** typedef struct{
 168:.\tinymaix.h  ****     tm_mdlbin_t* b;         //bin
 169:.\tinymaix.h  ****     void*    cb;            //Layer callback
 170:.\tinymaix.h  ****     uint8_t* buf;           //main buf addr
 171:.\tinymaix.h  ****     uint8_t* subbuf;        //sub buf addr
 172:.\tinymaix.h  ****     uint16_t main_alloc;    //is main buf alloc or static
 173:.\tinymaix.h  ****     uint16_t layer_i;       //current layer index
 174:.\tinymaix.h  ****     uint8_t* layer_body;    //current layer body addr
 175:.\tinymaix.h  **** }tm_mdl_t;
 176:.\tinymaix.h  **** 
 177:.\tinymaix.h  **** //dims==3, hwc
 178:.\tinymaix.h  **** //dims==2, 1wc
 179:.\tinymaix.h  **** //dims==1, 11c
 180:.\tinymaix.h  **** typedef struct{
 181:.\tinymaix.h  ****     uint16_t dims;
 182:.\tinymaix.h  ****     uint16_t h;
 183:.\tinymaix.h  ****     uint16_t w;
 184:.\tinymaix.h  ****     uint16_t c;
 185:.\tinymaix.h  ****     union {
 186:.\tinymaix.h  ****         mtype_t* data;
 187:.\tinymaix.h  ****         float*   dataf;
 188:.\tinymaix.h  ****     };
 189:.\tinymaix.h  **** }tm_mat_t;
 190:.\tinymaix.h  **** 
 191:.\tinymaix.h  **** /******************************* LAYER STRUCT ************************************/
 192:.\tinymaix.h  **** typedef struct{             //48byte
 193:.\tinymaix.h  ****     uint16_t type;          //layer type
 194:.\tinymaix.h  ****     uint16_t is_out;        //is output
 195:.\tinymaix.h  ****     uint32_t size;          //8 byte align size for this layer
 196:.\tinymaix.h  ****     uint32_t in_oft;        //input  oft in main buf
 197:.\tinymaix.h  ****     uint32_t out_oft;       //output oft in main buf
 198:.\tinymaix.h  ****     uint16_t in_dims[4];    //0:dims; 1:dim0; 2:dim1; 3:dim2
 199:.\tinymaix.h  ****     uint16_t out_dims[4];
 200:.\tinymaix.h  ****                             //following unit not used in fp32 mode
 201:.\tinymaix.h  ****     sctype_t in_s;          //input scale, 
 202:.\tinymaix.h  ****     zptype_t in_zp;         //input zeropoint
 203:.\tinymaix.h  ****     sctype_t out_s;         //output scale
 204:.\tinymaix.h  ****     zptype_t out_zp;        //output zeropoint
 205:.\tinymaix.h  ****     //note: real = scale*(q-zeropoint)
 206:.\tinymaix.h  **** }tml_head_t;
 207:.\tinymaix.h  **** 
 208:.\tinymaix.h  **** typedef struct{
 209:.\tinymaix.h  ****     tml_head_t h;
 210:.\tinymaix.h  **** 
 211:.\tinymaix.h  ****     uint8_t  kernel_w;
 212:.\tinymaix.h  ****     uint8_t  kernel_h;
 213:.\tinymaix.h  ****     uint8_t  stride_w;
 214:.\tinymaix.h  ****     uint8_t  stride_h;
 215:.\tinymaix.h  ****     
 216:.\tinymaix.h  ****     uint8_t  dilation_w;
 217:.\tinymaix.h  ****     uint8_t  dilation_h;
 218:.\tinymaix.h  ****     uint16_t  act;          //0 none, 1 relu, 2 relu1, 3 relu6, 4 tanh, 5 sign_bit
ARM GAS  C:\Users\kuzni\AppData\Local\Temp\ccqUPoDe.s 			page 50


 219:.\tinymaix.h  ****     
 220:.\tinymaix.h  ****     uint8_t  pad[4];        //top,bottom,left,right
 221:.\tinymaix.h  **** 
 222:.\tinymaix.h  ****     uint32_t depth_mul;     //depth_multiplier: if conv2d,=0; else: >=1
 223:.\tinymaix.h  ****     uint32_t reserve;       //for 8byte align
 224:.\tinymaix.h  ****     
 225:.\tinymaix.h  ****     uint32_t ws_oft;        //weight scale oft from this layer start 
 226:.\tinymaix.h  ****                             //skip bias scale: bias_scale = weight_scale*in_scale
 227:.\tinymaix.h  ****     uint32_t w_oft;         //weight oft from this layer start
 228:.\tinymaix.h  ****     uint32_t b_oft;         //bias oft from this layer start 
 229:.\tinymaix.h  ****     //note: bias[c] = bias[c] + (-out_zp)*sum(w[c*chi*maxk:(c+1)*chi*maxk])
 230:.\tinymaix.h  ****     //      fused in advance (when convert model)
 231:.\tinymaix.h  **** }tml_conv2d_dw_t;  //compatible with conv2d and dwconv2d
 232:.\tinymaix.h  **** 
 233:.\tinymaix.h  **** typedef struct{
 234:.\tinymaix.h  ****     tml_head_t h;
 235:.\tinymaix.h  **** }tml_gap_t;
 236:.\tinymaix.h  **** 
 237:.\tinymaix.h  **** typedef struct{
 238:.\tinymaix.h  ****     tml_head_t h;
 239:.\tinymaix.h  **** 
 240:.\tinymaix.h  ****     uint32_t ws_oft;        //weight scale oft from this layer start 
 241:.\tinymaix.h  ****     uint32_t w_oft;         //weight oft from this layer start
 242:.\tinymaix.h  ****     uint32_t b_oft;         //bias oft from this layer start
 243:.\tinymaix.h  ****     uint32_t reserve;       //for 8byte align
 244:.\tinymaix.h  **** }tml_fc_t;
 245:.\tinymaix.h  **** 
 246:.\tinymaix.h  **** typedef struct{
 247:.\tinymaix.h  ****     tml_head_t h;
 248:.\tinymaix.h  **** }tml_softmax_t;
 249:.\tinymaix.h  **** 
 250:.\tinymaix.h  **** typedef struct{
 251:.\tinymaix.h  ****     tml_head_t h;
 252:.\tinymaix.h  **** }tml_reshape_t;
 253:.\tinymaix.h  **** 
 254:.\tinymaix.h  **** typedef struct{
 255:.\tinymaix.h  ****     tml_head_t h;
 256:.\tinymaix.h  **** 
 257:.\tinymaix.h  ****     uint8_t  kernel_w;
 258:.\tinymaix.h  ****     uint8_t  kernel_h;
 259:.\tinymaix.h  ****     uint8_t  stride_w;
 260:.\tinymaix.h  ****     uint8_t  stride_h;
 261:.\tinymaix.h  ****     
 262:.\tinymaix.h  ****     uint8_t  dilation_w;
 263:.\tinymaix.h  ****     uint8_t  dilation_h;
 264:.\tinymaix.h  ****     uint16_t  act;          //0 none, 1 relu, 2 relu1, 3 relu6, 4 tanh, 5 sign_bit
 265:.\tinymaix.h  ****     
 266:.\tinymaix.h  ****     uint8_t  pad[4];        //top,bottom,left,right
 267:.\tinymaix.h  **** 
 268:.\tinymaix.h  **** 
 269:.\tinymaix.h  ****     
 270:.\tinymaix.h  ****     uint32_t ws_oft;        //weight scale oft from this layer start 
 271:.\tinymaix.h  ****                             //skip bias scale: bias_scale = weight_scale*in_scale
 272:.\tinymaix.h  ****     uint32_t w_oft;         //weight oft from this layer start
 273:.\tinymaix.h  ****     uint32_t b_oft;         //bias oft from this layer start 
 274:.\tinymaix.h  ****     //note: bias[c] = bias[c] + (-out_zp)*sum(w[c*chi*maxk:(c+1)*chi*maxk])
 275:.\tinymaix.h  ****     //      fused in advance (when convert model)
ARM GAS  C:\Users\kuzni\AppData\Local\Temp\ccqUPoDe.s 			page 51


 276:.\tinymaix.h  **** }tml_dwconv2d_t;
 277:.\tinymaix.h  **** 
 278:.\tinymaix.h  **** typedef struct{
 279:.\tinymaix.h  ****     tml_head_t h;
 280:.\tinymaix.h  ****     uint32_t in_oft1;
 281:.\tinymaix.h  ****     sctype_t in_s1;          //input scale, 
 282:.\tinymaix.h  ****     zptype_t in_zp1;         //input zeropoint
 283:.\tinymaix.h  ****     uint32_t reserve;        //align8
 284:.\tinymaix.h  **** }tml_add_t;
 285:.\tinymaix.h  **** 
 286:.\tinymaix.h  **** 
 287:.\tinymaix.h  **** /******************************* TYPE ************************************/
 288:.\tinymaix.h  **** typedef tm_err_t (*tml_stat_t)(tml_head_t* layer, tm_mat_t* in, tm_mat_t* out);
 289:.\tinymaix.h  **** typedef tm_err_t (*tm_cb_t)(tm_mdl_t* mdl, tml_head_t* lh);
 290:.\tinymaix.h  **** 
 291:.\tinymaix.h  **** 
 292:.\tinymaix.h  **** /******************************* GLOBAL VARIABLE ************************************/
 293:.\tinymaix.h  **** 
 294:.\tinymaix.h  **** 
 295:.\tinymaix.h  **** /******************************* MODEL FUNCTION ************************************/
 296:.\tinymaix.h  **** tm_err_t tm_load  (tm_mdl_t* mdl, const uint8_t* bin, uint8_t*buf, tm_cb_t cb, tm_mat_t* in);   //l
 297:.\tinymaix.h  **** void     tm_unload(tm_mdl_t* mdl);                                      //remove model
 298:.\tinymaix.h  **** tm_err_t tm_preprocess(tm_mdl_t* mdl, tm_pp_t pp_type, tm_mat_t* in, tm_mat_t* out);            //p
 299:.\tinymaix.h  **** tm_err_t tm_run   (tm_mdl_t* mdl, tm_mat_t* in, tm_mat_t* out);         //run model
 300:.\tinymaix.h  **** 
 301:.\tinymaix.h  **** 
 302:.\tinymaix.h  **** /******************************* LAYER FUNCTION ************************************/
 303:.\tinymaix.h  **** tm_err_t tml_conv2d_dwconv2d(tm_mat_t* in, tm_mat_t* out, wtype_t* w, btype_t* b, \
 304:.\tinymaix.h  ****     int kw, int kh, int sx, int sy, int dx, int dy, int act, \
 305:.\tinymaix.h  ****     int pad_top, int pad_bottom, int pad_left, int pad_right, int dmul, \
 306:.\tinymaix.h  ****     sctype_t* ws, sctype_t in_s, zptype_t in_zp, sctype_t out_s, zptype_t out_zp);
 307:.\tinymaix.h  **** tm_err_t tml_gap(tm_mat_t* in, tm_mat_t* out, sctype_t in_s, zptype_t in_zp, sctype_t out_s, zptype
 308:.\tinymaix.h  **** tm_err_t tml_fc(tm_mat_t* in, tm_mat_t* out,  wtype_t* w, btype_t* b, \
 309:.\tinymaix.h  ****     sctype_t* ws, sctype_t in_s, zptype_t in_zp, sctype_t out_s, zptype_t out_zp);
 310:.\tinymaix.h  **** tm_err_t tml_softmax(tm_mat_t* in, tm_mat_t* out, sctype_t in_s, zptype_t in_zp, sctype_t out_s, zp
 311:.\tinymaix.h  **** tm_err_t tml_reshape(tm_mat_t* in, tm_mat_t* out, sctype_t in_s, zptype_t in_zp, sctype_t out_s, zp
 312:.\tinymaix.h  **** tm_err_t tml_add(tm_mat_t* in0, tm_mat_t* in1, tm_mat_t* out, \
 313:.\tinymaix.h  ****     sctype_t in_s0, zptype_t in_zp0, sctype_t in_s1, zptype_t in_zp1, sctype_t out_s, zptype_t out_
 314:.\tinymaix.h  **** 
 315:.\tinymaix.h  **** /******************************* STAT FUNCTION ************************************/
 316:.\tinymaix.h  **** #if TM_ENABLE_STAT
 317:.\tinymaix.h  **** tm_err_t tm_stat(tm_mdlbin_t* mdl);                    //stat model
 318:.\tinymaix.h  **** #endif
 319:.\tinymaix.h  **** 
 320:.\tinymaix.h  **** /******************************* UTILS FUNCTION ************************************/
 321:.\tinymaix.h  **** uint8_t TM_WEAK tm_fp32to8(float fp32);
 322:.\tinymaix.h  **** float TM_WEAK tm_fp8to32(uint8_t fp8);
 323:.\tinymaix.h  **** 
 324:.\tinymaix.h  **** 
 325:.\tinymaix.h  **** /******************************* UTILS  ************************************/
 326:.\tinymaix.h  **** 
 327:.\tinymaix.h  **** #define TML_GET_INPUT(mdl,lh)   ((mtype_t*)((mdl)->buf + (lh)->in_oft))
 328:.\tinymaix.h  **** #define TML_GET_OUTPUT(mdl,lh)  ((mtype_t*)((mdl)->buf + (lh)->out_oft))
 329:.\tinymaix.h  **** #if (TM_MDL_TYPE == TM_MDL_INT8)||(TM_MDL_TYPE == TM_MDL_INT16)
 330:.\tinymaix.h  ****     #define TML_DEQUANT(lh, x)       (((sumtype_t)(x)-((lh)->out_zp))*((lh)->out_s))
 331:.\tinymaix.h  ****     #define TM_DEQUANT(i8,s,zp) (((sumtype_t)(i8)-(zp))*(s))
 332:.\tinymaix.h  ****     #define TM_QUANT(fp32,s,zp) ((mtype_t)((fp32)/(s)+zp))
ARM GAS  C:\Users\kuzni\AppData\Local\Temp\ccqUPoDe.s 			page 52


 333:.\tinymaix.h  **** #elif (TM_MDL_TYPE == TM_MDL_FP8_143) || (TM_MDL_TYPE == TM_MDL_FP8_152)
 334:.\tinymaix.h  ****     #define TML_DEQUANT(lh, x)  (tm_fp8to32(x))
 335:.\tinymaix.h  **** #else   //FP32,FP16
 336:.\tinymaix.h  ****     #define TML_DEQUANT(lh, x)  ((float)(x))
 337:.\tinymaix.h  ****     #define TM_DEQUANT(x,s,zp)  (x)
 338:.\tinymaix.h  ****     #define TM_QUANT(x,s,zp)    (x)
 339:.\tinymaix.h  **** #endif
 340:.\tinymaix.h  **** 
 341:.\tinymaix.h  **** /******************************* LOCAL MATH FUNCTION  ************************************/
 342:.\tinymaix.h  **** #if 1//TM_LOCAL_MATH
 343:.\tinymaix.h  **** //http://www.machinedlearnings.com/2011/06/fast-approximate-logarithm-exponential.html
 344:.\tinymaix.h  **** static inline float _exp(float x) {
 345:.\tinymaix.h  ****         float p = 1.442695040f * x;
 1978              		.loc 3 345 0 discriminator 3
 1979 005c 3049     		ldr	r1, .L145
 1980 005e FFF7FEFF 		bl	__aeabi_fmul
 1981              	.LVL400:
 1982 0062 8346     		mov	fp, r0
 1983              	.LVL401:
 346:.\tinymaix.h  ****         uint32_t i = 0;
 347:.\tinymaix.h  ****         uint32_t sign = (i >> 31);
 348:.\tinymaix.h  ****         int w = (int) p;
 1984              		.loc 3 348 0 discriminator 3
 1985 0064 FFF7FEFF 		bl	__aeabi_f2iz
 1986              	.LVL402:
 349:.\tinymaix.h  ****         float z = p - (float) w + (float) sign;
 1987              		.loc 3 349 0 discriminator 3
 1988 0068 FFF7FEFF 		bl	__aeabi_i2f
 1989              	.LVL403:
 1990 006c 0146     		mov	r1, r0
 1991 006e 5846     		mov	r0, fp
 1992 0070 FFF7FEFF 		bl	__aeabi_fsub
 1993              	.LVL404:
 1994 0074 0021     		movs	r1, #0
 1995 0076 FFF7FEFF 		bl	__aeabi_fadd
 1996              	.LVL405:
 1997 007a 8246     		mov	r10, r0
 1998              	.LVL406:
 350:.\tinymaix.h  ****         union {
 351:.\tinymaix.h  ****             uint32_t i;
 352:.\tinymaix.h  ****             float f;
 353:.\tinymaix.h  ****         } v = {.i = (uint32_t) ((1 << 23) * (p + 121.2740838f + 27.7280233f / (4.84252568f - z) - 1
 1999              		.loc 3 353 0 discriminator 3
 2000 007c 5846     		mov	r0, fp
 2001              	.LVL407:
 2002 007e 2949     		ldr	r1, .L145+4
 2003 0080 FFF7FEFF 		bl	__aeabi_fadd
 2004              	.LVL408:
 2005 0084 8346     		mov	fp, r0
 2006              	.LVL409:
 2007 0086 2848     		ldr	r0, .L145+8
 2008 0088 5146     		mov	r1, r10
 2009 008a FFF7FEFF 		bl	__aeabi_fsub
 2010              	.LVL410:
 2011 008e 0146     		mov	r1, r0
 2012 0090 2648     		ldr	r0, .L145+12
 2013 0092 FFF7FEFF 		bl	__aeabi_fdiv
ARM GAS  C:\Users\kuzni\AppData\Local\Temp\ccqUPoDe.s 			page 53


 2014              	.LVL411:
 2015 0096 0146     		mov	r1, r0
 2016 0098 5846     		mov	r0, fp
 2017 009a FFF7FEFF 		bl	__aeabi_fadd
 2018              	.LVL412:
 2019 009e 8346     		mov	fp, r0
 2020 00a0 5046     		mov	r0, r10
 2021 00a2 2349     		ldr	r1, .L145+16
 2022 00a4 FFF7FEFF 		bl	__aeabi_fmul
 2023              	.LVL413:
 2024 00a8 0146     		mov	r1, r0
 2025 00aa 5846     		mov	r0, fp
 2026 00ac FFF7FEFF 		bl	__aeabi_fsub
 2027              	.LVL414:
 2028 00b0 4FF09641 		mov	r1, #1258291200
 2029 00b4 FFF7FEFF 		bl	__aeabi_fmul
 2030              	.LVL415:
 2031 00b8 FFF7FEFF 		bl	__aeabi_f2uiz
 2032              	.LVL416:
 2033 00bc 8246     		mov	r10, r0
 2034              	.LVL417:
 2035              	.LBE83:
 2036              	.LBE82:
 274:.\tm_layers.c ****         dout[c] = (float)tm_exp(dout[c]);
 2037              		.loc 1 274 0 discriminator 3
 2038 00be 44F82500 		str	r0, [r4, r5, lsl #2]	@ float
 275:.\tm_layers.c ****         sum     += dout[c];
 2039              		.loc 1 275 0 discriminator 3
 2040 00c2 3046     		mov	r0, r6
 2041 00c4 5146     		mov	r1, r10
 2042 00c6 FFF7FEFF 		bl	__aeabi_fadd
 2043              	.LVL418:
 2044 00ca 0646     		mov	r6, r0
 2045              	.LVL419:
 276:.\tm_layers.c ****         dout[c] -= 0.000001f;  //prevent 1.0 value (cause 256 overflow)
 2046              		.loc 1 276 0 discriminator 3
 2047 00cc 5046     		mov	r0, r10
 2048              	.LVL420:
 2049 00ce 1949     		ldr	r1, .L145+20
 2050 00d0 FFF7FEFF 		bl	__aeabi_fsub
 2051              	.LVL421:
 2052 00d4 44F82500 		str	r0, [r4, r5, lsl #2]	@ float
 272:.\tm_layers.c ****         dout[c] -= dmax;
 2053              		.loc 1 272 0 discriminator 3
 2054 00d8 0135     		adds	r5, r5, #1
 2055              	.LVL422:
 2056              	.L139:
 272:.\tm_layers.c ****         dout[c] -= dmax;
 2057              		.loc 1 272 0 is_stmt 0 discriminator 1
 2058 00da FB88     		ldrh	r3, [r7, #6]
 2059 00dc AB42     		cmp	r3, r5
 2060 00de B6DC     		bgt	.L140
 2061 00e0 0025     		movs	r5, #0
 2062              	.LVL423:
 2063 00e2 16E0     		b	.L141
 2064              	.LVL424:
 2065              	.L142:
ARM GAS  C:\Users\kuzni\AppData\Local\Temp\ccqUPoDe.s 			page 54


 277:.\tm_layers.c ****     }
 278:.\tm_layers.c ****     for(c=0; c <in->c; c++){  //int8/int16 <= fp32, so it is ok
 279:.\tm_layers.c ****     #if TM_MDL_TYPE == TM_MDL_INT8 || TM_MDL_TYPE == TM_MDL_INT16
 280:.\tm_layers.c ****         out->data[c] = (mtype_t)(dout[c]/sum/out_s + out_zp); //requant
 2066              		.loc 1 280 0 is_stmt 1 discriminator 3
 2067 00e4 D9F80880 		ldr	r8, [r9, #8]
 2068 00e8 54F82500 		ldr	r0, [r4, r5, lsl #2]	@ float
 2069 00ec 3146     		mov	r1, r6
 2070 00ee FFF7FEFF 		bl	__aeabi_fdiv
 2071              	.LVL425:
 2072 00f2 0C99     		ldr	r1, [sp, #48]	@ float
 2073 00f4 FFF7FEFF 		bl	__aeabi_fdiv
 2074              	.LVL426:
 2075 00f8 8246     		mov	r10, r0
 2076 00fa 0D98     		ldr	r0, [sp, #52]
 2077 00fc FFF7FEFF 		bl	__aeabi_i2f
 2078              	.LVL427:
 2079 0100 0146     		mov	r1, r0
 2080 0102 5046     		mov	r0, r10
 2081 0104 FFF7FEFF 		bl	__aeabi_fadd
 2082              	.LVL428:
 2083 0108 FFF7FEFF 		bl	__aeabi_f2iz
 2084              	.LVL429:
 2085 010c 08F80500 		strb	r0, [r8, r5]
 278:.\tm_layers.c ****     #if TM_MDL_TYPE == TM_MDL_INT8 || TM_MDL_TYPE == TM_MDL_INT16
 2086              		.loc 1 278 0 discriminator 3
 2087 0110 0135     		adds	r5, r5, #1
 2088              	.LVL430:
 2089              	.L141:
 278:.\tm_layers.c ****     #if TM_MDL_TYPE == TM_MDL_INT8 || TM_MDL_TYPE == TM_MDL_INT16
 2090              		.loc 1 278 0 is_stmt 0 discriminator 1
 2091 0112 FB88     		ldrh	r3, [r7, #6]
 2092 0114 AB42     		cmp	r3, r5
 2093 0116 E5DC     		bgt	.L142
 281:.\tm_layers.c ****     #else
 282:.\tm_layers.c ****         out->data[c] = (mtype_t)(dout[c]/sum);
 283:.\tm_layers.c ****     #endif
 284:.\tm_layers.c ****     }
 285:.\tm_layers.c ****     return TM_OK;
 286:.\tm_layers.c **** }
 2094              		.loc 1 286 0 is_stmt 1
 2095 0118 0020     		movs	r0, #0
 2096 011a 03B0     		add	sp, sp, #12
 2097              		.cfi_def_cfa_offset 36
 2098              		@ sp needed
 2099 011c BDE8F08F 		pop	{r4, r5, r6, r7, r8, r9, r10, fp, pc}
 2100              	.LVL431:
 2101              	.L146:
 2102              		.align	2
 2103              	.L145:
 2104 0120 3BAAB83F 		.word	1069066811
 2105 0124 558CF242 		.word	1123191893
 2106 0128 F8F59A40 		.word	1083897336
 2107 012c FED2DD41 		.word	1105056510
 2108 0130 8DBCBE3F 		.word	1069464717
 2109 0134 BD378635 		.word	897988541
 2110              		.cfi_endproc
ARM GAS  C:\Users\kuzni\AppData\Local\Temp\ccqUPoDe.s 			page 55


 2111              	.LFE9:
 2112              		.size	tml_softmax, .-tml_softmax
 2113              		.section	.text.tml_reshape,"ax",%progbits
 2114              		.align	2
 2115              		.weak	tml_reshape
 2116              		.thumb
 2117              		.thumb_func
 2118              		.type	tml_reshape, %function
 2119              	tml_reshape:
 2120              	.LFB10:
 287:.\tm_layers.c **** 
 288:.\tm_layers.c **** /*************************** TML_RESHAPE **********************************/
 289:.\tm_layers.c **** tm_err_t TM_WEAK tml_reshape(tm_mat_t* in, tm_mat_t* out, sctype_t in_s, zptype_t in_zp, sctype_t o
 290:.\tm_layers.c **** {   
 2121              		.loc 1 290 0
 2122              		.cfi_startproc
 2123              		@ args = 8, pretend = 0, frame = 0
 2124              		@ frame_needed = 0, uses_anonymous_args = 0
 2125              		@ link register save eliminated.
 2126              	.LVL432:
 291:.\tm_layers.c ****     //in fact do nothing... out shape
 292:.\tm_layers.c ****     return TM_OK;
 293:.\tm_layers.c **** }
 2127              		.loc 1 293 0
 2128 0000 0020     		movs	r0, #0
 2129              	.LVL433:
 2130 0002 7047     		bx	lr
 2131              		.cfi_endproc
 2132              	.LFE10:
 2133              		.size	tml_reshape, .-tml_reshape
 2134              		.global	__aeabi_f2d
 2135              		.section	.text.tml_add,"ax",%progbits
 2136              		.align	2
 2137              		.weak	tml_add
 2138              		.thumb
 2139              		.thumb_func
 2140              		.type	tml_add, %function
 2141              	tml_add:
 2142              	.LFB11:
 294:.\tm_layers.c **** 
 295:.\tm_layers.c **** 
 296:.\tm_layers.c **** tm_err_t TM_WEAK tml_add(tm_mat_t* in0, tm_mat_t* in1, tm_mat_t* out, \
 297:.\tm_layers.c ****     sctype_t in_s0, zptype_t in_zp0, sctype_t in_s1, zptype_t in_zp1, sctype_t out_s, zptype_t out_
 298:.\tm_layers.c **** {   //TODO: check in0 shape == in1 shape 
 2143              		.loc 1 298 0
 2144              		.cfi_startproc
 2145              		@ args = 20, pretend = 0, frame = 24
 2146              		@ frame_needed = 0, uses_anonymous_args = 0
 2147              	.LVL434:
 2148 0000 2DE9F04F 		push	{r4, r5, r6, r7, r8, r9, r10, fp, lr}
 2149              		.cfi_def_cfa_offset 36
 2150              		.cfi_offset 4, -36
 2151              		.cfi_offset 5, -32
 2152              		.cfi_offset 6, -28
 2153              		.cfi_offset 7, -24
 2154              		.cfi_offset 8, -20
 2155              		.cfi_offset 9, -16
ARM GAS  C:\Users\kuzni\AppData\Local\Temp\ccqUPoDe.s 			page 56


 2156              		.cfi_offset 10, -12
 2157              		.cfi_offset 11, -8
 2158              		.cfi_offset 14, -4
 2159 0004 8DB0     		sub	sp, sp, #52
 2160              		.cfi_def_cfa_offset 88
 2161 0006 1C46     		mov	r4, r3
 2162 0008 0793     		str	r3, [sp, #28]	@ float
 2163 000a DDF85880 		ldr	r8, [sp, #88]
 2164 000e DDF860B0 		ldr	fp, [sp, #96]
 299:.\tm_layers.c ****     //It is simple and experimental implement for ADD, could be more way faster
 300:.\tm_layers.c ****     mtype_t* d0 = in0->data;
 2165              		.loc 1 300 0
 2166 0012 8568     		ldr	r5, [r0, #8]
 2167              	.LVL435:
 301:.\tm_layers.c ****     mtype_t* d1 = in1->data;
 2168              		.loc 1 301 0
 2169 0014 8E68     		ldr	r6, [r1, #8]
 2170              	.LVL436:
 302:.\tm_layers.c ****     mtype_t* res = out->data; 
 2171              		.loc 1 302 0
 2172 0016 9768     		ldr	r7, [r2, #8]
 2173              	.LVL437:
 303:.\tm_layers.c ****     int size = in0->h*in0->w*in0->c;
 2174              		.loc 1 303 0
 2175 0018 4288     		ldrh	r2, [r0, #2]
 2176              	.LVL438:
 2177 001a 8388     		ldrh	r3, [r0, #4]
 2178              	.LVL439:
 2179 001c 03FB02F3 		mul	r3, r3, r2
 2180 0020 C288     		ldrh	r2, [r0, #6]
 2181 0022 02FB03F2 		mul	r2, r2, r3
 2182 0026 0B92     		str	r2, [sp, #44]
 2183              	.LVL440:
 304:.\tm_layers.c ****     TM_PRINTF("s0=%.3f,zp0=%d; s1=%.3f,zp1=%d\r\n", in_s0, in_zp0, in_s1, in_zp1);
 2184              		.loc 1 304 0
 2185 0028 2046     		mov	r0, r4
 2186              	.LVL441:
 2187 002a FFF7FEFF 		bl	__aeabi_f2d
 2188              	.LVL442:
 2189 002e CDE90801 		strd	r0, [sp, #32]
 2190 0032 CDF80080 		str	r8, [sp]
 2191 0036 1798     		ldr	r0, [sp, #92]	@ float
 2192 0038 FFF7FEFF 		bl	__aeabi_f2d
 2193              	.LVL443:
 2194 003c CDE90201 		strd	r0, [sp, #8]
 2195 0040 CDF810B0 		str	fp, [sp, #16]
 2196 0044 6348     		ldr	r0, .L154
 2197 0046 DDE90823 		ldrd	r2, [sp, #32]
 2198 004a FFF7FEFF 		bl	printf
 2199              	.LVL444:
 305:.\tm_layers.c **** #if TM_MDL_TYPE == TM_MDL_FP16 || TM_MDL_TYPE == TM_MDL_FP32 || TM_MDL_TYPE == TM_MDL_INT8
 306:.\tm_layers.c ****     int i;
 307:.\tm_layers.c ****     for(i=0; i+4<=size; ){
 2200              		.loc 1 307 0
 2201 004e 0024     		movs	r4, #0
 2202              	.LVL445:
 2203 0050 8DE0     		b	.L149
ARM GAS  C:\Users\kuzni\AppData\Local\Temp\ccqUPoDe.s 			page 57


 2204              	.LVL446:
 2205              	.L150:
 308:.\tm_layers.c ****         res[i] = TM_QUANT(TM_DEQUANT(d0[i],in_s0,in_zp0)+TM_DEQUANT(d1[i],in_s1,in_zp1), out_s, out
 2206              		.loc 1 308 0
 2207 0052 2857     		ldrsb	r0, [r5, r4]
 2208 0054 C8EB0000 		rsb	r0, r8, r0
 2209 0058 FFF7FEFF 		bl	__aeabi_i2f
 2210              	.LVL447:
 2211 005c 0799     		ldr	r1, [sp, #28]	@ float
 2212 005e FFF7FEFF 		bl	__aeabi_fmul
 2213              	.LVL448:
 2214 0062 8146     		mov	r9, r0
 2215 0064 3057     		ldrsb	r0, [r6, r4]
 2216 0066 CBEB0000 		rsb	r0, fp, r0
 2217 006a FFF7FEFF 		bl	__aeabi_i2f
 2218              	.LVL449:
 2219 006e 1799     		ldr	r1, [sp, #92]	@ float
 2220 0070 FFF7FEFF 		bl	__aeabi_fmul
 2221              	.LVL450:
 2222 0074 0146     		mov	r1, r0
 2223 0076 4846     		mov	r0, r9
 2224 0078 FFF7FEFF 		bl	__aeabi_fadd
 2225              	.LVL451:
 2226 007c 1999     		ldr	r1, [sp, #100]	@ float
 2227 007e FFF7FEFF 		bl	__aeabi_fdiv
 2228              	.LVL452:
 2229 0082 8146     		mov	r9, r0
 2230 0084 1A98     		ldr	r0, [sp, #104]
 2231 0086 FFF7FEFF 		bl	__aeabi_i2f
 2232              	.LVL453:
 2233 008a 0346     		mov	r3, r0
 2234 008c 4846     		mov	r0, r9
 2235 008e 0893     		str	r3, [sp, #32]	@ float
 2236 0090 1946     		mov	r1, r3
 2237 0092 FFF7FEFF 		bl	__aeabi_fadd
 2238              	.LVL454:
 2239 0096 FFF7FEFF 		bl	__aeabi_f2iz
 2240              	.LVL455:
 2241 009a 3855     		strb	r0, [r7, r4]
 2242 009c 04F10109 		add	r9, r4, #1
 2243              	.LVL456:
 309:.\tm_layers.c ****         res[i] = TM_QUANT(TM_DEQUANT(d0[i],in_s0,in_zp0)+TM_DEQUANT(d1[i],in_s1,in_zp1), out_s, out
 2244              		.loc 1 309 0
 2245 00a0 15F90900 		ldrsb	r0, [r5, r9]
 2246 00a4 C8EB0000 		rsb	r0, r8, r0
 2247 00a8 FFF7FEFF 		bl	__aeabi_i2f
 2248              	.LVL457:
 2249 00ac 0799     		ldr	r1, [sp, #28]	@ float
 2250 00ae FFF7FEFF 		bl	__aeabi_fmul
 2251              	.LVL458:
 2252 00b2 0A90     		str	r0, [sp, #40]	@ float
 2253 00b4 16F90900 		ldrsb	r0, [r6, r9]
 2254 00b8 CBEB0000 		rsb	r0, fp, r0
 2255 00bc FFF7FEFF 		bl	__aeabi_i2f
 2256              	.LVL459:
 2257 00c0 1799     		ldr	r1, [sp, #92]	@ float
 2258 00c2 FFF7FEFF 		bl	__aeabi_fmul
ARM GAS  C:\Users\kuzni\AppData\Local\Temp\ccqUPoDe.s 			page 58


 2259              	.LVL460:
 2260 00c6 0146     		mov	r1, r0
 2261 00c8 0A98     		ldr	r0, [sp, #40]	@ float
 2262 00ca FFF7FEFF 		bl	__aeabi_fadd
 2263              	.LVL461:
 2264 00ce 1999     		ldr	r1, [sp, #100]	@ float
 2265 00d0 FFF7FEFF 		bl	__aeabi_fdiv
 2266              	.LVL462:
 2267 00d4 0146     		mov	r1, r0
 2268 00d6 0898     		ldr	r0, [sp, #32]	@ float
 2269 00d8 FFF7FEFF 		bl	__aeabi_fadd
 2270              	.LVL463:
 2271 00dc FFF7FEFF 		bl	__aeabi_f2iz
 2272              	.LVL464:
 2273 00e0 07F80900 		strb	r0, [r7, r9]
 2274 00e4 04F10209 		add	r9, r4, #2
 2275              	.LVL465:
 310:.\tm_layers.c ****         res[i] = TM_QUANT(TM_DEQUANT(d0[i],in_s0,in_zp0)+TM_DEQUANT(d1[i],in_s1,in_zp1), out_s, out
 2276              		.loc 1 310 0
 2277 00e8 15F90900 		ldrsb	r0, [r5, r9]
 2278 00ec C8EB0000 		rsb	r0, r8, r0
 2279 00f0 FFF7FEFF 		bl	__aeabi_i2f
 2280              	.LVL466:
 2281 00f4 0799     		ldr	r1, [sp, #28]	@ float
 2282 00f6 FFF7FEFF 		bl	__aeabi_fmul
 2283              	.LVL467:
 2284 00fa 0A90     		str	r0, [sp, #40]	@ float
 2285 00fc 16F90900 		ldrsb	r0, [r6, r9]
 2286 0100 CBEB0000 		rsb	r0, fp, r0
 2287 0104 FFF7FEFF 		bl	__aeabi_i2f
 2288              	.LVL468:
 2289 0108 1799     		ldr	r1, [sp, #92]	@ float
 2290 010a FFF7FEFF 		bl	__aeabi_fmul
 2291              	.LVL469:
 2292 010e 0146     		mov	r1, r0
 2293 0110 0A98     		ldr	r0, [sp, #40]	@ float
 2294 0112 FFF7FEFF 		bl	__aeabi_fadd
 2295              	.LVL470:
 2296 0116 1999     		ldr	r1, [sp, #100]	@ float
 2297 0118 FFF7FEFF 		bl	__aeabi_fdiv
 2298              	.LVL471:
 2299 011c 0146     		mov	r1, r0
 2300 011e 0898     		ldr	r0, [sp, #32]	@ float
 2301 0120 FFF7FEFF 		bl	__aeabi_fadd
 2302              	.LVL472:
 2303 0124 FFF7FEFF 		bl	__aeabi_f2iz
 2304              	.LVL473:
 2305 0128 07F80900 		strb	r0, [r7, r9]
 2306 012c 0334     		adds	r4, r4, #3
 2307              	.LVL474:
 311:.\tm_layers.c ****         res[i] = TM_QUANT(TM_DEQUANT(d0[i],in_s0,in_zp0)+TM_DEQUANT(d1[i],in_s1,in_zp1), out_s, out
 2308              		.loc 1 311 0
 2309 012e 2857     		ldrsb	r0, [r5, r4]
 2310 0130 C8EB0000 		rsb	r0, r8, r0
 2311 0134 FFF7FEFF 		bl	__aeabi_i2f
 2312              	.LVL475:
 2313 0138 0799     		ldr	r1, [sp, #28]	@ float
ARM GAS  C:\Users\kuzni\AppData\Local\Temp\ccqUPoDe.s 			page 59


 2314 013a FFF7FEFF 		bl	__aeabi_fmul
 2315              	.LVL476:
 2316 013e 8146     		mov	r9, r0
 2317 0140 3057     		ldrsb	r0, [r6, r4]
 2318 0142 CBEB0000 		rsb	r0, fp, r0
 2319 0146 FFF7FEFF 		bl	__aeabi_i2f
 2320              	.LVL477:
 2321 014a 1799     		ldr	r1, [sp, #92]	@ float
 2322 014c FFF7FEFF 		bl	__aeabi_fmul
 2323              	.LVL478:
 2324 0150 0146     		mov	r1, r0
 2325 0152 4846     		mov	r0, r9
 2326 0154 FFF7FEFF 		bl	__aeabi_fadd
 2327              	.LVL479:
 2328 0158 1999     		ldr	r1, [sp, #100]	@ float
 2329 015a FFF7FEFF 		bl	__aeabi_fdiv
 2330              	.LVL480:
 2331 015e 0146     		mov	r1, r0
 2332 0160 0898     		ldr	r0, [sp, #32]	@ float
 2333 0162 FFF7FEFF 		bl	__aeabi_fadd
 2334              	.LVL481:
 2335 0166 FFF7FEFF 		bl	__aeabi_f2iz
 2336              	.LVL482:
 2337 016a 3855     		strb	r0, [r7, r4]
 2338              	.LVL483:
 2339 016c 5446     		mov	r4, r10
 2340              	.LVL484:
 2341              	.L149:
 307:.\tm_layers.c ****         res[i] = TM_QUANT(TM_DEQUANT(d0[i],in_s0,in_zp0)+TM_DEQUANT(d1[i],in_s1,in_zp1), out_s, out
 2342              		.loc 1 307 0 discriminator 1
 2343 016e 04F1040A 		add	r10, r4, #4
 2344 0172 0B9B     		ldr	r3, [sp, #44]
 2345 0174 9A45     		cmp	r10, r3
 2346 0176 7FF76CAF 		ble	.L150
 2347 017a 9A46     		mov	r10, r3
 2348 017c 23E0     		b	.L151
 2349              	.L152:
 312:.\tm_layers.c ****     }
 313:.\tm_layers.c ****     for(; i<size; i++){
 314:.\tm_layers.c ****         res[i] = TM_QUANT(TM_DEQUANT(d0[i],in_s0,in_zp0)+TM_DEQUANT(d1[i],in_s1,in_zp1), out_s, out
 2350              		.loc 1 314 0 discriminator 2
 2351 017e 2857     		ldrsb	r0, [r5, r4]
 2352 0180 C8EB0000 		rsb	r0, r8, r0
 2353 0184 FFF7FEFF 		bl	__aeabi_i2f
 2354              	.LVL485:
 2355 0188 0799     		ldr	r1, [sp, #28]	@ float
 2356 018a FFF7FEFF 		bl	__aeabi_fmul
 2357              	.LVL486:
 2358 018e 8146     		mov	r9, r0
 2359 0190 3057     		ldrsb	r0, [r6, r4]
 2360 0192 CBEB0000 		rsb	r0, fp, r0
 2361 0196 FFF7FEFF 		bl	__aeabi_i2f
 2362              	.LVL487:
 2363 019a 1799     		ldr	r1, [sp, #92]	@ float
 2364 019c FFF7FEFF 		bl	__aeabi_fmul
 2365              	.LVL488:
 2366 01a0 0146     		mov	r1, r0
ARM GAS  C:\Users\kuzni\AppData\Local\Temp\ccqUPoDe.s 			page 60


 2367 01a2 4846     		mov	r0, r9
 2368 01a4 FFF7FEFF 		bl	__aeabi_fadd
 2369              	.LVL489:
 2370 01a8 1999     		ldr	r1, [sp, #100]	@ float
 2371 01aa FFF7FEFF 		bl	__aeabi_fdiv
 2372              	.LVL490:
 2373 01ae 8146     		mov	r9, r0
 2374 01b0 1A98     		ldr	r0, [sp, #104]
 2375 01b2 FFF7FEFF 		bl	__aeabi_i2f
 2376              	.LVL491:
 2377 01b6 0146     		mov	r1, r0
 2378 01b8 4846     		mov	r0, r9
 2379 01ba FFF7FEFF 		bl	__aeabi_fadd
 2380              	.LVL492:
 2381 01be FFF7FEFF 		bl	__aeabi_f2iz
 2382              	.LVL493:
 2383 01c2 3855     		strb	r0, [r7, r4]
 313:.\tm_layers.c ****         res[i] = TM_QUANT(TM_DEQUANT(d0[i],in_s0,in_zp0)+TM_DEQUANT(d1[i],in_s1,in_zp1), out_s, out
 2384              		.loc 1 313 0 discriminator 2
 2385 01c4 0134     		adds	r4, r4, #1
 2386              	.LVL494:
 2387              	.L151:
 313:.\tm_layers.c ****         res[i] = TM_QUANT(TM_DEQUANT(d0[i],in_s0,in_zp0)+TM_DEQUANT(d1[i],in_s1,in_zp1), out_s, out
 2388              		.loc 1 313 0 is_stmt 0 discriminator 1
 2389 01c6 5445     		cmp	r4, r10
 2390 01c8 D9DB     		blt	.L152
 315:.\tm_layers.c ****     }
 316:.\tm_layers.c **** #else
 317:.\tm_layers.c ****     #error "ADD not support this data type yet"
 318:.\tm_layers.c **** #endif
 319:.\tm_layers.c ****     return TM_OK;
 320:.\tm_layers.c **** }
 2391              		.loc 1 320 0 is_stmt 1
 2392 01ca 0020     		movs	r0, #0
 2393 01cc 0DB0     		add	sp, sp, #52
 2394              		.cfi_def_cfa_offset 36
 2395              		@ sp needed
 2396 01ce BDE8F08F 		pop	{r4, r5, r6, r7, r8, r9, r10, fp, pc}
 2397              	.LVL495:
 2398              	.L155:
 2399 01d2 00BF     		.align	2
 2400              	.L154:
 2401 01d4 00000000 		.word	.LC0
 2402              		.cfi_endproc
 2403              	.LFE11:
 2404              		.size	tml_add, .-tml_add
 2405              		.section	.rodata.str1.4,"aMS",%progbits,1
 2406              		.align	2
 2407              	.LC0:
 2408 0000 73303D25 		.ascii	"s0=%.3f,zp0=%d; s1=%.3f,zp1=%d\015\012\000"
 2408      2E33662C 
 2408      7A70303D 
 2408      25643B20 
 2408      73313D25 
 2409 0021 000000   		.bss
 2410              		.align	2
 2411              		.set	.LANCHOR0,. + 0
ARM GAS  C:\Users\kuzni\AppData\Local\Temp\ccqUPoDe.s 			page 61


 2412              		.set	.LANCHOR1,. + 4344
 2413              		.type	sbuf, %object
 2414              		.size	sbuf, 2304
 2415              	sbuf:
 2416 0000 00000000 		.space	2304
 2416      00000000 
 2416      00000000 
 2416      00000000 
 2416      00000000 
 2417              		.type	sumscale, %object
 2418              		.size	sumscale, 4000
 2419              	sumscale:
 2420 0900 00000000 		.space	4000
 2420      00000000 
 2420      00000000 
 2420      00000000 
 2420      00000000 
 2421              		.type	k_oft, %object
 2422              		.size	k_oft, 100
 2423              	k_oft:
 2424 18a0 00000000 		.space	100
 2424      00000000 
 2424      00000000 
 2424      00000000 
 2424      00000000 
 2425              		.text
 2426              	.Letext0:
 2427              		.file 4 "c:\\program files (x86)\\cypress\\psoc creator\\3.3\\psoc creator\\import\\gnu\\arm\\4.9.
 2428              		.file 5 "c:\\program files (x86)\\cypress\\psoc creator\\3.3\\psoc creator\\import\\gnu\\arm\\4.9.
 2429              		.file 6 "c:\\program files (x86)\\cypress\\psoc creator\\3.3\\psoc creator\\import\\gnu\\arm\\4.9.
 2430              		.file 7 "c:\\program files (x86)\\cypress\\psoc creator\\3.3\\psoc creator\\import\\gnu\\arm\\4.9.
 2431              		.file 8 "c:\\program files (x86)\\cypress\\psoc creator\\3.3\\psoc creator\\import\\gnu\\arm\\4.9.