ARM GAS  C:\Users\kuzni\AppData\Local\Temp\ccqUPoDe.s 			page 1


   1              		.syntax unified
   2              		.cpu cortex-m3
   3              		.fpu softvfp
   4              		.eabi_attribute 20, 1
   5              		.eabi_attribute 21, 1
   6              		.eabi_attribute 23, 3
   7              		.eabi_attribute 24, 1
   8              		.eabi_attribute 25, 1
   9              		.eabi_attribute 26, 1
  10              		.eabi_attribute 30, 1
  11              		.eabi_attribute 34, 1
  12              		.eabi_attribute 18, 4
  13              		.thumb
  14              		.file	"tm_layers.c"
  15              		.text
  16              	.Ltext0:
  17              		.cfi_sections	.debug_frame
  18              		.global	__aeabi_fdiv
  19              		.global	__aeabi_fmul
  20              		.global	__aeabi_i2f
  21              		.global	__aeabi_fcmpgt
  22              		.global	__aeabi_fadd
  23              		.global	__aeabi_f2iz
  24              		.section	.text.tml_conv2d_dwconv2d,"ax",%progbits
  25              		.align	2
  26              		.weak	tml_conv2d_dwconv2d
  27              		.thumb
  28              		.thumb_func
  29              		.type	tml_conv2d_dwconv2d, %function
  30              	tml_conv2d_dwconv2d:
  31              	.LFB6:
  32              		.file 1 ".\\tm_layers.c"
   1:.\tm_layers.c **** /* Copyright 2022 Sipeed Technology Co., Ltd. All Rights Reserved.
   2:.\tm_layers.c **** Licensed under the Apache License, Version 2.0 (the "License");
   3:.\tm_layers.c **** you may not use this file except in compliance with the License.
   4:.\tm_layers.c **** You may obtain a copy of the License at
   5:.\tm_layers.c ****     http://www.apache.org/licenses/LICENSE-2.0
   6:.\tm_layers.c **** Unless required by applicable law or agreed to in writing, software
   7:.\tm_layers.c **** distributed under the License is distributed on an "AS IS" BASIS,
   8:.\tm_layers.c **** WITHOUT WARRANTIES OR CONDITIONS OF ANY KIND, either express or implied.
   9:.\tm_layers.c **** See the License for the specific language governing permissions and
  10:.\tm_layers.c **** limitations under the License.
  11:.\tm_layers.c **** ==============================================================================*/
  12:.\tm_layers.c **** // It is default O0 implement
  13:.\tm_layers.c **** #include "tinymaix.h"
  14:.\tm_layers.c **** #include "float.h"
  15:.\tm_layers.c **** #include "math.h"
  16:.\tm_layers.c **** 
  17:.\tm_layers.c **** #if TM_OPT_LEVEL == TM_OPT0
  18:.\tm_layers.c **** 
  19:.\tm_layers.c **** #if TM_ARCH==TM_ARCH_CPU
  20:.\tm_layers.c ****     #include "arch_cpu.h"
  21:.\tm_layers.c **** #elif TM_ARCH==TM_ARCH_ARM_SIMD
  22:.\tm_layers.c ****     #include "arch_arm_simd.h"
  23:.\tm_layers.c **** #elif TM_ARCH==TM_ARCH_ARM_NEON
  24:.\tm_layers.c ****     #include "arch_arm_neon.h"
  25:.\tm_layers.c **** #elif TM_ARCH==TM_ARCH_ARM_MVEI
ARM GAS  C:\Users\kuzni\AppData\Local\Temp\ccqUPoDe.s 			page 2


  26:.\tm_layers.c ****     #include "arch_arm_mvei.h"
  27:.\tm_layers.c **** #elif TM_ARCH==TM_ARCH_RV32P
  28:.\tm_layers.c ****     #include "arch_rv32p.h"
  29:.\tm_layers.c **** #elif TM_ARCH==TM_ARCH_RV64V
  30:.\tm_layers.c ****     #include "arch_rv64v.h"
  31:.\tm_layers.c **** #elif TM_ARCH==TM_ARCH_CSKYV2
  32:.\tm_layers.c ****     #include "arch_cskyv2.h"
  33:.\tm_layers.c **** #elif TM_ARCH==TM_ARCH_X86_SSE2
  34:.\tm_layers.c ****     #include "arch_x86_sse2.h"
  35:.\tm_layers.c **** #else
  36:.\tm_layers.c ****     #error "UNSUPPORT ARCH!"
  37:.\tm_layers.c **** #endif
  38:.\tm_layers.c **** 
  39:.\tm_layers.c **** 
  40:.\tm_layers.c **** TM_PERF_REG(t_sbuf);TM_PERF_REG(t_dotp);TM_PERF_REG(t_post); 
  41:.\tm_layers.c **** TM_PERF_REG(t_valid); TM_PERF_REG(t_pad); 
  42:.\tm_layers.c **** TM_PERF_REG(t_conv); TM_PERF_REG(t_pwconv); TM_PERF_REG(t_dwconv); 
  43:.\tm_layers.c **** 
  44:.\tm_layers.c **** /*************************** TML_CONV2D **********************************/
  45:.\tm_layers.c **** TM_STATIC uint32_t k_oft[TM_MAX_KSIZE]; 
  46:.\tm_layers.c **** TM_STATIC mtype_t sbuf[TM_MAX_KCSIZE]; 
  47:.\tm_layers.c **** #if (TM_MDL_TYPE==TM_MDL_FP32) || (TM_MDL_TYPE==TM_MDL_FP16) 
  48:.\tm_layers.c **** #define SUMSCALE NULL
  49:.\tm_layers.c **** #define OUTSCALE outscale
  50:.\tm_layers.c **** 
  51:.\tm_layers.c **** #elif (TM_MDL_TYPE==TM_MDL_INT8) || (TM_MDL_TYPE==TM_MDL_INT16) 
  52:.\tm_layers.c **** 
  53:.\tm_layers.c **** #if TM_FASTSCALE
  54:.\tm_layers.c ****     TM_STATIC int32_t sumscale[TM_MAX_CSIZE];
  55:.\tm_layers.c ****     #define OUTSCALE outscale
  56:.\tm_layers.c **** #else
  57:.\tm_layers.c ****     TM_STATIC float sumscale[TM_MAX_CSIZE];
  58:.\tm_layers.c ****     #define OUTSCALE outscale_inv
  59:.\tm_layers.c **** #endif
  60:.\tm_layers.c **** #define SUMSCALE (sumscale + c)
  61:.\tm_layers.c **** #endif
  62:.\tm_layers.c ****  
  63:.\tm_layers.c **** //for valid or kernel in valid part, use fast method
  64:.\tm_layers.c **** tm_err_t TM_WEAK tml_conv2d_dwconv2d(tm_mat_t* in, tm_mat_t* out, wtype_t* w, btype_t* b, \
  65:.\tm_layers.c ****     int kw, int kh, int sx, int sy, int dx, int dy, int act, \
  66:.\tm_layers.c ****     int pad_top, int pad_bottom, int pad_left, int pad_right, int dmul, \
  67:.\tm_layers.c ****     sctype_t* ws, sctype_t in_s, zptype_t in_zp, sctype_t out_s, zptype_t out_zp) //kernel: (cho, c
  68:.\tm_layers.c **** {   TM_PERF_INIT(t_sbuf);TM_PERF_INIT(t_dotp);TM_PERF_INIT(t_post);
  33              		.loc 1 68 0
  34              		.cfi_startproc
  35              		@ args = 68, pretend = 0, frame = 64
  36              		@ frame_needed = 0, uses_anonymous_args = 0
  37              	.LVL0:
  38 0000 2DE9F04F 		push	{r4, r5, r6, r7, r8, r9, r10, fp, lr}
  39              		.cfi_def_cfa_offset 36
  40              		.cfi_offset 4, -36
  41              		.cfi_offset 5, -32
  42              		.cfi_offset 6, -28
  43              		.cfi_offset 7, -24
  44              		.cfi_offset 8, -20
  45              		.cfi_offset 9, -16
  46              		.cfi_offset 10, -12
ARM GAS  C:\Users\kuzni\AppData\Local\Temp\ccqUPoDe.s 			page 3


  47              		.cfi_offset 11, -8
  48              		.cfi_offset 14, -4
  49 0004 91B0     		sub	sp, sp, #68
  50              		.cfi_def_cfa_offset 104
  51 0006 0590     		str	r0, [sp, #20]
  52 0008 0091     		str	r1, [sp]
  53 000a 0192     		str	r2, [sp, #4]
  54 000c 0393     		str	r3, [sp, #12]
  55 000e 1A9F     		ldr	r7, [sp, #104]
  69:.\tm_layers.c ****     TM_PERF_INIT(t_valid);TM_PERF_INIT(t_pad);
  70:.\tm_layers.c ****     TM_PERF_INIT(t_conv); TM_PERF_INIT(t_pwconv); TM_PERF_INIT(t_dwconv);
  71:.\tm_layers.c ****     int pad_flag = (pad_top != 0 ||pad_bottom != 0 ||pad_left != 0 ||pad_right != 0);
  56              		.loc 1 71 0
  57 0010 219B     		ldr	r3, [sp, #132]
  58              	.LVL1:
  59 0012 3BB9     		cbnz	r3, .L85
  60              		.loc 1 71 0 is_stmt 0 discriminator 2
  61 0014 229B     		ldr	r3, [sp, #136]
  62 0016 3BB9     		cbnz	r3, .L86
  63              		.loc 1 71 0 discriminator 4
  64 0018 239B     		ldr	r3, [sp, #140]
  65 001a 3BB9     		cbnz	r3, .L87
  66              		.loc 1 71 0 discriminator 6
  67 001c 249B     		ldr	r3, [sp, #144]
  68 001e 3BB1     		cbz	r3, .L88
  69              		.loc 1 71 0
  70 0020 0122     		movs	r2, #1
  71              	.LVL2:
  72 0022 06E0     		b	.L2
  73              	.LVL3:
  74              	.L85:
  75 0024 0122     		movs	r2, #1
  76              	.LVL4:
  77 0026 04E0     		b	.L2
  78              	.LVL5:
  79              	.L86:
  80 0028 0122     		movs	r2, #1
  81              	.LVL6:
  82 002a 02E0     		b	.L2
  83              	.LVL7:
  84              	.L87:
  85 002c 0122     		movs	r2, #1
  86              	.LVL8:
  87 002e 00E0     		b	.L2
  88              	.LVL9:
  89              	.L88:
  90 0030 0022     		movs	r2, #0
  91              	.LVL10:
  92              	.L2:
  72:.\tm_layers.c ****     if(dx!=1 || dy!= 1) return TM_ERR_TODO;
  93              		.loc 1 72 0 is_stmt 1 discriminator 10
  94 0032 1E9B     		ldr	r3, [sp, #120]
  95 0034 012B     		cmp	r3, #1
  96 0036 40F0E783 		bne	.L89
  97              		.loc 1 72 0 is_stmt 0 discriminator 2
  98 003a 1F9B     		ldr	r3, [sp, #124]
  99 003c 012B     		cmp	r3, #1
ARM GAS  C:\Users\kuzni\AppData\Local\Temp\ccqUPoDe.s 			page 4


 100 003e 40F0E583 		bne	.L90
  73:.\tm_layers.c ****     if(act >= TM_ACT_MAXCNT) return TM_ERR_UNSUPPORT;
 101              		.loc 1 73 0 is_stmt 1
 102 0042 209B     		ldr	r3, [sp, #128]
 103 0044 052B     		cmp	r3, #5
 104 0046 00F3E383 		bgt	.L91
  74:.\tm_layers.c ****     int maxk = kw*kh;
 105              		.loc 1 74 0
 106 004a 1B9B     		ldr	r3, [sp, #108]
 107 004c 03FB07FB 		mul	fp, r3, r7
 108              	.LVL11:
  75:.\tm_layers.c ****     if(maxk>TM_MAX_KSIZE) return TM_ERR_KSIZE;
 109              		.loc 1 75 0
 110 0050 BBF1190F 		cmp	fp, #25
 111 0054 00F3DE83 		bgt	.L92
  76:.\tm_layers.c ****     if(maxk==1 && (pad_flag||dmul)) return TM_ERR_UNSUPPORT;   //assume no pad or dwconv when pwcon
 112              		.loc 1 76 0
 113 0058 BBF1010F 		cmp	fp, #1
 114 005c 06D1     		bne	.L4
 115              		.loc 1 76 0 is_stmt 0 discriminator 1
 116 005e 002A     		cmp	r2, #0
 117 0060 40F0DA83 		bne	.L93
 118              		.loc 1 76 0 discriminator 3
 119 0064 259B     		ldr	r3, [sp, #148]
 120 0066 002B     		cmp	r3, #0
 121 0068 40F0D883 		bne	.L94
 122              	.L4:
  77:.\tm_layers.c ****     int chi  = in->c;
 123              		.loc 1 77 0 is_stmt 1
 124 006c 059B     		ldr	r3, [sp, #20]
 125 006e B3F80690 		ldrh	r9, [r3, #6]
 126 0072 CDF80890 		str	r9, [sp, #8]
 127              	.LVL12:
  78:.\tm_layers.c ****     int cho  = out->c;
 128              		.loc 1 78 0
 129 0076 009A     		ldr	r2, [sp]
 130              	.LVL13:
 131 0078 D388     		ldrh	r3, [r2, #6]
 132 007a 0893     		str	r3, [sp, #32]
 133              	.LVL14:
  79:.\tm_layers.c ****     sumtype_t sum = 0;
 134              		.loc 1 79 0
 135 007c 0024     		movs	r4, #0
 136 007e 0F94     		str	r4, [sp, #60]
  80:.\tm_layers.c ****     mtype_t* outp = out->data;
 137              		.loc 1 80 0
 138 0080 9368     		ldr	r3, [r2, #8]
 139              	.LVL15:
 140 0082 0493     		str	r3, [sp, #16]
 141              	.LVL16:
  81:.\tm_layers.c **** 
  82:.\tm_layers.c **** #if (TM_MDL_TYPE == TM_MDL_INT8) || (TM_MDL_TYPE == TM_MDL_INT16)
  83:.\tm_layers.c **** #if TM_FASTSCALE
  84:.\tm_layers.c **** 	int32_t outscale = (1<<TM_FASTSCALE_SHIFT)/out_s;
  85:.\tm_layers.c **** 	for(int c=0; c<out->c;c++) sumscale[c]=1.0/ws[c]/in_s;
  86:.\tm_layers.c **** #else
  87:.\tm_layers.c **** 	sctype_t outscale = out_s;
ARM GAS  C:\Users\kuzni\AppData\Local\Temp\ccqUPoDe.s 			page 5


  88:.\tm_layers.c ****     sctype_t outscale_inv = 1.f / outscale;
 142              		.loc 1 88 0
 143 0084 4FF07E50 		mov	r0, #1065353216
 144              	.LVL17:
 145 0088 2999     		ldr	r1, [sp, #164]	@ float
 146              	.LVL18:
 147 008a FFF7FEFF 		bl	__aeabi_fdiv
 148              	.LVL19:
 149 008e 0690     		str	r0, [sp, #24]	@ float
 150              	.LVL20:
  89:.\tm_layers.c ****     int c;
  90:.\tm_layers.c **** 	for(c=0; c<out->c;c++) sumscale[c]=ws[c]*in_s;
 151              		.loc 1 90 0
 152 0090 0BE0     		b	.L5
 153              	.LVL21:
 154              	.L6:
 155              		.loc 1 90 0 is_stmt 0 discriminator 3
 156 0092 269B     		ldr	r3, [sp, #152]
 157 0094 53F82400 		ldr	r0, [r3, r4, lsl #2]	@ float
 158 0098 2799     		ldr	r1, [sp, #156]	@ float
 159 009a FFF7FEFF 		bl	__aeabi_fmul
 160              	.LVL22:
 161 009e BD4B     		ldr	r3, .L113
 162 00a0 03EB8403 		add	r3, r3, r4, lsl #2
 163 00a4 C3F80009 		str	r0, [r3, #2304]	@ float
 164 00a8 0134     		adds	r4, r4, #1
 165              	.LVL23:
 166              	.L5:
 167              		.loc 1 90 0 discriminator 1
 168 00aa 009B     		ldr	r3, [sp]
 169 00ac DB88     		ldrh	r3, [r3, #6]
 170 00ae A342     		cmp	r3, r4
 171 00b0 EFDC     		bgt	.L6
  91:.\tm_layers.c **** #endif
  92:.\tm_layers.c **** #else
  93:.\tm_layers.c **** 	sctype_t outscale = out_s;
  94:.\tm_layers.c **** #endif
  95:.\tm_layers.c **** 
  96:.\tm_layers.c ****     if(maxk==1){ TM_PERF_START(t_pwconv);   //pointwise conv
 172              		.loc 1 96 0 is_stmt 1
 173 00b2 BBF1010F 		cmp	fp, #1
 174 00b6 40F08481 		bne	.L95
 175              	.LVL24:
 176              	.LBB40:
  97:.\tm_layers.c ****         #define BATCH_SIZE 2
  98:.\tm_layers.c ****         sumtype_t sums[BATCH_SIZE];
  99:.\tm_layers.c ****         int c = 0;
 100:.\tm_layers.c ****         mtype_t* sptr = in->data;  // Add sptr declaration
 177              		.loc 1 100 0
 178 00ba 059B     		ldr	r3, [sp, #20]
 179 00bc D3F80880 		ldr	r8, [r3, #8]
 180              	.LVL25:
  99:.\tm_layers.c ****         mtype_t* sptr = in->data;  // Add sptr declaration
 181              		.loc 1 99 0
 182 00c0 4FF0000B 		mov	fp, #0
 183              	.LVL26:
 184 00c4 4746     		mov	r7, r8
ARM GAS  C:\Users\kuzni\AppData\Local\Temp\ccqUPoDe.s 			page 6


 185              	.LVL27:
 186 00c6 D846     		mov	r8, fp
 187              	.LVL28:
 101:.\tm_layers.c ****         wtype_t* kptr = w;         // Add kptr declaration
 102:.\tm_layers.c ****         for(; c<out->c-BATCH_SIZE+1; ){
 188              		.loc 1 102 0
 189 00c8 CAE0     		b	.L8
 190              	.LVL29:
 191              	.L13:
 192              	.LBB41:
 103:.\tm_layers.c ****             int bat;
 104:.\tm_layers.c ****             for(bat = 0; bat < BATCH_SIZE; bat+=2)
 105:.\tm_layers.c ****                 tm_dot_prod_pack2(sptr, kptr + chi*bat, chi, sums + bat);
 193              		.loc 1 105 0 discriminator 3
 194 00ca 029B     		ldr	r3, [sp, #8]
 195 00cc 019A     		ldr	r2, [sp, #4]
 196 00ce 0CFB0324 		mla	r4, ip, r3, r2
 197 00d2 CDF81490 		str	r9, [sp, #20]
 198 00d6 4FEA8C08 		lsl	r8, ip, #2
 199 00da 0DF1340E 		add	lr, sp, #52
 200 00de 0EEB0803 		add	r3, lr, r8
 201 00e2 0793     		str	r3, [sp, #28]
 202              	.LVL30:
 203              	.LBB42:
 204              	.LBB43:
 205              		.file 2 ".\\arch_cpu.h"
   1:.\arch_cpu.h  **** /* Copyright 2022 Sipeed Technology Co., Ltd. All Rights Reserved.
   2:.\arch_cpu.h  **** Licensed under the Apache License, Version 2.0 (the "License");
   3:.\arch_cpu.h  **** you may not use this file except in compliance with the License.
   4:.\arch_cpu.h  **** You may obtain a copy of the License at
   5:.\arch_cpu.h  ****     http://www.apache.org/licenses/LICENSE-2.0
   6:.\arch_cpu.h  **** Unless required by applicable law or agreed to in writing, software
   7:.\arch_cpu.h  **** distributed under the License is distributed on an "AS IS" BASIS,
   8:.\arch_cpu.h  **** WITHOUT WARRANTIES OR CONDITIONS OF ANY KIND, either express or implied.
   9:.\arch_cpu.h  **** See the License for the specific language governing permissions and
  10:.\arch_cpu.h  **** limitations under the License.
  11:.\arch_cpu.h  **** ==============================================================================*/
  12:.\arch_cpu.h  **** 
  13:.\arch_cpu.h  **** #include "stdlib.h"
  14:.\arch_cpu.h  **** #include "stdint.h"
  15:.\arch_cpu.h  **** #include "math.h"
  16:.\arch_cpu.h  **** #include "float.h"
  17:.\arch_cpu.h  **** #include "tinymaix.h"
  18:.\arch_cpu.h  **** 
  19:.\arch_cpu.h  **** #if (TM_MDL_TYPE != TM_MDL_FP8_143) && (TM_MDL_TYPE != TM_MDL_FP8_152)
  20:.\arch_cpu.h  **** //sum = SUM(Ai*Bi)
  21:.\arch_cpu.h  **** TM_INLINE void tm_dot_prod(mtype_t* sptr, mtype_t* kptr,uint32_t size, sumtype_t* result)
  22:.\arch_cpu.h  **** {
  23:.\arch_cpu.h  ****     sumtype_t sum=0;
  24:.\arch_cpu.h  ****     uint32_t i = 0;
  25:.\arch_cpu.h  ****     uint32_t cnt = (size>>3)<<3;  //8
  26:.\arch_cpu.h  ****     for(; i+8-1 <cnt; ){
  27:.\arch_cpu.h  ****         sum += sptr[i]*kptr[i];i++;
  28:.\arch_cpu.h  ****         sum += sptr[i]*kptr[i];i++;
  29:.\arch_cpu.h  ****         sum += sptr[i]*kptr[i];i++;
  30:.\arch_cpu.h  ****         sum += sptr[i]*kptr[i];i++;
  31:.\arch_cpu.h  ****         sum += sptr[i]*kptr[i];i++;
ARM GAS  C:\Users\kuzni\AppData\Local\Temp\ccqUPoDe.s 			page 7


  32:.\arch_cpu.h  ****         sum += sptr[i]*kptr[i];i++;
  33:.\arch_cpu.h  ****         sum += sptr[i]*kptr[i];i++;
  34:.\arch_cpu.h  ****         sum += sptr[i]*kptr[i];i++;
  35:.\arch_cpu.h  ****     }
  36:.\arch_cpu.h  ****     for(; i <size; i++){
  37:.\arch_cpu.h  ****         sum += sptr[i]*kptr[i]; 
  38:.\arch_cpu.h  ****     }
  39:.\arch_cpu.h  ****     *result = sum;
  40:.\arch_cpu.h  ****     return;
  41:.\arch_cpu.h  **** }
  42:.\arch_cpu.h  **** 
  43:.\arch_cpu.h  **** TM_INLINE  void tm_dot_prod_pack2(mtype_t* sptr, mtype_t* kptr, uint32_t size, sumtype_t* result)
  44:.\arch_cpu.h  **** { 
  45:.\arch_cpu.h  ****     sumtype_t sum0 = 0;
  46:.\arch_cpu.h  ****     sumtype_t sum1 = 0;
  47:.\arch_cpu.h  ****     mtype_t* kptr0 = kptr;
  48:.\arch_cpu.h  ****     mtype_t* kptr1 = kptr+size;
 206              		.loc 2 48 0 discriminator 3
 207 00e4 04EB0905 		add	r5, r4, r9
 208              	.LVL31:
  49:.\arch_cpu.h  **** 
  50:.\arch_cpu.h  ****     uint32_t i = 0;
  51:.\arch_cpu.h  ****     uint32_t cnt = (size>>3)<<3;  //8
 209              		.loc 2 51 0 discriminator 3
 210 00e8 29F00703 		bic	r3, r9, #7
 211              	.LVL32:
 212 00ec 0893     		str	r3, [sp, #32]
 213              	.LVL33:
  50:.\arch_cpu.h  ****     uint32_t cnt = (size>>3)<<3;  //8
 214              		.loc 2 50 0 discriminator 3
 215 00ee 0020     		movs	r0, #0
  46:.\arch_cpu.h  ****     mtype_t* kptr0 = kptr;
 216              		.loc 2 46 0 discriminator 3
 217 00f0 0146     		mov	r1, r0
  45:.\arch_cpu.h  ****     sumtype_t sum1 = 0;
 218              		.loc 2 45 0 discriminator 3
 219 00f2 8246     		mov	r10, r0
 220 00f4 46E0     		b	.L9
 221              	.LVL34:
 222              	.L10:
  52:.\arch_cpu.h  ****     for(; i+8-1 <cnt; ){
  53:.\arch_cpu.h  ****         sum0 += sptr[i]*kptr0[i]; sum1 += sptr[i]*kptr1[i]; i++;
 223              		.loc 2 53 0
 224 00f6 3A56     		ldrsb	r2, [r7, r0]
 225 00f8 2656     		ldrsb	r6, [r4, r0]
 226 00fa 06FB02A6 		mla	r6, r6, r2, r10
 227              	.LVL35:
 228 00fe 15F900A0 		ldrsb	r10, [r5, r0]
 229 0102 0AFB0211 		mla	r1, r10, r2, r1
 230              	.LVL36:
 231 0106 421C     		adds	r2, r0, #1
 232              	.LVL37:
  54:.\arch_cpu.h  ****         sum0 += sptr[i]*kptr0[i]; sum1 += sptr[i]*kptr1[i]; i++;
 233              		.loc 2 54 0
 234 0108 17F902A0 		ldrsb	r10, [r7, r2]
 235 010c 14F902B0 		ldrsb	fp, [r4, r2]
 236 0110 0BFB0A6B 		mla	fp, fp, r10, r6
ARM GAS  C:\Users\kuzni\AppData\Local\Temp\ccqUPoDe.s 			page 8


 237              	.LVL38:
 238 0114 AA56     		ldrsb	r2, [r5, r2]
 239              	.LVL39:
 240 0116 02FB0A11 		mla	r1, r2, r10, r1
 241              	.LVL40:
 242 011a 861C     		adds	r6, r0, #2
 243              	.LVL41:
  55:.\arch_cpu.h  ****         sum0 += sptr[i]*kptr0[i]; sum1 += sptr[i]*kptr1[i]; i++;
 244              		.loc 2 55 0
 245 011c BA57     		ldrsb	r2, [r7, r6]
 246 011e 14F906A0 		ldrsb	r10, [r4, r6]
 247 0122 0AFB02BB 		mla	fp, r10, r2, fp
 248              	.LVL42:
 249 0126 AE57     		ldrsb	r6, [r5, r6]
 250              	.LVL43:
 251 0128 06FB0211 		mla	r1, r6, r2, r1
 252              	.LVL44:
 253 012c C21C     		adds	r2, r0, #3
 254              	.LVL45:
  56:.\arch_cpu.h  ****         sum0 += sptr[i]*kptr0[i]; sum1 += sptr[i]*kptr1[i]; i++;
 255              		.loc 2 56 0
 256 012e BE56     		ldrsb	r6, [r7, r2]
 257 0130 14F902A0 		ldrsb	r10, [r4, r2]
 258 0134 0AFB06BB 		mla	fp, r10, r6, fp
 259              	.LVL46:
 260 0138 AA56     		ldrsb	r2, [r5, r2]
 261              	.LVL47:
 262 013a 02FB0611 		mla	r1, r2, r6, r1
 263              	.LVL48:
 264 013e 061D     		adds	r6, r0, #4
 265              	.LVL49:
  57:.\arch_cpu.h  ****         sum0 += sptr[i]*kptr0[i]; sum1 += sptr[i]*kptr1[i]; i++;
 266              		.loc 2 57 0
 267 0140 BA57     		ldrsb	r2, [r7, r6]
 268 0142 14F906A0 		ldrsb	r10, [r4, r6]
 269 0146 0AFB02BB 		mla	fp, r10, r2, fp
 270              	.LVL50:
 271 014a AE57     		ldrsb	r6, [r5, r6]
 272              	.LVL51:
 273 014c 06FB0211 		mla	r1, r6, r2, r1
 274              	.LVL52:
 275 0150 421D     		adds	r2, r0, #5
 276              	.LVL53:
  58:.\arch_cpu.h  ****         sum0 += sptr[i]*kptr0[i]; sum1 += sptr[i]*kptr1[i]; i++;
 277              		.loc 2 58 0
 278 0152 BE56     		ldrsb	r6, [r7, r2]
 279 0154 14F902A0 		ldrsb	r10, [r4, r2]
 280 0158 0AFB06BB 		mla	fp, r10, r6, fp
 281              	.LVL54:
 282 015c AA56     		ldrsb	r2, [r5, r2]
 283              	.LVL55:
 284 015e 02FB0611 		mla	r1, r2, r6, r1
 285              	.LVL56:
 286 0162 861D     		adds	r6, r0, #6
 287              	.LVL57:
  59:.\arch_cpu.h  ****         sum0 += sptr[i]*kptr0[i]; sum1 += sptr[i]*kptr1[i]; i++;
 288              		.loc 2 59 0
ARM GAS  C:\Users\kuzni\AppData\Local\Temp\ccqUPoDe.s 			page 9


 289 0164 BA57     		ldrsb	r2, [r7, r6]
 290 0166 14F906A0 		ldrsb	r10, [r4, r6]
 291 016a 0AFB02BB 		mla	fp, r10, r2, fp
 292              	.LVL58:
 293 016e AE57     		ldrsb	r6, [r5, r6]
 294              	.LVL59:
 295 0170 06FB0211 		mla	r1, r6, r2, r1
 296              	.LVL60:
  60:.\arch_cpu.h  ****         sum0 += sptr[i]*kptr0[i]; sum1 += sptr[i]*kptr1[i]; i++;
 297              		.loc 2 60 0
 298 0174 FA56     		ldrsb	r2, [r7, r3]
 299 0176 E656     		ldrsb	r6, [r4, r3]
 300 0178 06FB02BA 		mla	r10, r6, r2, fp
 301              	.LVL61:
 302 017c EB56     		ldrsb	r3, [r5, r3]
 303              	.LVL62:
 304 017e 03FB0211 		mla	r1, r3, r2, r1
 305              	.LVL63:
 306 0182 0830     		adds	r0, r0, #8
 307              	.LVL64:
 308              	.L9:
  52:.\arch_cpu.h  ****         sum0 += sptr[i]*kptr0[i]; sum1 += sptr[i]*kptr1[i]; i++;
 309              		.loc 2 52 0
 310 0184 C31D     		adds	r3, r0, #7
 311 0186 089A     		ldr	r2, [sp, #32]
 312 0188 9A42     		cmp	r2, r3
 313 018a B4D8     		bhi	.L10
 314 018c 07E0     		b	.L11
 315              	.L12:
  61:.\arch_cpu.h  ****     }
  62:.\arch_cpu.h  ****     for(; i <size; i++){
  63:.\arch_cpu.h  ****         sum0 += sptr[i]*kptr0[i]; 
 316              		.loc 2 63 0
 317 018e 3B56     		ldrsb	r3, [r7, r0]
 318 0190 2256     		ldrsb	r2, [r4, r0]
 319 0192 02FB03AA 		mla	r10, r2, r3, r10
 320              	.LVL65:
  64:.\arch_cpu.h  ****         sum1 += sptr[i]*kptr1[i]; 
 321              		.loc 2 64 0
 322 0196 2A56     		ldrsb	r2, [r5, r0]
 323 0198 02FB0311 		mla	r1, r2, r3, r1
 324              	.LVL66:
  62:.\arch_cpu.h  ****         sum0 += sptr[i]*kptr0[i]; 
 325              		.loc 2 62 0
 326 019c 0130     		adds	r0, r0, #1
 327              	.LVL67:
 328              	.L11:
 329 019e 059B     		ldr	r3, [sp, #20]
 330 01a0 8342     		cmp	r3, r0
 331 01a2 F4D8     		bhi	.L12
  65:.\arch_cpu.h  ****     }
  66:.\arch_cpu.h  **** 
  67:.\arch_cpu.h  ****     result[0] = sum0;
 332              		.loc 2 67 0
 333 01a4 4EF808A0 		str	r10, [lr, r8]
  68:.\arch_cpu.h  ****     result[1] = sum1;
 334              		.loc 2 68 0
ARM GAS  C:\Users\kuzni\AppData\Local\Temp\ccqUPoDe.s 			page 10


 335 01a8 079B     		ldr	r3, [sp, #28]
 336 01aa 5960     		str	r1, [r3, #4]
 337              	.LBE43:
 338              	.LBE42:
 104:.\tm_layers.c ****                 tm_dot_prod_pack2(sptr, kptr + chi*bat, chi, sums + bat);
 339              		.loc 1 104 0
 340 01ac 0CF1020C 		add	ip, ip, #2
 341              	.LVL68:
 342 01b0 03E0     		b	.L21
 343              	.LVL69:
 344              	.L96:
 345              	.LBE41:
 346 01b2 4FF0000C 		mov	ip, #0
 347 01b6 CDF82480 		str	r8, [sp, #36]
 348              	.LVL70:
 349              	.L21:
 350              	.LBB47:
 104:.\tm_layers.c ****                 tm_dot_prod_pack2(sptr, kptr + chi*bat, chi, sums + bat);
 351              		.loc 1 104 0 is_stmt 0 discriminator 1
 352 01ba BCF1010F 		cmp	ip, #1
 353 01be 84DD     		ble	.L13
 354 01c0 DDF82480 		ldr	r8, [sp, #36]
 106:.\tm_layers.c ****             tm_postprocess_sum(BATCH_SIZE, sums, b + c, act, outp, SUMSCALE, OUTSCALE, out_zp);
 355              		.loc 1 106 0 is_stmt 1
 356 01c4 4FEA8806 		lsl	r6, r8, #2
 357              	.LVL71:
 358              	.LBB44:
 359              	.LBB45:
  69:.\arch_cpu.h  ****     return;
  70:.\arch_cpu.h  **** }
  71:.\arch_cpu.h  **** 
  72:.\arch_cpu.h  **** TM_INLINE void tm_dot_prod_gap_3x3x1(mtype_t* sptr, mtype_t* kptr, uint32_t* k_oft, sumtype_t* resu
  73:.\arch_cpu.h  **** {
  74:.\arch_cpu.h  ****     *result = sptr[k_oft[0]]*kptr[0] + sptr[k_oft[1]]*kptr[1] + sptr[k_oft[2]]*kptr[2] + \
  75:.\arch_cpu.h  ****         sptr[k_oft[3]]*kptr[3] + sptr[k_oft[4]]*kptr[4] + sptr[k_oft[5]]*kptr[5] + \
  76:.\arch_cpu.h  ****         sptr[k_oft[6]]*kptr[6] + sptr[k_oft[7]]*kptr[7] + sptr[k_oft[8]]*kptr[8] ;
  77:.\arch_cpu.h  ****     return;                  
  78:.\arch_cpu.h  **** }
  79:.\arch_cpu.h  **** 
  80:.\arch_cpu.h  **** TM_INLINE void tm_dot_prod_3x3x1(mtype_t* sptr, mtype_t* kptr, sumtype_t* result)
  81:.\arch_cpu.h  **** {
  82:.\arch_cpu.h  ****     *result = sptr[0]*kptr[0] + sptr[1]*kptr[1] + sptr[2]*kptr[2] + \
  83:.\arch_cpu.h  ****         sptr[3]*kptr[3] + sptr[4]*kptr[4] + sptr[5]*kptr[5] + \
  84:.\arch_cpu.h  ****         sptr[6]*kptr[6] + sptr[7]*kptr[7] + sptr[8]*kptr[8] ;
  85:.\arch_cpu.h  ****     return;
  86:.\arch_cpu.h  **** }
  87:.\arch_cpu.h  **** 
  88:.\arch_cpu.h  **** 
  89:.\arch_cpu.h  **** 
  90:.\arch_cpu.h  **** #else
  91:.\arch_cpu.h  **** /*************************** FP8 SIMULATION **********************************/
  92:.\arch_cpu.h  **** #define SUMSCALE 1.0
  93:.\arch_cpu.h  **** 
  94:.\arch_cpu.h  **** TM_INLINE void tm_dot_prod(mtype_t* sptr, mtype_t* kptr,uint32_t size, sumtype_t* result)
  95:.\arch_cpu.h  **** {
  96:.\arch_cpu.h  ****     sumtype_t sum=0;
  97:.\arch_cpu.h  ****     int i;
ARM GAS  C:\Users\kuzni\AppData\Local\Temp\ccqUPoDe.s 			page 11


  98:.\arch_cpu.h  ****     for(i=0; i <size; i++){
  99:.\arch_cpu.h  ****         float _s = tm_fp8to32(sptr[i]);
 100:.\arch_cpu.h  ****         float _k = tm_fp8to32(kptr[i]);
 101:.\arch_cpu.h  ****         sum += _s*_k;
 102:.\arch_cpu.h  ****         //printf("%.3f*%.3f+",_s,_k);
 103:.\arch_cpu.h  ****     }
 104:.\arch_cpu.h  ****     //printf("\r\n");
 105:.\arch_cpu.h  ****     *result = sum;
 106:.\arch_cpu.h  ****     return;
 107:.\arch_cpu.h  **** }
 108:.\arch_cpu.h  **** 
 109:.\arch_cpu.h  **** TM_INLINE void tm_postprocess_sum(sumtype_t sum, btype_t b, int act, mtype_t* outp, \
 110:.\arch_cpu.h  ****     sctype_t scale, sctype_t out_s, zptype_t out_zp)
 111:.\arch_cpu.h  **** {   //printf("sum=%.6f,", sum);
 112:.\arch_cpu.h  ****     sum += tm_fp8to32(b); //printf("%.6f,", sum);
 113:.\arch_cpu.h  ****     switch(act){    //activation func
 114:.\arch_cpu.h  ****     case TM_ACT_RELU:
 115:.\arch_cpu.h  ****         sum = sum>0?sum:0;
 116:.\arch_cpu.h  ****         break;
 117:.\arch_cpu.h  ****     case TM_ACT_RELU6:
 118:.\arch_cpu.h  ****         sum = sum>0?sum:0;
 119:.\arch_cpu.h  ****         sum = sum>6?6:sum;
 120:.\arch_cpu.h  ****         break;
 121:.\arch_cpu.h  ****     default:
 122:.\arch_cpu.h  ****         break;
 123:.\arch_cpu.h  ****     }
 124:.\arch_cpu.h  ****     //printf("%.6f,", sum);
 125:.\arch_cpu.h  ****     *outp = tm_fp32to8(sum);
 126:.\arch_cpu.h  ****     //printf("  %02x,%.6f\r\n", *outp, tm_fp8to32(*outp));
 127:.\arch_cpu.h  ****     return;
 128:.\arch_cpu.h  **** }
 129:.\arch_cpu.h  **** 
 130:.\arch_cpu.h  **** #endif
 131:.\arch_cpu.h  **** 
 132:.\arch_cpu.h  **** #if (TM_MDL_TYPE==TM_MDL_FP32) || (TM_MDL_TYPE==TM_MDL_FP16) 
 133:.\arch_cpu.h  **** 
 134:.\arch_cpu.h  **** TM_INLINE void tm_postprocess_sum(int n, sumtype_t* sums, btype_t* bs, int act, mtype_t* outp, \
 135:.\arch_cpu.h  ****     sctype_t* scales, sctype_t out_s, zptype_t out_zp)
 136:.\arch_cpu.h  **** {
 137:.\arch_cpu.h  ****     int i;
 138:.\arch_cpu.h  ****     for(i = 0; i < n; i++) {
 139:.\arch_cpu.h  ****         sumtype_t sum = sums[i];
 140:.\arch_cpu.h  ****         sum += bs[i];
 141:.\arch_cpu.h  ****         switch(act){    //activation func
 142:.\arch_cpu.h  ****         case TM_ACT_RELU:
 143:.\arch_cpu.h  ****         case TM_ACT_RELU6: //treat relu6 as relu in float mode //speed up
 144:.\arch_cpu.h  ****             sum = sum>0?sum:0;
 145:.\arch_cpu.h  ****             break;
 146:.\arch_cpu.h  ****         //    sum = sum>0?sum:0;
 147:.\arch_cpu.h  ****         //    sum = sum>6?6:sum;
 148:.\arch_cpu.h  ****         //    break;
 149:.\arch_cpu.h  ****         default:
 150:.\arch_cpu.h  ****             break;
 151:.\arch_cpu.h  ****         }
 152:.\arch_cpu.h  ****         outp[i] = (mtype_t)sum;
 153:.\arch_cpu.h  ****     }
 154:.\arch_cpu.h  ****     return;
ARM GAS  C:\Users\kuzni\AppData\Local\Temp\ccqUPoDe.s 			page 12


 155:.\arch_cpu.h  **** }
 156:.\arch_cpu.h  **** 
 157:.\arch_cpu.h  **** #elif (TM_MDL_TYPE==TM_MDL_INT8) || (TM_MDL_TYPE==TM_MDL_INT16) 
 158:.\arch_cpu.h  **** 
 159:.\arch_cpu.h  **** #if !TM_FASTSCALE
 160:.\arch_cpu.h  **** TM_INLINE void tm_postprocess_sum(int n, sumtype_t* sums, btype_t* bs, int act, mtype_t* outp, scty
 161:.\arch_cpu.h  **** #else
 162:.\arch_cpu.h  **** TM_INLINE void tm_postprocess_sum(int n, sumtype_t* sums, btype_t* bs, int act, mtype_t* outp, int3
 163:.\arch_cpu.h  **** #endif
 164:.\arch_cpu.h  **** {
 165:.\arch_cpu.h  ****     int i;
 166:.\arch_cpu.h  ****     for(i = 0; i < n; i++) {
 360              		.loc 2 166 0
 361 01c8 0025     		movs	r5, #0
 362 01ca DDF880A0 		ldr	r10, [sp, #128]
 363 01ce 3BE0     		b	.L14
 364              	.LVL72:
 365              	.L20:
 366              	.LBB46:
 167:.\arch_cpu.h  ****         sumtype_t sum = sums[i];
 367              		.loc 2 167 0
 368 01d0 AB46     		mov	fp, r5
 369 01d2 0DAB     		add	r3, sp, #52
 370              	.LVL73:
 371 01d4 53F82500 		ldr	r0, [r3, r5, lsl #2]
 372              	.LVL74:
 373 01d8 06EB8504 		add	r4, r6, r5, lsl #2
 168:.\arch_cpu.h  ****         sum += bs[i];
 374              		.loc 2 168 0
 375 01dc 039B     		ldr	r3, [sp, #12]
 376              	.LVL75:
 377 01de 1B59     		ldr	r3, [r3, r4]
 378              	.LVL76:
 169:.\arch_cpu.h  ****         #if !TM_FASTSCALE
 170:.\arch_cpu.h  ****             float sumf = sum*scales[i];
 379              		.loc 2 170 0
 380 01e0 1844     		add	r0, r0, r3
 381              	.LVL77:
 382 01e2 FFF7FEFF 		bl	__aeabi_i2f
 383              	.LVL78:
 384 01e6 6B4B     		ldr	r3, .L113
 385 01e8 1C44     		add	r4, r4, r3
 386 01ea D4F80019 		ldr	r1, [r4, #2304]	@ float
 387 01ee FFF7FEFF 		bl	__aeabi_fmul
 388              	.LVL79:
 389 01f2 0446     		mov	r4, r0
 390              	.LVL80:
 171:.\arch_cpu.h  ****         #else 
 172:.\arch_cpu.h  ****             sumtype_t sumf = (sum<<TM_FASTSCALE_SHIFT)/scales[i];
 173:.\arch_cpu.h  ****         #endif
 174:.\arch_cpu.h  ****         switch(act){    //activation func
 391              		.loc 2 174 0
 392 01f4 BAF1010F 		cmp	r10, #1
 393 01f8 03D0     		beq	.L16
 394 01fa BAF1030F 		cmp	r10, #3
 395 01fe 06D0     		beq	.L17
 396 0200 10E0     		b	.L15
ARM GAS  C:\Users\kuzni\AppData\Local\Temp\ccqUPoDe.s 			page 13


 397              	.L16:
 175:.\arch_cpu.h  ****         case TM_ACT_RELU:
 176:.\arch_cpu.h  ****             sumf = sumf>0?sumf:0;
 398              		.loc 2 176 0
 399 0202 0021     		movs	r1, #0
 400 0204 FFF7FEFF 		bl	__aeabi_fcmpgt
 401              	.LVL81:
 402 0208 60B9     		cbnz	r0, .L15
 403 020a 0024     		movs	r4, #0
 404              	.LVL82:
 405 020c 0AE0     		b	.L15
 406              	.LVL83:
 407              	.L17:
 177:.\arch_cpu.h  ****             break;
 178:.\arch_cpu.h  ****         case TM_ACT_RELU6:
 179:.\arch_cpu.h  ****             sumf = sumf>0?sumf:0;
 408              		.loc 2 179 0
 409 020e 0021     		movs	r1, #0
 410 0210 FFF7FEFF 		bl	__aeabi_fcmpgt
 411              	.LVL84:
 412 0214 00B9     		cbnz	r0, .L18
 413 0216 0024     		movs	r4, #0
 414              	.LVL85:
 415              	.L18:
 180:.\arch_cpu.h  ****         #if (!TM_FASTSCALE)
 181:.\arch_cpu.h  ****             sumf = sumf>6?6:sumf;
 416              		.loc 2 181 0
 417 0218 2046     		mov	r0, r4
 418 021a 5F49     		ldr	r1, .L113+4
 419 021c FFF7FEFF 		bl	__aeabi_fcmpgt
 420              	.LVL86:
 421 0220 00B1     		cbz	r0, .L15
 422 0222 5D4C     		ldr	r4, .L113+4
 423              	.LVL87:
 424              	.L15:
 182:.\arch_cpu.h  ****         #else
 183:.\arch_cpu.h  ****             sumf = sumf>(6<<TM_FASTSCALE_SHIFT)?(6<<TM_FASTSCALE_SHIFT):sumf;
 184:.\arch_cpu.h  ****         #endif
 185:.\arch_cpu.h  ****             break;
 186:.\arch_cpu.h  ****         default:
 187:.\arch_cpu.h  ****             break;
 188:.\arch_cpu.h  ****         }
 189:.\arch_cpu.h  ****         #if !TM_FASTSCALE
 190:.\arch_cpu.h  ****             outp[i] = (mtype_t)(sumf*out_s_inv + out_zp);  //(mtype_t)((int)(sumf/out_s) + out_zp) 
 425              		.loc 2 190 0
 426 0224 0698     		ldr	r0, [sp, #24]	@ float
 427 0226 2146     		mov	r1, r4
 428 0228 FFF7FEFF 		bl	__aeabi_fmul
 429              	.LVL88:
 430 022c 0446     		mov	r4, r0
 431              	.LVL89:
 432 022e 2A98     		ldr	r0, [sp, #168]
 433 0230 FFF7FEFF 		bl	__aeabi_i2f
 434              	.LVL90:
 435 0234 0146     		mov	r1, r0
 436 0236 2046     		mov	r0, r4
 437 0238 FFF7FEFF 		bl	__aeabi_fadd
ARM GAS  C:\Users\kuzni\AppData\Local\Temp\ccqUPoDe.s 			page 14


 438              	.LVL91:
 439 023c FFF7FEFF 		bl	__aeabi_f2iz
 440              	.LVL92:
 441 0240 049B     		ldr	r3, [sp, #16]
 442 0242 03F80B00 		strb	r0, [r3, fp]
 443              	.LBE46:
 166:.\arch_cpu.h  ****         sumtype_t sum = sums[i];
 444              		.loc 2 166 0
 445 0246 0135     		adds	r5, r5, #1
 446              	.LVL93:
 447              	.L14:
 448 0248 012D     		cmp	r5, #1
 449 024a C1DD     		ble	.L20
 450              	.LBE45:
 451              	.LBE44:
 107:.\tm_layers.c ****             c += BATCH_SIZE;
 452              		.loc 1 107 0
 453 024c 08F10208 		add	r8, r8, #2
 454              	.LVL94:
 108:.\tm_layers.c ****             outp += BATCH_SIZE;
 455              		.loc 1 108 0
 456 0250 049B     		ldr	r3, [sp, #16]
 457 0252 0233     		adds	r3, r3, #2
 458 0254 0493     		str	r3, [sp, #16]
 459              	.LVL95:
 109:.\tm_layers.c ****             kptr += chi*BATCH_SIZE;//*2;
 460              		.loc 1 109 0
 461 0256 019B     		ldr	r3, [sp, #4]
 462              	.LVL96:
 463 0258 029A     		ldr	r2, [sp, #8]
 464 025a 03EB4203 		add	r3, r3, r2, lsl #1
 465 025e 0193     		str	r3, [sp, #4]
 466              	.LVL97:
 467              	.L8:
 468              	.LBE47:
 102:.\tm_layers.c ****             int bat;
 469              		.loc 1 102 0
 470 0260 009B     		ldr	r3, [sp]
 471 0262 DB88     		ldrh	r3, [r3, #6]
 472 0264 013B     		subs	r3, r3, #1
 473 0266 4345     		cmp	r3, r8
 474 0268 A3DC     		bgt	.L96
 475 026a C346     		mov	fp, r8
 476 026c B846     		mov	r8, r7
 477              	.LVL98:
 478 026e 019C     		ldr	r4, [sp, #4]
 479 0270 88E0     		b	.L22
 480              	.LVL99:
 481              	.L34:
 110:.\tm_layers.c ****         }
 111:.\tm_layers.c ****         for(; c<out->c; c++){
 112:.\tm_layers.c ****             tm_dot_prod(sptr, kptr, chi, &sum); //size=maxk*chi //pw maxk==1
 482              		.loc 1 112 0 discriminator 2
 483 0272 4E46     		mov	r6, r9
 484              	.LVL100:
 485              	.LBB48:
 486              	.LBB49:
ARM GAS  C:\Users\kuzni\AppData\Local\Temp\ccqUPoDe.s 			page 15


  25:.\arch_cpu.h  ****     for(; i+8-1 <cnt; ){
 487              		.loc 2 25 0 discriminator 2
 488 0274 29F00707 		bic	r7, r9, #7
 489              	.LVL101:
  24:.\arch_cpu.h  ****     uint32_t cnt = (size>>3)<<3;  //8
 490              		.loc 2 24 0 discriminator 2
 491 0278 0020     		movs	r0, #0
  23:.\arch_cpu.h  ****     uint32_t i = 0;
 492              		.loc 2 23 0 discriminator 2
 493 027a 0346     		mov	r3, r0
 494 027c 2EE0     		b	.L23
 495              	.LVL102:
 496              	.L24:
  27:.\arch_cpu.h  ****         sum += sptr[i]*kptr[i];i++;
 497              		.loc 2 27 0
 498 027e 18F90020 		ldrsb	r2, [r8, r0]
 499 0282 2556     		ldrsb	r5, [r4, r0]
 500 0284 05FB0233 		mla	r3, r5, r2, r3
 501              	.LVL103:
 502 0288 451C     		adds	r5, r0, #1
 503              	.LVL104:
  28:.\arch_cpu.h  ****         sum += sptr[i]*kptr[i];i++;
 504              		.loc 2 28 0
 505 028a 18F90520 		ldrsb	r2, [r8, r5]
 506 028e 6557     		ldrsb	r5, [r4, r5]
 507              	.LVL105:
 508 0290 05FB0233 		mla	r3, r5, r2, r3
 509              	.LVL106:
 510 0294 851C     		adds	r5, r0, #2
 511              	.LVL107:
  29:.\arch_cpu.h  ****         sum += sptr[i]*kptr[i];i++;
 512              		.loc 2 29 0
 513 0296 18F90520 		ldrsb	r2, [r8, r5]
 514 029a 6557     		ldrsb	r5, [r4, r5]
 515              	.LVL108:
 516 029c 05FB0233 		mla	r3, r5, r2, r3
 517              	.LVL109:
 518 02a0 C51C     		adds	r5, r0, #3
 519              	.LVL110:
  30:.\arch_cpu.h  ****         sum += sptr[i]*kptr[i];i++;
 520              		.loc 2 30 0
 521 02a2 18F90520 		ldrsb	r2, [r8, r5]
 522 02a6 6557     		ldrsb	r5, [r4, r5]
 523              	.LVL111:
 524 02a8 05FB0233 		mla	r3, r5, r2, r3
 525              	.LVL112:
 526 02ac 051D     		adds	r5, r0, #4
 527              	.LVL113:
  31:.\arch_cpu.h  ****         sum += sptr[i]*kptr[i];i++;
 528              		.loc 2 31 0
 529 02ae 18F90520 		ldrsb	r2, [r8, r5]
 530 02b2 6557     		ldrsb	r5, [r4, r5]
 531              	.LVL114:
 532 02b4 05FB0233 		mla	r3, r5, r2, r3
 533              	.LVL115:
 534 02b8 451D     		adds	r5, r0, #5
 535              	.LVL116:
ARM GAS  C:\Users\kuzni\AppData\Local\Temp\ccqUPoDe.s 			page 16


  32:.\arch_cpu.h  ****         sum += sptr[i]*kptr[i];i++;
 536              		.loc 2 32 0
 537 02ba 18F90520 		ldrsb	r2, [r8, r5]
 538 02be 6557     		ldrsb	r5, [r4, r5]
 539              	.LVL117:
 540 02c0 05FB0233 		mla	r3, r5, r2, r3
 541              	.LVL118:
 542 02c4 851D     		adds	r5, r0, #6
 543              	.LVL119:
  33:.\arch_cpu.h  ****         sum += sptr[i]*kptr[i];i++;
 544              		.loc 2 33 0
 545 02c6 18F90520 		ldrsb	r2, [r8, r5]
 546 02ca 6557     		ldrsb	r5, [r4, r5]
 547              	.LVL120:
 548 02cc 05FB0233 		mla	r3, r5, r2, r3
 549              	.LVL121:
  34:.\arch_cpu.h  ****     }
 550              		.loc 2 34 0
 551 02d0 18F90120 		ldrsb	r2, [r8, r1]
 552 02d4 6156     		ldrsb	r1, [r4, r1]
 553              	.LVL122:
 554 02d6 01FB0233 		mla	r3, r1, r2, r3
 555              	.LVL123:
 556 02da 0830     		adds	r0, r0, #8
 557              	.LVL124:
 558              	.L23:
  26:.\arch_cpu.h  ****         sum += sptr[i]*kptr[i];i++;
 559              		.loc 2 26 0
 560 02dc C11D     		adds	r1, r0, #7
 561 02de 8F42     		cmp	r7, r1
 562 02e0 CDD8     		bhi	.L24
 563 02e2 05E0     		b	.L25
 564              	.L26:
  37:.\arch_cpu.h  ****     }
 565              		.loc 2 37 0
 566 02e4 18F90020 		ldrsb	r2, [r8, r0]
 567 02e8 2156     		ldrsb	r1, [r4, r0]
 568 02ea 01FB0233 		mla	r3, r1, r2, r3
 569              	.LVL125:
  36:.\arch_cpu.h  ****         sum += sptr[i]*kptr[i]; 
 570              		.loc 2 36 0
 571 02ee 0130     		adds	r0, r0, #1
 572              	.LVL126:
 573              	.L25:
 574 02f0 8642     		cmp	r6, r0
 575 02f2 F7D8     		bhi	.L26
  39:.\arch_cpu.h  ****     return;
 576              		.loc 2 39 0
 577 02f4 0F93     		str	r3, [sp, #60]
 578              	.LBE49:
 579              	.LBE48:
 113:.\tm_layers.c ****             tm_postprocess_sum(1, &sum, b + c, act, outp, SUMSCALE, OUTSCALE, out_zp); outp++;
 580              		.loc 1 113 0
 581 02f6 4FEA8B07 		lsl	r7, fp, #2
 582              	.LVL127:
 583              	.LBB50:
 584              	.LBB51:
ARM GAS  C:\Users\kuzni\AppData\Local\Temp\ccqUPoDe.s 			page 17


 166:.\arch_cpu.h  ****         sumtype_t sum = sums[i];
 585              		.loc 2 166 0
 586 02fa 0026     		movs	r6, #0
 587              	.LVL128:
 588 02fc 3AE0     		b	.L27
 589              	.LVL129:
 590              	.L33:
 591              	.LBB52:
 167:.\arch_cpu.h  ****         sum += bs[i];
 592              		.loc 2 167 0
 593 02fe B246     		mov	r10, r6
 594 0300 0FAB     		add	r3, sp, #60
 595              	.LVL130:
 596 0302 53F82600 		ldr	r0, [r3, r6, lsl #2]
 597              	.LVL131:
 598 0306 07EB8605 		add	r5, r7, r6, lsl #2
 168:.\arch_cpu.h  ****         #if !TM_FASTSCALE
 599              		.loc 2 168 0
 600 030a 039B     		ldr	r3, [sp, #12]
 601              	.LVL132:
 602 030c 5B59     		ldr	r3, [r3, r5]
 603              	.LVL133:
 170:.\arch_cpu.h  ****         #else 
 604              		.loc 2 170 0
 605 030e 1844     		add	r0, r0, r3
 606              	.LVL134:
 607 0310 FFF7FEFF 		bl	__aeabi_i2f
 608              	.LVL135:
 609 0314 1F4B     		ldr	r3, .L113
 610 0316 1D44     		add	r5, r5, r3
 611 0318 D5F80019 		ldr	r1, [r5, #2304]	@ float
 612 031c FFF7FEFF 		bl	__aeabi_fmul
 613              	.LVL136:
 614 0320 0546     		mov	r5, r0
 615              	.LVL137:
 174:.\arch_cpu.h  ****         case TM_ACT_RELU:
 616              		.loc 2 174 0
 617 0322 209B     		ldr	r3, [sp, #128]
 618 0324 012B     		cmp	r3, #1
 619 0326 02D0     		beq	.L29
 620 0328 032B     		cmp	r3, #3
 621 032a 06D0     		beq	.L30
 622 032c 10E0     		b	.L28
 623              	.L29:
 176:.\arch_cpu.h  ****             break;
 624              		.loc 2 176 0
 625 032e 0021     		movs	r1, #0
 626 0330 FFF7FEFF 		bl	__aeabi_fcmpgt
 627              	.LVL138:
 628 0334 60B9     		cbnz	r0, .L28
 629 0336 0025     		movs	r5, #0
 630              	.LVL139:
 631 0338 0AE0     		b	.L28
 632              	.LVL140:
 633              	.L30:
 179:.\arch_cpu.h  ****         #if (!TM_FASTSCALE)
 634              		.loc 2 179 0
ARM GAS  C:\Users\kuzni\AppData\Local\Temp\ccqUPoDe.s 			page 18


 635 033a 0021     		movs	r1, #0
 636 033c FFF7FEFF 		bl	__aeabi_fcmpgt
 637              	.LVL141:
 638 0340 00B9     		cbnz	r0, .L31
 639 0342 0025     		movs	r5, #0
 640              	.LVL142:
 641              	.L31:
 181:.\arch_cpu.h  ****         #else
 642              		.loc 2 181 0
 643 0344 2846     		mov	r0, r5
 644 0346 1449     		ldr	r1, .L113+4
 645 0348 FFF7FEFF 		bl	__aeabi_fcmpgt
 646              	.LVL143:
 647 034c 00B1     		cbz	r0, .L28
 648 034e 124D     		ldr	r5, .L113+4
 649              	.LVL144:
 650              	.L28:
 651              		.loc 2 190 0
 652 0350 0698     		ldr	r0, [sp, #24]	@ float
 653 0352 2946     		mov	r1, r5
 654 0354 FFF7FEFF 		bl	__aeabi_fmul
 655              	.LVL145:
 656 0358 0546     		mov	r5, r0
 657              	.LVL146:
 658 035a 2A98     		ldr	r0, [sp, #168]
 659 035c FFF7FEFF 		bl	__aeabi_i2f
 660              	.LVL147:
 661 0360 0146     		mov	r1, r0
 662 0362 2846     		mov	r0, r5
 663 0364 FFF7FEFF 		bl	__aeabi_fadd
 664              	.LVL148:
 665 0368 FFF7FEFF 		bl	__aeabi_f2iz
 666              	.LVL149:
 667 036c 049B     		ldr	r3, [sp, #16]
 668 036e 03F80A00 		strb	r0, [r3, r10]
 669              	.LBE52:
 166:.\arch_cpu.h  ****         sumtype_t sum = sums[i];
 670              		.loc 2 166 0
 671 0372 0136     		adds	r6, r6, #1
 672              	.LVL150:
 673              	.L27:
 674 0374 002E     		cmp	r6, #0
 675 0376 C2DD     		ble	.L33
 676              	.LBE51:
 677              	.LBE50:
 678              		.loc 1 113 0 discriminator 2
 679 0378 049B     		ldr	r3, [sp, #16]
 680 037a 0133     		adds	r3, r3, #1
 681 037c 0493     		str	r3, [sp, #16]
 682              	.LVL151:
 114:.\tm_layers.c ****             kptr += chi;
 683              		.loc 1 114 0 discriminator 2
 684 037e 4C44     		add	r4, r4, r9
 685              	.LVL152:
 111:.\tm_layers.c ****             tm_dot_prod(sptr, kptr, chi, &sum); //size=maxk*chi //pw maxk==1
 686              		.loc 1 111 0 discriminator 2
 687 0380 0BF1010B 		add	fp, fp, #1
ARM GAS  C:\Users\kuzni\AppData\Local\Temp\ccqUPoDe.s 			page 19


 688              	.LVL153:
 689              	.L22:
 111:.\tm_layers.c ****             tm_dot_prod(sptr, kptr, chi, &sum); //size=maxk*chi //pw maxk==1
 690              		.loc 1 111 0 is_stmt 0 discriminator 1
 691 0384 009B     		ldr	r3, [sp]
 692 0386 DB88     		ldrh	r3, [r3, #6]
 693 0388 5B45     		cmp	r3, fp
 694 038a 3FF772AF 		bgt	.L34
 115:.\tm_layers.c ****         }
 116:.\tm_layers.c ****         TM_PERF_ADD(t_pwconv);
 117:.\tm_layers.c ****         return TM_OK;
 695              		.loc 1 117 0 is_stmt 1
 696 038e 0020     		movs	r0, #0
 697 0390 45E2     		b	.L3
 698              	.L114:
 699 0392 00BF     		.align	2
 700              	.L113:
 701 0394 00000000 		.word	.LANCHOR0
 702 0398 0000C040 		.word	1086324736
 703              	.LVL154:
 704              	.L35:
 705              	.LBE40:
 118:.\tm_layers.c ****     }
 119:.\tm_layers.c **** 
 120:.\tm_layers.c ****     if(dmul) {TM_PERF_START(t_dwconv);} else {TM_PERF_START(t_conv);};
 121:.\tm_layers.c ****     int oft = 0;
 122:.\tm_layers.c ****     int idx = 0;
 123:.\tm_layers.c ****     int y = 0;
 124:.\tm_layers.c ****     int x = 0;
 125:.\tm_layers.c ****     for(y=0; y<kh; y++){    //gen k_oft table
 126:.\tm_layers.c ****         for(x=0; x<kw; x++){
 127:.\tm_layers.c ****             k_oft[idx] = oft;
 706              		.loc 1 127 0 discriminator 3
 707 039c A34A     		ldr	r2, .L115
 708 039e 02EB8102 		add	r2, r2, r1, lsl #2
 709 03a2 C2F8A837 		str	r3, [r2, #1960]
 128:.\tm_layers.c ****             idx += 1;
 710              		.loc 1 128 0 discriminator 3
 711 03a6 0131     		adds	r1, r1, #1
 712              	.LVL155:
 129:.\tm_layers.c ****             oft += chi;
 713              		.loc 1 129 0 discriminator 3
 714 03a8 2B44     		add	r3, r3, r5
 715              	.LVL156:
 126:.\tm_layers.c ****             k_oft[idx] = oft;
 716              		.loc 1 126 0 discriminator 3
 717 03aa 0130     		adds	r0, r0, #1
 718              	.LVL157:
 719 03ac 00E0     		b	.L36
 720              	.LVL158:
 721              	.L97:
 722 03ae 0020     		movs	r0, #0
 723              	.L36:
 724              	.LVL159:
 126:.\tm_layers.c ****             k_oft[idx] = oft;
 725              		.loc 1 126 0 is_stmt 0 discriminator 1
 726 03b0 B842     		cmp	r0, r7
ARM GAS  C:\Users\kuzni\AppData\Local\Temp\ccqUPoDe.s 			page 20


 727 03b2 F3DB     		blt	.L35
 130:.\tm_layers.c ****         }
 131:.\tm_layers.c ****         oft += (in->w - kw)*chi;
 728              		.loc 1 131 0 is_stmt 1 discriminator 2
 729 03b4 059A     		ldr	r2, [sp, #20]
 730 03b6 9288     		ldrh	r2, [r2, #4]
 731 03b8 D21B     		subs	r2, r2, r7
 732 03ba 05FB0233 		mla	r3, r5, r2, r3
 733              	.LVL160:
 125:.\tm_layers.c ****         for(x=0; x<kw; x++){
 734              		.loc 1 125 0 discriminator 2
 735 03be 0134     		adds	r4, r4, #1
 736              	.LVL161:
 737 03c0 03E0     		b	.L7
 738              	.LVL162:
 739              	.L95:
 740 03c2 0024     		movs	r4, #0
 741              	.LVL163:
 742 03c4 2146     		mov	r1, r4
 743 03c6 2346     		mov	r3, r4
 744 03c8 029D     		ldr	r5, [sp, #8]
 745              	.L7:
 746              	.LVL164:
 125:.\tm_layers.c ****         for(x=0; x<kw; x++){
 747              		.loc 1 125 0 is_stmt 0 discriminator 1
 748 03ca 1B9A     		ldr	r2, [sp, #108]
 749 03cc 9442     		cmp	r4, r2
 750 03ce EEDB     		blt	.L97
 132:.\tm_layers.c ****     }
 133:.\tm_layers.c ****     chi  = dmul ? 1 : in->c; // dmul>=1 indicate depthwise; dummy chi for dwconv compatible
 751              		.loc 1 133 0 is_stmt 1
 752 03d0 259B     		ldr	r3, [sp, #148]
 753              	.LVL165:
 754 03d2 1BB9     		cbnz	r3, .L98
 755              		.loc 1 133 0 is_stmt 0 discriminator 1
 756 03d4 059B     		ldr	r3, [sp, #20]
 757 03d6 DB88     		ldrh	r3, [r3, #6]
 758 03d8 0293     		str	r3, [sp, #8]
 759 03da 01E0     		b	.L37
 760              	.L98:
 761              		.loc 1 133 0
 762 03dc 0123     		movs	r3, #1
 763 03de 0293     		str	r3, [sp, #8]
 764              	.L37:
 765              	.LVL166:
 134:.\tm_layers.c ****     int slow_flag = 0; //same pad part is slow
 135:.\tm_layers.c ****     for (y = 0; y < out->h; y++) {
 766              		.loc 1 135 0 is_stmt 1 discriminator 4
 767 03e0 0023     		movs	r3, #0
 768 03e2 0A93     		str	r3, [sp, #40]
 769 03e4 D946     		mov	r9, fp
 770 03e6 07E2     		b	.L38
 771              	.LVL167:
 772              	.L84:
 773              	.LBB53:
 136:.\tm_layers.c ****         int src_y0 = sy*y - pad_top;
 774              		.loc 1 136 0
ARM GAS  C:\Users\kuzni\AppData\Local\Temp\ccqUPoDe.s 			page 21


 775 03e8 0A9B     		ldr	r3, [sp, #40]
 776 03ea 1D9A     		ldr	r2, [sp, #116]
 777              	.LVL168:
 778 03ec 03FB02F3 		mul	r3, r3, r2
 779 03f0 219A     		ldr	r2, [sp, #132]
 780 03f2 9B1A     		subs	r3, r3, r2
 781 03f4 0993     		str	r3, [sp, #36]
 782              	.LVL169:
 137:.\tm_layers.c ****         for (x = 0; x < out->w; x++) {
 783              		.loc 1 137 0
 784 03f6 0023     		movs	r3, #0
 785              	.LVL170:
 786 03f8 0B93     		str	r3, [sp, #44]
 787 03fa F4E1     		b	.L39
 788              	.LVL171:
 789              	.L83:
 790              	.LBB54:
 138:.\tm_layers.c ****             int src_x0 = sx*x - pad_left;
 791              		.loc 1 138 0
 792 03fc 0B9B     		ldr	r3, [sp, #44]
 793 03fe 1C9A     		ldr	r2, [sp, #112]
 794              	.LVL172:
 795 0400 03FB02F3 		mul	r3, r3, r2
 796 0404 239A     		ldr	r2, [sp, #140]
 797 0406 9B1A     		subs	r3, r3, r2
 798              	.LVL173:
 139:.\tm_layers.c ****             sumtype_t sum;
 140:.\tm_layers.c ****             slow_flag = ((src_y0<0)+(src_x0<0)+(src_y0+kh>in->h)+(src_x0+kw>in->w));
 799              		.loc 1 140 0
 800 0408 DA0F     		lsrs	r2, r3, #31
 801 040a 0998     		ldr	r0, [sp, #36]
 802 040c 0146     		mov	r1, r0
 803 040e 02EBD072 		add	r2, r2, r0, lsr #31
 804 0412 1B98     		ldr	r0, [sp, #108]
 805 0414 0144     		add	r1, r1, r0
 806 0416 059D     		ldr	r5, [sp, #20]
 807 0418 6888     		ldrh	r0, [r5, #2]
 808 041a 8142     		cmp	r1, r0
 809 041c D4BF     		ite	le
 810 041e 1146     		movle	r1, r2
 811 0420 511C     		addgt	r1, r2, #1
 812 0422 DC19     		adds	r4, r3, r7
 813 0424 AA88     		ldrh	r2, [r5, #4]
 814 0426 9442     		cmp	r4, r2
 815 0428 C8BF     		it	gt
 816 042a 0131     		addgt	r1, r1, #1
 817              	.LVL174:
 141:.\tm_layers.c ****             //TM_PERF_START(t_sbuf);
 142:.\tm_layers.c ****             if(!slow_flag) {TM_PERF_START(t_valid); //valid or same valid part
 818              		.loc 1 142 0
 819 042c 61BB     		cbnz	r1, .L40
 820              	.LBB55:
 143:.\tm_layers.c ****                 mtype_t* sptr_base = (mtype_t*)TM_MATP(in, src_y0, src_x0, 0); //?c/dmul:0
 821              		.loc 1 143 0
 822 042e A968     		ldr	r1, [r5, #8]
 823              	.LVL175:
 824 0430 099C     		ldr	r4, [sp, #36]
ARM GAS  C:\Users\kuzni\AppData\Local\Temp\ccqUPoDe.s 			page 22


 825              	.LVL176:
 826 0432 02FB0433 		mla	r3, r2, r4, r3
 827              	.LVL177:
 828 0436 B5F806E0 		ldrh	lr, [r5, #6]
 829 043a 0EFB031E 		mla	lr, lr, r3, r1
 830              	.LVL178:
 144:.\tm_layers.c ****                 mtype_t* sptr = sptr_base; //= (mtype_t*)TM_MATP(in, src_y0, src_x0, 0); //sbuf 
 831              		.loc 1 144 0
 832 043e 7446     		mov	r4, lr
 145:.\tm_layers.c ****                 uint32_t sidx=0;    //sbuf:cho,chi,maxk //dw:chi==1;
 146:.\tm_layers.c ****                 int cc = 0;
 147:.\tm_layers.c ****                 for (cc = 0; cc < (dmul?cho:chi); cc++) {
 833              		.loc 1 147 0
 834 0440 0026     		movs	r6, #0
 145:.\tm_layers.c ****                 uint32_t sidx=0;    //sbuf:cho,chi,maxk //dw:chi==1;
 835              		.loc 1 145 0
 836 0442 3546     		mov	r5, r6
 837 0444 BC46     		mov	ip, r7
 838 0446 259F     		ldr	r7, [sp, #148]
 839              	.LVL179:
 840              		.loc 1 147 0
 841 0448 16E0     		b	.L41
 842              	.LVL180:
 843              	.L42:
 844              	.LBB56:
 148:.\tm_layers.c ****                     int k = 0;
 149:.\tm_layers.c ****                     for (k = 0; k < maxk; k++) {
 150:.\tm_layers.c ****                         sbuf[sidx+k] = sptr[k_oft[k]];
 845              		.loc 1 150 0 discriminator 3
 846 044a E918     		adds	r1, r5, r3
 847 044c 774A     		ldr	r2, .L115
 848 044e 02EB8302 		add	r2, r2, r3, lsl #2
 849 0452 D2F8A827 		ldr	r2, [r2, #1960]
 850 0456 A05C     		ldrb	r0, [r4, r2]	@ zero_extendqisi2
 851 0458 754A     		ldr	r2, .L115+4
 852 045a 5054     		strb	r0, [r2, r1]
 149:.\tm_layers.c ****                         sbuf[sidx+k] = sptr[k_oft[k]];
 853              		.loc 1 149 0 discriminator 3
 854 045c 0133     		adds	r3, r3, #1
 855              	.LVL181:
 856 045e 00E0     		b	.L46
 857              	.LVL182:
 858              	.L100:
 859              	.LBE56:
 860 0460 0023     		movs	r3, #0
 861              	.L46:
 862              	.LVL183:
 863              	.LBB57:
 149:.\tm_layers.c ****                         sbuf[sidx+k] = sptr[k_oft[k]];
 864              		.loc 1 149 0 is_stmt 0 discriminator 1
 865 0462 4B45     		cmp	r3, r9
 866 0464 F1DB     		blt	.L42
 151:.\tm_layers.c ****                     }
 152:.\tm_layers.c ****                     sidx += maxk;
 867              		.loc 1 152 0 is_stmt 1
 868 0466 4D44     		add	r5, r5, r9
 869              	.LVL184:
ARM GAS  C:\Users\kuzni\AppData\Local\Temp\ccqUPoDe.s 			page 23


 153:.\tm_layers.c ****                     sptr = sptr_base + (dmul?(cc+1)/dmul:(cc+1));
 870              		.loc 1 153 0
 871 0468 1FB1     		cbz	r7, .L43
 872              		.loc 1 153 0 is_stmt 0 discriminator 1
 873 046a 741C     		adds	r4, r6, #1
 874              	.LVL185:
 875 046c 94FBF7F4 		sdiv	r4, r4, r7
 876 0470 00E0     		b	.L44
 877              	.LVL186:
 878              	.L43:
 879              		.loc 1 153 0 discriminator 2
 880 0472 741C     		adds	r4, r6, #1
 881              	.LVL187:
 882              	.L44:
 883              		.loc 1 153 0 discriminator 4
 884 0474 7444     		add	r4, r4, lr
 885              	.LVL188:
 886              	.LBE57:
 147:.\tm_layers.c ****                     int k = 0;
 887              		.loc 1 147 0 is_stmt 1 discriminator 4
 888 0476 0136     		adds	r6, r6, #1
 889              	.LVL189:
 890              	.L41:
 147:.\tm_layers.c ****                     int k = 0;
 891              		.loc 1 147 0 is_stmt 0 discriminator 2
 892 0478 0FB1     		cbz	r7, .L99
 147:.\tm_layers.c ****                     int k = 0;
 893              		.loc 1 147 0
 894 047a 089B     		ldr	r3, [sp, #32]
 895 047c 00E0     		b	.L45
 896              	.L99:
 897 047e 029B     		ldr	r3, [sp, #8]
 898              	.L45:
 147:.\tm_layers.c ****                     int k = 0;
 899              		.loc 1 147 0 discriminator 6
 900 0480 B342     		cmp	r3, r6
 901 0482 EDDC     		bgt	.L100
 902 0484 6746     		mov	r7, ip
 903 0486 5FE0     		b	.L47
 904              	.LVL190:
 905              	.L40:
 906              	.LBE55:
 907              	.LBB58:
 154:.\tm_layers.c ****                 }
 155:.\tm_layers.c ****             } else {  TM_PERF_START(t_pad);       //same pad part
 156:.\tm_layers.c ****                 int _ky0 = src_y0<0 ? -src_y0 : 0;
 908              		.loc 1 156 0 is_stmt 1
 909 0488 0999     		ldr	r1, [sp, #36]
 910              	.LVL191:
 911 048a 0029     		cmp	r1, #0
 912 048c 02DA     		bge	.L101
 913              		.loc 1 156 0 is_stmt 0 discriminator 1
 914 048e 4942     		negs	r1, r1
 915 0490 0791     		str	r1, [sp, #28]
 916 0492 01E0     		b	.L48
 917              	.L101:
 918              		.loc 1 156 0
ARM GAS  C:\Users\kuzni\AppData\Local\Temp\ccqUPoDe.s 			page 24


 919 0494 0021     		movs	r1, #0
 920 0496 0791     		str	r1, [sp, #28]
 921              	.L48:
 922              	.LVL192:
 157:.\tm_layers.c ****                 int _kx0 = src_x0<0 ? -src_x0 : 0;
 923              		.loc 1 157 0 is_stmt 1 discriminator 4
 924 0498 002B     		cmp	r3, #0
 925 049a 02DA     		bge	.L102
 926              		.loc 1 157 0 is_stmt 0 discriminator 1
 927 049c C3F1000A 		rsb	r10, r3, #0
 928 04a0 01E0     		b	.L49
 929              	.L102:
 930              		.loc 1 157 0
 931 04a2 4FF0000A 		mov	r10, #0
 932              	.L49:
 933              	.LVL193:
 158:.\tm_layers.c ****                 int _ky1 = in->h-src_y0>kh ? kh : in->h-src_y0;
 934              		.loc 1 158 0 is_stmt 1 discriminator 4
 935 04a6 099E     		ldr	r6, [sp, #36]
 936 04a8 801B     		subs	r0, r0, r6
 937              	.LVL194:
 938 04aa 1B99     		ldr	r1, [sp, #108]
 939 04ac 8142     		cmp	r1, r0
 940 04ae A8BF     		it	ge
 941 04b0 0146     		movge	r1, r0
 942 04b2 0D46     		mov	r5, r1
 943              	.LVL195:
 159:.\tm_layers.c ****                 int _kx1 = in->w-src_x0>kw ? kw : in->w-src_x0;
 944              		.loc 1 159 0 discriminator 4
 945 04b4 D41A     		subs	r4, r2, r3
 946              	.LVL196:
 947 04b6 BC42     		cmp	r4, r7
 948 04b8 A8BF     		it	ge
 949 04ba 3C46     		movge	r4, r7
 950              	.LVL197:
 160:.\tm_layers.c ****                 uint32_t sidx=0;    //sbuf:cho,chi,maxk //dw:chi==1;
 161:.\tm_layers.c ****                 uint32_t s_step = (_ky1-_ky0)*(_kx1-_kx0);
 162:.\tm_layers.c ****                 mtype_t* sptr_base = (mtype_t*)TM_MATP(in, src_y0, src_x0, 0);
 951              		.loc 1 162 0 discriminator 4
 952 04bc 0599     		ldr	r1, [sp, #20]
 953              	.LVL198:
 954 04be 8968     		ldr	r1, [r1, #8]
 955 04c0 02FB0633 		mla	r3, r2, r6, r3
 956              	.LVL199:
 957 04c4 059A     		ldr	r2, [sp, #20]
 958              	.LVL200:
 959 04c6 B2F806B0 		ldrh	fp, [r2, #6]
 960 04ca 0BFB031B 		mla	fp, fp, r3, r1
 961              	.LVL201:
 163:.\tm_layers.c ****                 mtype_t* sptr = sptr_base;
 164:.\tm_layers.c ****             #if TM_MDL_TYPE == TM_MDL_INT8
 165:.\tm_layers.c ****                 memset(sbuf, in_zp, dmul?cho*maxk:chi*maxk);    //do padding
 962              		.loc 1 165 0 discriminator 4
 963 04ce 259B     		ldr	r3, [sp, #148]
 964 04d0 1BB1     		cbz	r3, .L50
 965              		.loc 1 165 0 is_stmt 0 discriminator 1
 966 04d2 089B     		ldr	r3, [sp, #32]
ARM GAS  C:\Users\kuzni\AppData\Local\Temp\ccqUPoDe.s 			page 25


 967 04d4 09FB03F2 		mul	r2, r9, r3
 968 04d8 02E0     		b	.L51
 969              	.L50:
 970              		.loc 1 165 0 discriminator 2
 971 04da 029B     		ldr	r3, [sp, #8]
 972 04dc 09FB03F2 		mul	r2, r9, r3
 973              	.L51:
 974              		.loc 1 165 0 discriminator 4
 975 04e0 5348     		ldr	r0, .L115+4
 976 04e2 2899     		ldr	r1, [sp, #160]
 977 04e4 FFF7FEFF 		bl	memset
 978              	.LVL202:
 163:.\tm_layers.c ****                 mtype_t* sptr = sptr_base;
 979              		.loc 1 163 0 is_stmt 1 discriminator 4
 980 04e8 DE46     		mov	lr, fp
 166:.\tm_layers.c ****             #elif (TM_MDL_TYPE == TM_MDL_FP32)||(TM_MDL_TYPE == TM_MDL_FP16)||(TM_MDL_TYPE == TM_MD
 167:.\tm_layers.c ****                 memset(sbuf, 0, (dmul?cho*maxk:chi*maxk)*sizeof(mtype_t));
 168:.\tm_layers.c ****             #else
 169:.\tm_layers.c ****             #error "unsupport mdl type"
 170:.\tm_layers.c ****             #endif
 171:.\tm_layers.c ****                 int cc = 0;
 172:.\tm_layers.c ****                 for (cc = 0; cc < (dmul?cho:chi); cc++) {
 981              		.loc 1 172 0 discriminator 4
 982 04ea 4FF00008 		mov	r8, #0
 160:.\tm_layers.c ****                 uint32_t s_step = (_ky1-_ky0)*(_kx1-_kx0);
 983              		.loc 1 160 0 discriminator 4
 984 04ee C446     		mov	ip, r8
 985              		.loc 1 172 0 discriminator 4
 986 04f0 23E0     		b	.L52
 987              	.LVL203:
 988              	.L53:
 989              	.LBB59:
 990              	.LBB60:
 173:.\tm_layers.c ****                     int _ky = 0;
 174:.\tm_layers.c ****                     int _kx = 0;
 175:.\tm_layers.c ****                     for(_ky=_ky0; _ky<_ky1; _ky++){
 176:.\tm_layers.c ****                         for(_kx=_kx0; _kx<_kx1; _kx++){
 177:.\tm_layers.c ****                             int k = _ky*kw + _kx;
 991              		.loc 1 177 0 discriminator 3
 992 04f2 07FB0620 		mla	r0, r7, r6, r2
 993              	.LVL204:
 178:.\tm_layers.c ****                             sbuf[sidx+k] = sptr[k_oft[k]];
 994              		.loc 1 178 0 discriminator 3
 995 04f6 0CEB0001 		add	r1, ip, r0
 996 04fa 4C4B     		ldr	r3, .L115
 997 04fc 03EB8003 		add	r3, r3, r0, lsl #2
 998 0500 D3F8A837 		ldr	r3, [r3, #1960]
 999 0504 1EF80300 		ldrb	r0, [lr, r3]	@ zero_extendqisi2
 1000              	.LVL205:
 1001 0508 494B     		ldr	r3, .L115+4
 1002 050a 5854     		strb	r0, [r3, r1]
 1003              	.LBE60:
 176:.\tm_layers.c ****                             int k = _ky*kw + _kx;
 1004              		.loc 1 176 0 discriminator 3
 1005 050c 0132     		adds	r2, r2, #1
 1006              	.LVL206:
 1007 050e 00E0     		b	.L54
ARM GAS  C:\Users\kuzni\AppData\Local\Temp\ccqUPoDe.s 			page 26


 1008              	.LVL207:
 1009              	.L103:
 1010 0510 5246     		mov	r2, r10
 1011              	.L54:
 1012              	.LVL208:
 176:.\tm_layers.c ****                             int k = _ky*kw + _kx;
 1013              		.loc 1 176 0 is_stmt 0 discriminator 1
 1014 0512 A242     		cmp	r2, r4
 1015 0514 EDDB     		blt	.L53
 175:.\tm_layers.c ****                         for(_kx=_kx0; _kx<_kx1; _kx++){
 1016              		.loc 1 175 0 is_stmt 1 discriminator 2
 1017 0516 0136     		adds	r6, r6, #1
 1018              	.LVL209:
 1019 0518 00E0     		b	.L58
 1020              	.LVL210:
 1021              	.L105:
 1022              	.LBE59:
 1023 051a 079E     		ldr	r6, [sp, #28]
 1024              	.L58:
 1025              	.LVL211:
 1026              	.LBB61:
 175:.\tm_layers.c ****                         for(_kx=_kx0; _kx<_kx1; _kx++){
 1027              		.loc 1 175 0 is_stmt 0 discriminator 1
 1028 051c AE42     		cmp	r6, r5
 1029 051e F7DB     		blt	.L103
 179:.\tm_layers.c ****                         }
 180:.\tm_layers.c ****                     }
 181:.\tm_layers.c ****                     sidx += maxk;
 1030              		.loc 1 181 0 is_stmt 1
 1031 0520 CC44     		add	ip, ip, r9
 1032              	.LVL212:
 182:.\tm_layers.c ****                     sptr = sptr_base + (dmul?(cc+1)/dmul:(cc+1));
 1033              		.loc 1 182 0
 1034 0522 259B     		ldr	r3, [sp, #148]
 1035 0524 23B1     		cbz	r3, .L55
 1036              		.loc 1 182 0 is_stmt 0 discriminator 1
 1037 0526 08F1010E 		add	lr, r8, #1
 1038              	.LVL213:
 1039 052a 9EFBF3FE 		sdiv	lr, lr, r3
 1040 052e 01E0     		b	.L56
 1041              	.LVL214:
 1042              	.L55:
 1043              		.loc 1 182 0 discriminator 2
 1044 0530 08F1010E 		add	lr, r8, #1
 1045              	.LVL215:
 1046              	.L56:
 1047              		.loc 1 182 0 discriminator 4
 1048 0534 DE44     		add	lr, lr, fp
 1049              	.LVL216:
 1050              	.LBE61:
 172:.\tm_layers.c ****                     int _ky = 0;
 1051              		.loc 1 172 0 is_stmt 1 discriminator 4
 1052 0536 08F10108 		add	r8, r8, #1
 1053              	.LVL217:
 1054              	.L52:
 172:.\tm_layers.c ****                     int _ky = 0;
 1055              		.loc 1 172 0 is_stmt 0 discriminator 2
ARM GAS  C:\Users\kuzni\AppData\Local\Temp\ccqUPoDe.s 			page 27


 1056 053a 259B     		ldr	r3, [sp, #148]
 1057 053c 0BB1     		cbz	r3, .L104
 172:.\tm_layers.c ****                     int _ky = 0;
 1058              		.loc 1 172 0
 1059 053e 089B     		ldr	r3, [sp, #32]
 1060 0540 00E0     		b	.L57
 1061              	.L104:
 1062 0542 029B     		ldr	r3, [sp, #8]
 1063              	.L57:
 172:.\tm_layers.c ****                     int _ky = 0;
 1064              		.loc 1 172 0 discriminator 6
 1065 0544 4345     		cmp	r3, r8
 1066 0546 E8DC     		bgt	.L105
 1067              	.LVL218:
 1068              	.L47:
 1069              	.LBE58:
 183:.\tm_layers.c ****                 }
 184:.\tm_layers.c ****             }
 185:.\tm_layers.c ****             //TM_PERF_ADD(t_sbuf);
 186:.\tm_layers.c ****             mtype_t* sptr = sbuf;    //sbuf prepare ok~
 187:.\tm_layers.c ****             if(maxk*chi==9 && dmul){ //simple opt for 3x3 dwconv
 1070              		.loc 1 187 0 is_stmt 1
 1071 0548 029B     		ldr	r3, [sp, #8]
 1072 054a 09FB03F3 		mul	r3, r9, r3
 1073 054e 0793     		str	r3, [sp, #28]
 1074 0550 092B     		cmp	r3, #9
 1075 0552 40F03981 		bne	.L106
 1076              		.loc 1 187 0 is_stmt 0 discriminator 1
 1077 0556 259B     		ldr	r3, [sp, #148]
 1078 0558 002B     		cmp	r3, #0
 1079 055a 40F09180 		bne	.L107
 1080 055e 4FF00008 		mov	r8, #0
 1081 0562 334C     		ldr	r4, .L115+4
 1082 0564 1A97     		str	r7, [sp, #104]
 1083 0566 049F     		ldr	r7, [sp, #16]
 1084 0568 33E1     		b	.L59
 1085              	.LVL219:
 1086              	.L68:
 1087              	.LBB62:
 1088              	.LBB63:
 188:.\tm_layers.c ****                 int c = 0;
 189:.\tm_layers.c ****                 for(c=0; c<out->c; c++){
 190:.\tm_layers.c ****                     wtype_t* kptr = (wtype_t*)w + c*chi*maxk;//TM_PERF_START(t_dotp);
 1089              		.loc 1 190 0 is_stmt 1 discriminator 3
 1090 056a 029B     		ldr	r3, [sp, #8]
 1091 056c 03FB0BF2 		mul	r2, r3, fp
 1092 0570 09FB02F2 		mul	r2, r9, r2
 1093 0574 0199     		ldr	r1, [sp, #4]
 1094 0576 0B46     		mov	r3, r1
 1095 0578 1344     		add	r3, r3, r2
 1096              	.LVL220:
 1097              	.LBB64:
 1098              	.LBB65:
  82:.\arch_cpu.h  ****         sptr[3]*kptr[3] + sptr[4]*kptr[4] + sptr[5]*kptr[5] + \
 1099              		.loc 2 82 0 discriminator 3
 1100 057a 9AF90000 		ldrsb	r0, [r10]
 1101 057e 8956     		ldrsb	r1, [r1, r2]
ARM GAS  C:\Users\kuzni\AppData\Local\Temp\ccqUPoDe.s 			page 28


 1102 0580 9AF90140 		ldrsb	r4, [r10, #1]
 1103 0584 93F90120 		ldrsb	r2, [r3, #1]
 1104 0588 02FB04F2 		mul	r2, r2, r4
 1105 058c 01FB0021 		mla	r1, r1, r0, r2
 1106 0590 9AF90220 		ldrsb	r2, [r10, #2]
 1107 0594 93F90200 		ldrsb	r0, [r3, #2]
 1108 0598 00FB0211 		mla	r1, r0, r2, r1
  83:.\arch_cpu.h  ****         sptr[6]*kptr[6] + sptr[7]*kptr[7] + sptr[8]*kptr[8] ;
 1109              		.loc 2 83 0 discriminator 3
 1110 059c 9AF90320 		ldrsb	r2, [r10, #3]
 1111 05a0 93F90300 		ldrsb	r0, [r3, #3]
  82:.\arch_cpu.h  ****         sptr[3]*kptr[3] + sptr[4]*kptr[4] + sptr[5]*kptr[5] + \
 1112              		.loc 2 82 0 discriminator 3
 1113 05a4 00FB0211 		mla	r1, r0, r2, r1
  83:.\arch_cpu.h  ****         sptr[6]*kptr[6] + sptr[7]*kptr[7] + sptr[8]*kptr[8] ;
 1114              		.loc 2 83 0 discriminator 3
 1115 05a8 9AF90420 		ldrsb	r2, [r10, #4]
 1116 05ac 93F90400 		ldrsb	r0, [r3, #4]
 1117 05b0 00FB0211 		mla	r1, r0, r2, r1
 1118 05b4 9AF90520 		ldrsb	r2, [r10, #5]
 1119 05b8 93F90500 		ldrsb	r0, [r3, #5]
 1120 05bc 00FB0211 		mla	r1, r0, r2, r1
  84:.\arch_cpu.h  ****     return;
 1121              		.loc 2 84 0 discriminator 3
 1122 05c0 9AF90620 		ldrsb	r2, [r10, #6]
 1123 05c4 93F90600 		ldrsb	r0, [r3, #6]
  83:.\arch_cpu.h  ****         sptr[6]*kptr[6] + sptr[7]*kptr[7] + sptr[8]*kptr[8] ;
 1124              		.loc 2 83 0 discriminator 3
 1125 05c8 00FB0211 		mla	r1, r0, r2, r1
  84:.\arch_cpu.h  ****     return;
 1126              		.loc 2 84 0 discriminator 3
 1127 05cc 9AF90720 		ldrsb	r2, [r10, #7]
 1128 05d0 93F90700 		ldrsb	r0, [r3, #7]
 1129 05d4 00FB0211 		mla	r1, r0, r2, r1
 1130 05d8 9AF90820 		ldrsb	r2, [r10, #8]
 1131 05dc 93F90830 		ldrsb	r3, [r3, #8]
 1132              	.LVL221:
 1133 05e0 03FB0213 		mla	r3, r3, r2, r1
  82:.\arch_cpu.h  ****         sptr[3]*kptr[3] + sptr[4]*kptr[4] + sptr[5]*kptr[5] + \
 1134              		.loc 2 82 0 discriminator 3
 1135 05e4 0D93     		str	r3, [sp, #52]
 1136              	.LBE65:
 1137              	.LBE64:
 191:.\tm_layers.c ****                     tm_dot_prod_3x3x1(sptr, kptr, &sum);//TM_PERF_ADD(t_dotp);TM_PERF_START(t_post)
 192:.\tm_layers.c ****                     tm_postprocess_sum(1, &sum, b + c, act, outp, SUMSCALE, OUTSCALE, out_zp); outp
 1138              		.loc 1 192 0 discriminator 3
 1139 05e6 4FEA8B06 		lsl	r6, fp, #2
 1140              	.LVL222:
 1141              	.LBB66:
 1142              	.LBB67:
 166:.\arch_cpu.h  ****         sumtype_t sum = sums[i];
 1143              		.loc 2 166 0 discriminator 3
 1144 05ea 0025     		movs	r5, #0
 1145 05ec 3FE0     		b	.L61
 1146              	.LVL223:
 1147              	.L67:
 1148              	.LBB68:
ARM GAS  C:\Users\kuzni\AppData\Local\Temp\ccqUPoDe.s 			page 29


 167:.\arch_cpu.h  ****         sum += bs[i];
 1149              		.loc 2 167 0
 1150 05ee A846     		mov	r8, r5
 1151 05f0 0DAB     		add	r3, sp, #52
 1152              	.LVL224:
 1153 05f2 53F82500 		ldr	r0, [r3, r5, lsl #2]
 1154              	.LVL225:
 1155 05f6 06EB8504 		add	r4, r6, r5, lsl #2
 168:.\arch_cpu.h  ****         #if !TM_FASTSCALE
 1156              		.loc 2 168 0
 1157 05fa 039B     		ldr	r3, [sp, #12]
 1158              	.LVL226:
 1159 05fc 1B59     		ldr	r3, [r3, r4]
 1160              	.LVL227:
 170:.\arch_cpu.h  ****         #else 
 1161              		.loc 2 170 0
 1162 05fe 1844     		add	r0, r0, r3
 1163              	.LVL228:
 1164 0600 FFF7FEFF 		bl	__aeabi_i2f
 1165              	.LVL229:
 1166 0604 0A4B     		ldr	r3, .L115+4
 1167 0606 1C44     		add	r4, r4, r3
 1168 0608 D4F80019 		ldr	r1, [r4, #2304]	@ float
 1169 060c FFF7FEFF 		bl	__aeabi_fmul
 1170              	.LVL230:
 1171 0610 0446     		mov	r4, r0
 1172              	.LVL231:
 174:.\arch_cpu.h  ****         case TM_ACT_RELU:
 1173              		.loc 2 174 0
 1174 0612 209B     		ldr	r3, [sp, #128]
 1175 0614 012B     		cmp	r3, #1
 1176 0616 02D0     		beq	.L63
 1177 0618 032B     		cmp	r3, #3
 1178 061a 0BD0     		beq	.L64
 1179 061c 15E0     		b	.L62
 1180              	.L63:
 176:.\arch_cpu.h  ****             break;
 1181              		.loc 2 176 0
 1182 061e 0021     		movs	r1, #0
 1183 0620 FFF7FEFF 		bl	__aeabi_fcmpgt
 1184              	.LVL232:
 1185 0624 88B9     		cbnz	r0, .L62
 1186 0626 0024     		movs	r4, #0
 1187              	.LVL233:
 1188 0628 0FE0     		b	.L62
 1189              	.L116:
 1190 062a 00BF     		.align	2
 1191              	.L115:
 1192 062c F8100000 		.word	.LANCHOR1
 1193 0630 00000000 		.word	.LANCHOR0
 1194              	.LVL234:
 1195              	.L64:
 179:.\arch_cpu.h  ****         #if (!TM_FASTSCALE)
 1196              		.loc 2 179 0
 1197 0634 0021     		movs	r1, #0
 1198 0636 FFF7FEFF 		bl	__aeabi_fcmpgt
 1199              	.LVL235:
ARM GAS  C:\Users\kuzni\AppData\Local\Temp\ccqUPoDe.s 			page 30


 1200 063a 00B9     		cbnz	r0, .L65
 1201 063c 0024     		movs	r4, #0
 1202              	.LVL236:
 1203              	.L65:
 181:.\arch_cpu.h  ****         #else
 1204              		.loc 2 181 0
 1205 063e 2046     		mov	r0, r4
 1206 0640 7849     		ldr	r1, .L117
 1207 0642 FFF7FEFF 		bl	__aeabi_fcmpgt
 1208              	.LVL237:
 1209 0646 00B1     		cbz	r0, .L62
 1210 0648 764C     		ldr	r4, .L117
 1211              	.LVL238:
 1212              	.L62:
 1213              		.loc 2 190 0
 1214 064a 0698     		ldr	r0, [sp, #24]	@ float
 1215 064c 2146     		mov	r1, r4
 1216 064e FFF7FEFF 		bl	__aeabi_fmul
 1217              	.LVL239:
 1218 0652 0446     		mov	r4, r0
 1219              	.LVL240:
 1220 0654 2A98     		ldr	r0, [sp, #168]
 1221 0656 FFF7FEFF 		bl	__aeabi_i2f
 1222              	.LVL241:
 1223 065a 0146     		mov	r1, r0
 1224 065c 2046     		mov	r0, r4
 1225 065e FFF7FEFF 		bl	__aeabi_fadd
 1226              	.LVL242:
 1227 0662 FFF7FEFF 		bl	__aeabi_f2iz
 1228              	.LVL243:
 1229 0666 049B     		ldr	r3, [sp, #16]
 1230 0668 03F80800 		strb	r0, [r3, r8]
 1231              	.LBE68:
 166:.\arch_cpu.h  ****         sumtype_t sum = sums[i];
 1232              		.loc 2 166 0
 1233 066c 0135     		adds	r5, r5, #1
 1234              	.LVL244:
 1235              	.L61:
 1236 066e 002D     		cmp	r5, #0
 1237 0670 BDDD     		ble	.L67
 1238              	.LBE67:
 1239              	.LBE66:
 1240              		.loc 1 192 0 discriminator 3
 1241 0672 049B     		ldr	r3, [sp, #16]
 1242 0674 0133     		adds	r3, r3, #1
 1243 0676 0493     		str	r3, [sp, #16]
 1244              	.LVL245:
 193:.\tm_layers.c ****                     sptr += maxk; //dwconv need move step
 1245              		.loc 1 193 0 discriminator 3
 1246 0678 CA44     		add	r10, r10, r9
 1247              	.LVL246:
 1248              	.LBE63:
 189:.\tm_layers.c ****                     wtype_t* kptr = (wtype_t*)w + c*chi*maxk;//TM_PERF_START(t_dotp);
 1249              		.loc 1 189 0 discriminator 3
 1250 067a 0BF1010B 		add	fp, fp, #1
 1251              	.LVL247:
 1252 067e 03E0     		b	.L60
ARM GAS  C:\Users\kuzni\AppData\Local\Temp\ccqUPoDe.s 			page 31


 1253              	.LVL248:
 1254              	.L107:
 1255              	.LBE62:
 1256 0680 4FF0000B 		mov	fp, #0
 1257 0684 DFF8A0A1 		ldr	r10, .L117+4
 1258              	.LVL249:
 1259              	.L60:
 1260              	.LBB69:
 189:.\tm_layers.c ****                     wtype_t* kptr = (wtype_t*)w + c*chi*maxk;//TM_PERF_START(t_dotp);
 1261              		.loc 1 189 0 is_stmt 0 discriminator 1
 1262 0688 009B     		ldr	r3, [sp]
 1263 068a DB88     		ldrh	r3, [r3, #6]
 1264 068c 5B45     		cmp	r3, fp
 1265 068e 3FF76CAF 		bgt	.L68
 1266 0692 A5E0     		b	.L69
 1267              	.LVL250:
 1268              	.L82:
 1269              	.LBE69:
 1270              	.LBB70:
 1271              	.LBB71:
 194:.\tm_layers.c ****                 }
 195:.\tm_layers.c ****             }else {
 196:.\tm_layers.c ****                 int c = 0;
 197:.\tm_layers.c ****                 for(c=0; c<out->c; c++){
 198:.\tm_layers.c ****                     wtype_t* kptr = (wtype_t*)w + c*chi*maxk;//TM_PERF_START(t_dotp);
 1272              		.loc 1 198 0 is_stmt 1
 1273 0694 029B     		ldr	r3, [sp, #8]
 1274 0696 03FB08F0 		mul	r0, r3, r8
 1275 069a 019B     		ldr	r3, [sp, #4]
 1276 069c 09FB0030 		mla	r0, r9, r0, r3
 1277              	.LVL251:
 199:.\tm_layers.c ****                     tm_dot_prod(sptr, kptr, maxk*chi, &sum);//TM_PERF_ADD(t_dotp);TM_PERF_START(t_p
 1278              		.loc 1 199 0
 1279 06a0 079B     		ldr	r3, [sp, #28]
 1280 06a2 1E46     		mov	r6, r3
 1281              	.LVL252:
 1282              	.LBB72:
 1283              	.LBB73:
  25:.\arch_cpu.h  ****     for(; i+8-1 <cnt; ){
 1284              		.loc 2 25 0
 1285 06a4 23F0070E 		bic	lr, r3, #7
 1286              	.LVL253:
  24:.\arch_cpu.h  ****     uint32_t cnt = (size>>3)<<3;  //8
 1287              		.loc 2 24 0
 1288 06a8 0021     		movs	r1, #0
  23:.\arch_cpu.h  ****     uint32_t i = 0;
 1289              		.loc 2 23 0
 1290 06aa 0B46     		mov	r3, r1
 1291              	.LVL254:
 1292 06ac 39E0     		b	.L70
 1293              	.LVL255:
 1294              	.L71:
  27:.\arch_cpu.h  ****         sum += sptr[i]*kptr[i];i++;
 1295              		.loc 2 27 0
 1296 06ae 6556     		ldrsb	r5, [r4, r1]
 1297 06b0 10F901C0 		ldrsb	ip, [r0, r1]
 1298 06b4 0CFB0533 		mla	r3, ip, r5, r3
ARM GAS  C:\Users\kuzni\AppData\Local\Temp\ccqUPoDe.s 			page 32


 1299              	.LVL256:
 1300 06b8 01F1010C 		add	ip, r1, #1
 1301              	.LVL257:
  28:.\arch_cpu.h  ****         sum += sptr[i]*kptr[i];i++;
 1302              		.loc 2 28 0
 1303 06bc 14F90C50 		ldrsb	r5, [r4, ip]
 1304 06c0 10F90CC0 		ldrsb	ip, [r0, ip]
 1305              	.LVL258:
 1306 06c4 0CFB0533 		mla	r3, ip, r5, r3
 1307              	.LVL259:
 1308 06c8 01F1020C 		add	ip, r1, #2
 1309              	.LVL260:
  29:.\arch_cpu.h  ****         sum += sptr[i]*kptr[i];i++;
 1310              		.loc 2 29 0
 1311 06cc 14F90C50 		ldrsb	r5, [r4, ip]
 1312 06d0 10F90CC0 		ldrsb	ip, [r0, ip]
 1313              	.LVL261:
 1314 06d4 0CFB0533 		mla	r3, ip, r5, r3
 1315              	.LVL262:
 1316 06d8 01F1030C 		add	ip, r1, #3
 1317              	.LVL263:
  30:.\arch_cpu.h  ****         sum += sptr[i]*kptr[i];i++;
 1318              		.loc 2 30 0
 1319 06dc 14F90C50 		ldrsb	r5, [r4, ip]
 1320 06e0 10F90CC0 		ldrsb	ip, [r0, ip]
 1321              	.LVL264:
 1322 06e4 0CFB0533 		mla	r3, ip, r5, r3
 1323              	.LVL265:
 1324 06e8 01F1040C 		add	ip, r1, #4
 1325              	.LVL266:
  31:.\arch_cpu.h  ****         sum += sptr[i]*kptr[i];i++;
 1326              		.loc 2 31 0
 1327 06ec 14F90C50 		ldrsb	r5, [r4, ip]
 1328 06f0 10F90CC0 		ldrsb	ip, [r0, ip]
 1329              	.LVL267:
 1330 06f4 0CFB0533 		mla	r3, ip, r5, r3
 1331              	.LVL268:
 1332 06f8 01F1050C 		add	ip, r1, #5
 1333              	.LVL269:
  32:.\arch_cpu.h  ****         sum += sptr[i]*kptr[i];i++;
 1334              		.loc 2 32 0
 1335 06fc 14F90C50 		ldrsb	r5, [r4, ip]
 1336 0700 10F90CC0 		ldrsb	ip, [r0, ip]
 1337              	.LVL270:
 1338 0704 0CFB0533 		mla	r3, ip, r5, r3
 1339              	.LVL271:
 1340 0708 01F1060C 		add	ip, r1, #6
 1341              	.LVL272:
  33:.\arch_cpu.h  ****         sum += sptr[i]*kptr[i];i++;
 1342              		.loc 2 33 0
 1343 070c 14F90C50 		ldrsb	r5, [r4, ip]
 1344 0710 10F90CC0 		ldrsb	ip, [r0, ip]
 1345              	.LVL273:
 1346 0714 0CFB0533 		mla	r3, ip, r5, r3
 1347              	.LVL274:
  34:.\arch_cpu.h  ****     }
 1348              		.loc 2 34 0
ARM GAS  C:\Users\kuzni\AppData\Local\Temp\ccqUPoDe.s 			page 33


 1349 0718 A556     		ldrsb	r5, [r4, r2]
 1350 071a 8256     		ldrsb	r2, [r0, r2]
 1351              	.LVL275:
 1352 071c 02FB0533 		mla	r3, r2, r5, r3
 1353              	.LVL276:
 1354 0720 0831     		adds	r1, r1, #8
 1355              	.LVL277:
 1356              	.L70:
  26:.\arch_cpu.h  ****         sum += sptr[i]*kptr[i];i++;
 1357              		.loc 2 26 0
 1358 0722 CA1D     		adds	r2, r1, #7
 1359 0724 9645     		cmp	lr, r2
 1360 0726 C2D8     		bhi	.L71
 1361 0728 04E0     		b	.L72
 1362              	.L73:
  37:.\arch_cpu.h  ****     }
 1363              		.loc 2 37 0
 1364 072a 6256     		ldrsb	r2, [r4, r1]
 1365 072c 4556     		ldrsb	r5, [r0, r1]
 1366 072e 05FB0233 		mla	r3, r5, r2, r3
 1367              	.LVL278:
  36:.\arch_cpu.h  ****         sum += sptr[i]*kptr[i]; 
 1368              		.loc 2 36 0
 1369 0732 0131     		adds	r1, r1, #1
 1370              	.LVL279:
 1371              	.L72:
 1372 0734 8E42     		cmp	r6, r1
 1373 0736 F8D8     		bhi	.L73
  39:.\arch_cpu.h  ****     return;
 1374              		.loc 2 39 0
 1375 0738 0D93     		str	r3, [sp, #52]
 1376              	.LBE73:
 1377              	.LBE72:
 200:.\tm_layers.c ****                     tm_postprocess_sum(1, &sum, b + c, act, outp, SUMSCALE, OUTSCALE, out_zp); outp
 1378              		.loc 1 200 0
 1379 073a 4FEA880A 		lsl	r10, r8, #2
 1380              	.LVL280:
 1381              	.LBB74:
 1382              	.LBB75:
 166:.\arch_cpu.h  ****         sumtype_t sum = sums[i];
 1383              		.loc 2 166 0
 1384 073e 0025     		movs	r5, #0
 1385 0740 39E0     		b	.L74
 1386              	.LVL281:
 1387              	.L80:
 1388              	.LBB76:
 167:.\arch_cpu.h  ****         sum += bs[i];
 1389              		.loc 2 167 0
 1390 0742 AB46     		mov	fp, r5
 1391 0744 0DAB     		add	r3, sp, #52
 1392              	.LVL282:
 1393 0746 53F82500 		ldr	r0, [r3, r5, lsl #2]
 1394              	.LVL283:
 1395 074a 0AEB8506 		add	r6, r10, r5, lsl #2
 168:.\arch_cpu.h  ****         #if !TM_FASTSCALE
 1396              		.loc 2 168 0
 1397 074e 039B     		ldr	r3, [sp, #12]
ARM GAS  C:\Users\kuzni\AppData\Local\Temp\ccqUPoDe.s 			page 34


 1398              	.LVL284:
 1399 0750 9B59     		ldr	r3, [r3, r6]
 1400              	.LVL285:
 170:.\arch_cpu.h  ****         #else 
 1401              		.loc 2 170 0
 1402 0752 1844     		add	r0, r0, r3
 1403              	.LVL286:
 1404 0754 FFF7FEFF 		bl	__aeabi_i2f
 1405              	.LVL287:
 1406 0758 334B     		ldr	r3, .L117+4
 1407 075a 1E44     		add	r6, r6, r3
 1408 075c D6F80019 		ldr	r1, [r6, #2304]	@ float
 1409 0760 FFF7FEFF 		bl	__aeabi_fmul
 1410              	.LVL288:
 1411 0764 0646     		mov	r6, r0
 1412              	.LVL289:
 174:.\arch_cpu.h  ****         case TM_ACT_RELU:
 1413              		.loc 2 174 0
 1414 0766 209B     		ldr	r3, [sp, #128]
 1415 0768 012B     		cmp	r3, #1
 1416 076a 02D0     		beq	.L76
 1417 076c 032B     		cmp	r3, #3
 1418 076e 06D0     		beq	.L77
 1419 0770 10E0     		b	.L75
 1420              	.L76:
 176:.\arch_cpu.h  ****             break;
 1421              		.loc 2 176 0
 1422 0772 0021     		movs	r1, #0
 1423 0774 FFF7FEFF 		bl	__aeabi_fcmpgt
 1424              	.LVL290:
 1425 0778 60B9     		cbnz	r0, .L75
 1426 077a 0026     		movs	r6, #0
 1427              	.LVL291:
 1428 077c 0AE0     		b	.L75
 1429              	.LVL292:
 1430              	.L77:
 179:.\arch_cpu.h  ****         #if (!TM_FASTSCALE)
 1431              		.loc 2 179 0
 1432 077e 0021     		movs	r1, #0
 1433 0780 FFF7FEFF 		bl	__aeabi_fcmpgt
 1434              	.LVL293:
 1435 0784 00B9     		cbnz	r0, .L78
 1436 0786 0026     		movs	r6, #0
 1437              	.LVL294:
 1438              	.L78:
 181:.\arch_cpu.h  ****         #else
 1439              		.loc 2 181 0
 1440 0788 3046     		mov	r0, r6
 1441 078a 2649     		ldr	r1, .L117
 1442 078c FFF7FEFF 		bl	__aeabi_fcmpgt
 1443              	.LVL295:
 1444 0790 00B1     		cbz	r0, .L75
 1445 0792 244E     		ldr	r6, .L117
 1446              	.LVL296:
 1447              	.L75:
 1448              		.loc 2 190 0
 1449 0794 0698     		ldr	r0, [sp, #24]	@ float
ARM GAS  C:\Users\kuzni\AppData\Local\Temp\ccqUPoDe.s 			page 35


 1450 0796 3146     		mov	r1, r6
 1451 0798 FFF7FEFF 		bl	__aeabi_fmul
 1452              	.LVL297:
 1453 079c 0646     		mov	r6, r0
 1454              	.LVL298:
 1455 079e 2A98     		ldr	r0, [sp, #168]
 1456 07a0 FFF7FEFF 		bl	__aeabi_i2f
 1457              	.LVL299:
 1458 07a4 0146     		mov	r1, r0
 1459 07a6 3046     		mov	r0, r6
 1460 07a8 FFF7FEFF 		bl	__aeabi_fadd
 1461              	.LVL300:
 1462 07ac FFF7FEFF 		bl	__aeabi_f2iz
 1463              	.LVL301:
 1464 07b0 07F80B00 		strb	r0, [r7, fp]
 1465              	.LBE76:
 166:.\arch_cpu.h  ****         sumtype_t sum = sums[i];
 1466              		.loc 2 166 0
 1467 07b4 0135     		adds	r5, r5, #1
 1468              	.LVL302:
 1469              	.L74:
 1470 07b6 002D     		cmp	r5, #0
 1471 07b8 C3DD     		ble	.L80
 1472              	.LBE75:
 1473              	.LBE74:
 1474              		.loc 1 200 0
 1475 07ba 0137     		adds	r7, r7, #1
 1476              	.LVL303:
 201:.\tm_layers.c ****                     if(dmul) sptr += maxk; //dwconv need move step
 1477              		.loc 1 201 0
 1478 07bc 259B     		ldr	r3, [sp, #148]
 1479 07be 03B1     		cbz	r3, .L81
 1480              		.loc 1 201 0 is_stmt 0 discriminator 1
 1481 07c0 4C44     		add	r4, r4, r9
 1482              	.LVL304:
 1483              	.L81:
 1484              	.LBE71:
 197:.\tm_layers.c ****                     wtype_t* kptr = (wtype_t*)w + c*chi*maxk;//TM_PERF_START(t_dotp);
 1485              		.loc 1 197 0 is_stmt 1 discriminator 2
 1486 07c2 08F10108 		add	r8, r8, #1
 1487              	.LVL305:
 1488 07c6 04E0     		b	.L59
 1489              	.LVL306:
 1490              	.L106:
 1491              	.LBE70:
 1492 07c8 4FF00008 		mov	r8, #0
 1493 07cc 164C     		ldr	r4, .L117+4
 1494 07ce 1A97     		str	r7, [sp, #104]
 1495 07d0 049F     		ldr	r7, [sp, #16]
 1496              	.LVL307:
 1497              	.L59:
 1498              	.LBB77:
 197:.\tm_layers.c ****                     wtype_t* kptr = (wtype_t*)w + c*chi*maxk;//TM_PERF_START(t_dotp);
 1499              		.loc 1 197 0 is_stmt 0 discriminator 1
 1500 07d2 009B     		ldr	r3, [sp]
 1501 07d4 DB88     		ldrh	r3, [r3, #6]
 1502 07d6 4345     		cmp	r3, r8
ARM GAS  C:\Users\kuzni\AppData\Local\Temp\ccqUPoDe.s 			page 36


 1503 07d8 3FF75CAF 		bgt	.L82
 1504 07dc 0497     		str	r7, [sp, #16]
 1505 07de 1A9F     		ldr	r7, [sp, #104]
 1506              	.LVL308:
 1507              	.L69:
 1508              	.LBE77:
 1509              	.LBE54:
 137:.\tm_layers.c ****             int src_x0 = sx*x - pad_left;
 1510              		.loc 1 137 0 is_stmt 1 discriminator 2
 1511 07e0 0B9B     		ldr	r3, [sp, #44]
 1512 07e2 0133     		adds	r3, r3, #1
 1513 07e4 0B93     		str	r3, [sp, #44]
 1514              	.LVL309:
 1515              	.L39:
 1516 07e6 009B     		ldr	r3, [sp]
 1517 07e8 9B88     		ldrh	r3, [r3, #4]
 1518 07ea 0B9A     		ldr	r2, [sp, #44]
 1519 07ec 9342     		cmp	r3, r2
 1520 07ee 3FF705AE 		bgt	.L83
 1521              	.LBE53:
 135:.\tm_layers.c ****         int src_y0 = sy*y - pad_top;
 1522              		.loc 1 135 0 discriminator 2
 1523 07f2 0A9B     		ldr	r3, [sp, #40]
 1524 07f4 0133     		adds	r3, r3, #1
 1525 07f6 0A93     		str	r3, [sp, #40]
 1526              	.LVL310:
 1527              	.L38:
 135:.\tm_layers.c ****         int src_y0 = sy*y - pad_top;
 1528              		.loc 1 135 0 is_stmt 0 discriminator 1
 1529 07f8 009B     		ldr	r3, [sp]
 1530 07fa 5B88     		ldrh	r3, [r3, #2]
 1531 07fc 0A9A     		ldr	r2, [sp, #40]
 1532 07fe 9342     		cmp	r3, r2
 1533 0800 3FF7F2AD 		bgt	.L84
 202:.\tm_layers.c ****                 }
 203:.\tm_layers.c ****             }
 204:.\tm_layers.c ****             if(!slow_flag) {TM_PERF_ADD(t_valid);} else {TM_PERF_ADD(t_pad);}
 205:.\tm_layers.c ****         }
 206:.\tm_layers.c ****     }
 207:.\tm_layers.c ****     if(dmul) {TM_PERF_ADD(t_dwconv);} else {TM_PERF_ADD(t_conv);};
 208:.\tm_layers.c ****     return TM_OK;
 1534              		.loc 1 208 0 is_stmt 1
 1535 0804 0020     		movs	r0, #0
 1536 0806 0AE0     		b	.L3
 1537              	.LVL311:
 1538              	.L89:
  72:.\tm_layers.c ****     if(act >= TM_ACT_MAXCNT) return TM_ERR_UNSUPPORT;
 1539              		.loc 1 72 0
 1540 0808 0720     		movs	r0, #7
 1541              	.LVL312:
 1542 080a 08E0     		b	.L3
 1543              	.LVL313:
 1544              	.L90:
 1545 080c 0720     		movs	r0, #7
 1546              	.LVL314:
 1547 080e 06E0     		b	.L3
 1548              	.LVL315:
ARM GAS  C:\Users\kuzni\AppData\Local\Temp\ccqUPoDe.s 			page 37


 1549              	.L91:
  73:.\tm_layers.c ****     int maxk = kw*kh;
 1550              		.loc 1 73 0
 1551 0810 0320     		movs	r0, #3
 1552              	.LVL316:
 1553 0812 04E0     		b	.L3
 1554              	.LVL317:
 1555              	.L92:
  75:.\tm_layers.c ****     if(maxk==1 && (pad_flag||dmul)) return TM_ERR_UNSUPPORT;   //assume no pad or dwconv when pwcon
 1556              		.loc 1 75 0
 1557 0814 0920     		movs	r0, #9
 1558              	.LVL318:
 1559 0816 02E0     		b	.L3
 1560              	.LVL319:
 1561              	.L93:
  76:.\tm_layers.c ****     int chi  = in->c;
 1562              		.loc 1 76 0
 1563 0818 0320     		movs	r0, #3
 1564              	.LVL320:
 1565 081a 00E0     		b	.L3
 1566              	.LVL321:
 1567              	.L94:
 1568 081c 0320     		movs	r0, #3
 1569              	.LVL322:
 1570              	.L3:
 209:.\tm_layers.c **** }
 1571              		.loc 1 209 0 discriminator 1
 1572 081e 11B0     		add	sp, sp, #68
 1573              		.cfi_def_cfa_offset 36
 1574              	.LVL323:
 1575              		@ sp needed
 1576 0820 BDE8F08F 		pop	{r4, r5, r6, r7, r8, r9, r10, fp, pc}
 1577              	.LVL324:
 1578              	.L118:
 1579              		.align	2
 1580              	.L117:
 1581 0824 0000C040 		.word	1086324736
 1582 0828 00000000 		.word	.LANCHOR0
 1583              		.cfi_endproc
 1584              	.LFE6:
 1585              		.size	tml_conv2d_dwconv2d, .-tml_conv2d_dwconv2d
 1586              		.section	.text.tml_gap,"ax",%progbits
 1587              		.align	2
 1588              		.weak	tml_gap
 1589              		.thumb
 1590              		.thumb_func
 1591              		.type	tml_gap, %function
 1592              	tml_gap:
 1593              	.LFB7:
 210:.\tm_layers.c **** 
 211:.\tm_layers.c **** /*************************** TML_GAP **********************************/
 212:.\tm_layers.c **** tm_err_t TM_WEAK tml_gap(tm_mat_t* in, tm_mat_t* out, sctype_t in_s, zptype_t in_zp, sctype_t out_s
 213:.\tm_layers.c **** {   TM_DBGT_INIT();
 1594              		.loc 1 213 0
 1595              		.cfi_startproc
 1596              		@ args = 8, pretend = 0, frame = 0
 1597              		@ frame_needed = 0, uses_anonymous_args = 0
ARM GAS  C:\Users\kuzni\AppData\Local\Temp\ccqUPoDe.s 			page 38


 1598              	.LVL325:
 1599 0000 2DE9F84F 		push	{r3, r4, r5, r6, r7, r8, r9, r10, fp, lr}
 1600              		.cfi_def_cfa_offset 40
 1601              		.cfi_offset 3, -40
 1602              		.cfi_offset 4, -36
 1603              		.cfi_offset 5, -32
 1604              		.cfi_offset 6, -28
 1605              		.cfi_offset 7, -24
 1606              		.cfi_offset 8, -20
 1607              		.cfi_offset 9, -16
 1608              		.cfi_offset 10, -12
 1609              		.cfi_offset 11, -8
 1610              		.cfi_offset 14, -4
 1611 0004 0446     		mov	r4, r0
 1612 0006 0E46     		mov	r6, r1
 1613 0008 9146     		mov	r9, r2
 1614 000a 9846     		mov	r8, r3
 1615              	.LVL326:
 214:.\tm_layers.c ****     mtype_t* data;
 215:.\tm_layers.c ****     int c = 0;
 216:.\tm_layers.c ****     for(c=0; c <out->c; c++){
 1616              		.loc 1 216 0
 1617 000c 0025     		movs	r5, #0
 1618 000e 33E0     		b	.L120
 1619              	.LVL327:
 1620              	.L124:
 1621              	.LBB78:
 217:.\tm_layers.c ****         sumtype_t sum = 0;
 218:.\tm_layers.c ****         data = in->data + c;
 1622              		.loc 1 218 0
 1623 0010 A268     		ldr	r2, [r4, #8]
 1624 0012 2F46     		mov	r7, r5
 1625 0014 2A44     		add	r2, r2, r5
 1626              	.LVL328:
 219:.\tm_layers.c ****         int y = 0;
 220:.\tm_layers.c ****         int x = 0;
 221:.\tm_layers.c ****         for(y=0; y <in->h; y++){
 1627              		.loc 1 221 0
 1628 0016 4FF0000C 		mov	ip, #0
 217:.\tm_layers.c ****         sumtype_t sum = 0;
 1629              		.loc 1 217 0
 1630 001a 6046     		mov	r0, ip
 1631              		.loc 1 221 0
 1632 001c 0BE0     		b	.L121
 1633              	.LVL329:
 1634              	.L122:
 222:.\tm_layers.c ****             for(x=0; x <in->w; x++){
 223:.\tm_layers.c ****                 sum  += ((sumtype_t)(*data));
 1635              		.loc 1 223 0 discriminator 3
 1636 001e 92F90010 		ldrsb	r1, [r2]
 1637 0022 0844     		add	r0, r0, r1
 1638              	.LVL330:
 224:.\tm_layers.c ****                 data += out->c;
 1639              		.loc 1 224 0 discriminator 3
 1640 0024 7244     		add	r2, r2, lr
 1641              	.LVL331:
 222:.\tm_layers.c ****             for(x=0; x <in->w; x++){
ARM GAS  C:\Users\kuzni\AppData\Local\Temp\ccqUPoDe.s 			page 39


 1642              		.loc 1 222 0 discriminator 3
 1643 0026 0133     		adds	r3, r3, #1
 1644              	.LVL332:
 1645 0028 00E0     		b	.L123
 1646              	.LVL333:
 1647              	.L125:
 1648 002a 0023     		movs	r3, #0
 1649              	.L123:
 1650              	.LVL334:
 222:.\tm_layers.c ****             for(x=0; x <in->w; x++){
 1651              		.loc 1 222 0 is_stmt 0 discriminator 1
 1652 002c A188     		ldrh	r1, [r4, #4]
 1653 002e 9942     		cmp	r1, r3
 1654 0030 F5DC     		bgt	.L122
 221:.\tm_layers.c ****             for(x=0; x <in->w; x++){
 1655              		.loc 1 221 0 is_stmt 1 discriminator 2
 1656 0032 0CF1010C 		add	ip, ip, #1
 1657              	.LVL335:
 1658              	.L121:
 221:.\tm_layers.c ****             for(x=0; x <in->w; x++){
 1659              		.loc 1 221 0 is_stmt 0 discriminator 1
 1660 0036 6388     		ldrh	r3, [r4, #2]
 1661 0038 6345     		cmp	r3, ip
 1662 003a F6DC     		bgt	.L125
 225:.\tm_layers.c ****             }
 226:.\tm_layers.c ****         }
 227:.\tm_layers.c ****     #if TM_MDL_TYPE == TM_MDL_INT8 || TM_MDL_TYPE == TM_MDL_INT16
 228:.\tm_layers.c ****         out->data[c] = (mtype_t)((sum/((in->h)*(in->w))-in_zp)*in_s/out_s + out_zp); //requant
 1663              		.loc 1 228 0 is_stmt 1 discriminator 2
 1664 003c D6F808A0 		ldr	r10, [r6, #8]
 1665 0040 A288     		ldrh	r2, [r4, #4]
 1666              	.LVL336:
 1667 0042 02FB03F3 		mul	r3, r2, r3
 1668 0046 90FBF3F0 		sdiv	r0, r0, r3
 1669              	.LVL337:
 1670 004a C8EB0000 		rsb	r0, r8, r0
 1671 004e FFF7FEFF 		bl	__aeabi_i2f
 1672              	.LVL338:
 1673 0052 4946     		mov	r1, r9
 1674 0054 FFF7FEFF 		bl	__aeabi_fmul
 1675              	.LVL339:
 1676 0058 0A99     		ldr	r1, [sp, #40]	@ float
 1677 005a FFF7FEFF 		bl	__aeabi_fdiv
 1678              	.LVL340:
 1679 005e 8346     		mov	fp, r0
 1680 0060 0B98     		ldr	r0, [sp, #44]
 1681 0062 FFF7FEFF 		bl	__aeabi_i2f
 1682              	.LVL341:
 1683 0066 0146     		mov	r1, r0
 1684 0068 5846     		mov	r0, fp
 1685 006a FFF7FEFF 		bl	__aeabi_fadd
 1686              	.LVL342:
 1687 006e FFF7FEFF 		bl	__aeabi_f2iz
 1688              	.LVL343:
 1689 0072 0AF80700 		strb	r0, [r10, r7]
 1690              	.LBE78:
 216:.\tm_layers.c ****         sumtype_t sum = 0;
ARM GAS  C:\Users\kuzni\AppData\Local\Temp\ccqUPoDe.s 			page 40


 1691              		.loc 1 216 0 discriminator 2
 1692 0076 0135     		adds	r5, r5, #1
 1693              	.LVL344:
 1694              	.L120:
 216:.\tm_layers.c ****         sumtype_t sum = 0;
 1695              		.loc 1 216 0 is_stmt 0 discriminator 1
 1696 0078 B6F806E0 		ldrh	lr, [r6, #6]
 1697 007c AE45     		cmp	lr, r5
 1698 007e C7DC     		bgt	.L124
 229:.\tm_layers.c ****     #elif TM_MDL_TYPE == TM_MDL_FP32 || TM_MDL_TYPE == TM_MDL_FP16
 230:.\tm_layers.c ****         out->data[c] = (mtype_t)(sum/((in->h)*(in->w)));
 231:.\tm_layers.c ****     //#else //#elif TM_MDL_TYPE == TM_MDL_FP8_143 || TM_MDL_TYPE == TM_MDL_FP8_152
 232:.\tm_layers.c ****     #endif
 233:.\tm_layers.c ****     }
 234:.\tm_layers.c ****     return TM_OK;
 235:.\tm_layers.c **** }
 1699              		.loc 1 235 0 is_stmt 1
 1700 0080 0020     		movs	r0, #0
 1701 0082 BDE8F88F 		pop	{r3, r4, r5, r6, r7, r8, r9, r10, fp, pc}
 1702              		.cfi_endproc
 1703              	.LFE7:
 1704              		.size	tml_gap, .-tml_gap
 1705 0086 00BF     		.section	.text.tml_fc,"ax",%progbits
 1706              		.align	2
 1707              		.weak	tml_fc
 1708              		.thumb
 1709              		.thumb_func
 1710              		.type	tml_fc, %function
 1711              	tml_fc:
 1712              	.LFB8:
 236:.\tm_layers.c **** 
 237:.\tm_layers.c **** /*************************** TML_FC **********************************/
 238:.\tm_layers.c **** tm_err_t TM_WEAK tml_fc(tm_mat_t* in, tm_mat_t* out,  wtype_t* w, btype_t* b, \
 239:.\tm_layers.c ****     sctype_t* ws, sctype_t in_s, zptype_t in_zp, sctype_t out_s, zptype_t out_zp)
 240:.\tm_layers.c **** {   TM_DBGT_INIT();
 1713              		.loc 1 240 0
 1714              		.cfi_startproc
 1715              		@ args = 20, pretend = 0, frame = 0
 1716              		@ frame_needed = 0, uses_anonymous_args = 0
 1717              	.LVL345:
 1718 0000 2DE9F84F 		push	{r3, r4, r5, r6, r7, r8, r9, r10, fp, lr}
 1719              		.cfi_def_cfa_offset 40
 1720              		.cfi_offset 3, -40
 1721              		.cfi_offset 4, -36
 1722              		.cfi_offset 5, -32
 1723              		.cfi_offset 6, -28
 1724              		.cfi_offset 7, -24
 1725              		.cfi_offset 8, -20
 1726              		.cfi_offset 9, -16
 1727              		.cfi_offset 10, -12
 1728              		.cfi_offset 11, -8
 1729              		.cfi_offset 14, -4
 1730 0004 0746     		mov	r7, r0
 1731 0006 0E46     		mov	r6, r1
 1732 0008 9146     		mov	r9, r2
 1733 000a 9846     		mov	r8, r3
 241:.\tm_layers.c ****     mtype_t* data = in->data;
ARM GAS  C:\Users\kuzni\AppData\Local\Temp\ccqUPoDe.s 			page 41


 1734              		.loc 1 241 0
 1735 000c 8468     		ldr	r4, [r0, #8]
 1736              	.LVL346:
 242:.\tm_layers.c ****     int c = 0;
 243:.\tm_layers.c ****     for(c=0; c <out->c; c++){
 1737              		.loc 1 243 0
 1738 000e 0025     		movs	r5, #0
 1739 0010 6AE0     		b	.L128
 1740              	.LVL347:
 1741              	.L133:
 1742              	.LBB79:
 244:.\tm_layers.c ****         sumtype_t sum = 0;
 245:.\tm_layers.c ****         tm_dot_prod(data, w+c*in->c, in->c, &sum);
 1743              		.loc 1 245 0 discriminator 3
 1744 0012 B7F806A0 		ldrh	r10, [r7, #6]
 1745 0016 05FB0A9E 		mla	lr, r5, r10, r9
 1746 001a D346     		mov	fp, r10
 1747              	.LVL348:
 1748              	.LBB80:
 1749              	.LBB81:
  25:.\arch_cpu.h  ****     for(; i+8-1 <cnt; ){
 1750              		.loc 2 25 0 discriminator 3
 1751 001c 2AF0070A 		bic	r10, r10, #7
 1752              	.LVL349:
  24:.\arch_cpu.h  ****     uint32_t cnt = (size>>3)<<3;  //8
 1753              		.loc 2 24 0 discriminator 3
 1754 0020 0021     		movs	r1, #0
  23:.\arch_cpu.h  ****     uint32_t i = 0;
 1755              		.loc 2 23 0 discriminator 3
 1756 0022 0B46     		mov	r3, r1
 1757 0024 36E0     		b	.L129
 1758              	.LVL350:
 1759              	.L130:
  27:.\arch_cpu.h  ****         sum += sptr[i]*kptr[i];i++;
 1760              		.loc 2 27 0
 1761 0026 6256     		ldrsb	r2, [r4, r1]
 1762 0028 1EF901C0 		ldrsb	ip, [lr, r1]
 1763 002c 0CFB0233 		mla	r3, ip, r2, r3
 1764              	.LVL351:
 1765 0030 4A1C     		adds	r2, r1, #1
 1766              	.LVL352:
  28:.\arch_cpu.h  ****         sum += sptr[i]*kptr[i];i++;
 1767              		.loc 2 28 0
 1768 0032 14F902C0 		ldrsb	ip, [r4, r2]
 1769 0036 1EF90220 		ldrsb	r2, [lr, r2]
 1770              	.LVL353:
 1771 003a 02FB0C33 		mla	r3, r2, ip, r3
 1772              	.LVL354:
 1773 003e 8A1C     		adds	r2, r1, #2
 1774              	.LVL355:
  29:.\arch_cpu.h  ****         sum += sptr[i]*kptr[i];i++;
 1775              		.loc 2 29 0
 1776 0040 14F902C0 		ldrsb	ip, [r4, r2]
 1777 0044 1EF90220 		ldrsb	r2, [lr, r2]
 1778              	.LVL356:
 1779 0048 02FB0C33 		mla	r3, r2, ip, r3
 1780              	.LVL357:
ARM GAS  C:\Users\kuzni\AppData\Local\Temp\ccqUPoDe.s 			page 42


 1781 004c 01F1030C 		add	ip, r1, #3
 1782              	.LVL358:
  30:.\arch_cpu.h  ****         sum += sptr[i]*kptr[i];i++;
 1783              		.loc 2 30 0
 1784 0050 14F90C20 		ldrsb	r2, [r4, ip]
 1785 0054 1EF90CC0 		ldrsb	ip, [lr, ip]
 1786              	.LVL359:
 1787 0058 0CFB023C 		mla	ip, ip, r2, r3
 1788              	.LVL360:
 1789 005c 0A1D     		adds	r2, r1, #4
 1790              	.LVL361:
  31:.\arch_cpu.h  ****         sum += sptr[i]*kptr[i];i++;
 1791              		.loc 2 31 0
 1792 005e A356     		ldrsb	r3, [r4, r2]
 1793 0060 1EF90220 		ldrsb	r2, [lr, r2]
 1794              	.LVL362:
 1795 0064 02FB03C2 		mla	r2, r2, r3, ip
 1796              	.LVL363:
 1797 0068 01F1050C 		add	ip, r1, #5
 1798              	.LVL364:
  32:.\arch_cpu.h  ****         sum += sptr[i]*kptr[i];i++;
 1799              		.loc 2 32 0
 1800 006c 14F90C30 		ldrsb	r3, [r4, ip]
 1801 0070 1EF90CC0 		ldrsb	ip, [lr, ip]
 1802              	.LVL365:
 1803 0074 0CFB0323 		mla	r3, ip, r3, r2
 1804              	.LVL366:
 1805 0078 01F1060C 		add	ip, r1, #6
 1806              	.LVL367:
  33:.\arch_cpu.h  ****         sum += sptr[i]*kptr[i];i++;
 1807              		.loc 2 33 0
 1808 007c 14F90C20 		ldrsb	r2, [r4, ip]
 1809 0080 1EF90CC0 		ldrsb	ip, [lr, ip]
 1810              	.LVL368:
 1811 0084 0CFB0233 		mla	r3, ip, r2, r3
 1812              	.LVL369:
  34:.\arch_cpu.h  ****     }
 1813              		.loc 2 34 0
 1814 0088 2256     		ldrsb	r2, [r4, r0]
 1815 008a 1EF90000 		ldrsb	r0, [lr, r0]
 1816              	.LVL370:
 1817 008e 00FB0233 		mla	r3, r0, r2, r3
 1818              	.LVL371:
 1819 0092 0831     		adds	r1, r1, #8
 1820              	.LVL372:
 1821              	.L129:
  26:.\arch_cpu.h  ****         sum += sptr[i]*kptr[i];i++;
 1822              		.loc 2 26 0
 1823 0094 C81D     		adds	r0, r1, #7
 1824 0096 8245     		cmp	r10, r0
 1825 0098 C5D8     		bhi	.L130
 1826 009a 05E0     		b	.L131
 1827              	.L132:
  37:.\arch_cpu.h  ****     }
 1828              		.loc 2 37 0
 1829 009c 6256     		ldrsb	r2, [r4, r1]
 1830 009e 1EF90100 		ldrsb	r0, [lr, r1]
ARM GAS  C:\Users\kuzni\AppData\Local\Temp\ccqUPoDe.s 			page 43


 1831 00a2 00FB0233 		mla	r3, r0, r2, r3
 1832              	.LVL373:
  36:.\arch_cpu.h  ****         sum += sptr[i]*kptr[i]; 
 1833              		.loc 2 36 0
 1834 00a6 0131     		adds	r1, r1, #1
 1835              	.LVL374:
 1836              	.L131:
 1837 00a8 8B45     		cmp	fp, r1
 1838 00aa F7D8     		bhi	.L132
 1839              	.LBE81:
 1840              	.LBE80:
 246:.\tm_layers.c ****         sum += b[c];    //fuse with zp
 1841              		.loc 1 246 0 discriminator 3
 1842 00ac 58F82500 		ldr	r0, [r8, r5, lsl #2]
 1843              	.LVL375:
 247:.\tm_layers.c ****     #if TM_MDL_TYPE == TM_MDL_INT8 || TM_MDL_TYPE == TM_MDL_INT16
 248:.\tm_layers.c ****         out->data[c] = (mtype_t)(sum*in_s*ws[0]/out_s + out_zp); //requant
 1844              		.loc 1 248 0 discriminator 3
 1845 00b0 D6F808A0 		ldr	r10, [r6, #8]
 1846              	.LVL376:
 1847 00b4 1844     		add	r0, r0, r3
 1848              	.LVL377:
 1849 00b6 FFF7FEFF 		bl	__aeabi_i2f
 1850              	.LVL378:
 1851 00ba 0B99     		ldr	r1, [sp, #44]	@ float
 1852 00bc FFF7FEFF 		bl	__aeabi_fmul
 1853              	.LVL379:
 1854 00c0 0A9B     		ldr	r3, [sp, #40]
 1855 00c2 1968     		ldr	r1, [r3]	@ float
 1856 00c4 FFF7FEFF 		bl	__aeabi_fmul
 1857              	.LVL380:
 1858 00c8 0D99     		ldr	r1, [sp, #52]	@ float
 1859 00ca FFF7FEFF 		bl	__aeabi_fdiv
 1860              	.LVL381:
 1861 00ce 8346     		mov	fp, r0
 1862              	.LVL382:
 1863 00d0 0E98     		ldr	r0, [sp, #56]
 1864 00d2 FFF7FEFF 		bl	__aeabi_i2f
 1865              	.LVL383:
 1866 00d6 0146     		mov	r1, r0
 1867 00d8 5846     		mov	r0, fp
 1868 00da FFF7FEFF 		bl	__aeabi_fadd
 1869              	.LVL384:
 1870 00de FFF7FEFF 		bl	__aeabi_f2iz
 1871              	.LVL385:
 1872 00e2 0AF80500 		strb	r0, [r10, r5]
 1873              	.LBE79:
 243:.\tm_layers.c ****         sumtype_t sum = 0;
 1874              		.loc 1 243 0 discriminator 3
 1875 00e6 0135     		adds	r5, r5, #1
 1876              	.LVL386:
 1877              	.L128:
 243:.\tm_layers.c ****         sumtype_t sum = 0;
 1878              		.loc 1 243 0 is_stmt 0 discriminator 1
 1879 00e8 F388     		ldrh	r3, [r6, #6]
 1880 00ea AB42     		cmp	r3, r5
 1881 00ec 91DC     		bgt	.L133
ARM GAS  C:\Users\kuzni\AppData\Local\Temp\ccqUPoDe.s 			page 44


 249:.\tm_layers.c ****     #else
 250:.\tm_layers.c ****         out->data[c] = (mtype_t)(sum);
 251:.\tm_layers.c ****     #endif
 252:.\tm_layers.c ****     }
 253:.\tm_layers.c ****     return TM_OK;
 254:.\tm_layers.c **** }
 1882              		.loc 1 254 0 is_stmt 1
 1883 00ee 0020     		movs	r0, #0
 1884 00f0 BDE8F88F 		pop	{r3, r4, r5, r6, r7, r8, r9, r10, fp, pc}
 1885              		.cfi_endproc
 1886              	.LFE8:
 1887              		.size	tml_fc, .-tml_fc
 1888              		.global	__aeabi_fcmplt
 1889              		.global	__aeabi_fsub
 1890              		.global	__aeabi_f2uiz
 1891              		.section	.text.tml_softmax,"ax",%progbits
 1892              		.align	2
 1893              		.weak	tml_softmax
 1894              		.thumb
 1895              		.thumb_func
 1896              		.type	tml_softmax, %function
 1897              	tml_softmax:
 1898              	.LFB9:
 255:.\tm_layers.c **** 
 256:.\tm_layers.c **** /*************************** TML_SOFTMAX **********************************/
 257:.\tm_layers.c **** tm_err_t TM_WEAK tml_softmax(tm_mat_t* in, tm_mat_t* out, sctype_t in_s, zptype_t in_zp, sctype_t o
 258:.\tm_layers.c **** {   TM_DBGT_INIT(); //note we have float size output buf even in INT8/INT16 mode
 1899              		.loc 1 258 0
 1900              		.cfi_startproc
 1901              		@ args = 8, pretend = 0, frame = 8
 1902              		@ frame_needed = 0, uses_anonymous_args = 0
 1903              	.LVL387:
 1904 0000 2DE9F04F 		push	{r4, r5, r6, r7, r8, r9, r10, fp, lr}
 1905              		.cfi_def_cfa_offset 36
 1906              		.cfi_offset 4, -36
 1907              		.cfi_offset 5, -32
 1908              		.cfi_offset 6, -28
 1909              		.cfi_offset 7, -24
 1910              		.cfi_offset 8, -20
 1911              		.cfi_offset 9, -16
 1912              		.cfi_offset 10, -12
 1913              		.cfi_offset 11, -8
 1914              		.cfi_offset 14, -4
 1915 0004 83B0     		sub	sp, sp, #12
 1916              		.cfi_def_cfa_offset 48
 1917 0006 0746     		mov	r7, r0
 1918 0008 8946     		mov	r9, r1
 1919 000a 0192     		str	r2, [sp, #4]	@ float
 1920 000c 9B46     		mov	fp, r3
 259:.\tm_layers.c ****     mtype_t* din = in->data;
 1921              		.loc 1 259 0
 1922 000e D0F808A0 		ldr	r10, [r0, #8]
 1923              	.LVL388:
 260:.\tm_layers.c ****     float*  dout = (float*)(out->data);
 1924              		.loc 1 260 0
 1925 0012 8C68     		ldr	r4, [r1, #8]
 1926              	.LVL389:
ARM GAS  C:\Users\kuzni\AppData\Local\Temp\ccqUPoDe.s 			page 45


 261:.\tm_layers.c ****     float   dmax =  -FLT_MAX;
 262:.\tm_layers.c ****     int c = 0;
 263:.\tm_layers.c ****     for(c=0; c <in->c; c++){
 1927              		.loc 1 263 0
 1928 0014 0025     		movs	r5, #0
 261:.\tm_layers.c ****     float   dmax =  -FLT_MAX;
 1929              		.loc 1 261 0
 1930 0016 6FF40008 		mvn	r8, #8388608
 1931              		.loc 1 263 0
 1932 001a 12E0     		b	.L136
 1933              	.LVL390:
 1934              	.L138:
 264:.\tm_layers.c ****     #if TM_MDL_TYPE == TM_MDL_INT8 || TM_MDL_TYPE == TM_MDL_INT16
 265:.\tm_layers.c ****         dout[c] = (float)((sumtype_t)din[c] - in_zp)*in_s;
 1935              		.loc 1 265 0
 1936 001c 1AF90500 		ldrsb	r0, [r10, r5]
 1937 0020 CBEB0000 		rsb	r0, fp, r0
 1938 0024 FFF7FEFF 		bl	__aeabi_i2f
 1939              	.LVL391:
 1940 0028 0199     		ldr	r1, [sp, #4]	@ float
 1941 002a FFF7FEFF 		bl	__aeabi_fmul
 1942              	.LVL392:
 1943 002e 0646     		mov	r6, r0
 1944 0030 44F82500 		str	r0, [r4, r5, lsl #2]	@ float
 266:.\tm_layers.c ****     #else
 267:.\tm_layers.c ****         dout[c] = din[c];
 268:.\tm_layers.c ****     #endif
 269:.\tm_layers.c ****         if(dout[c] > dmax) dmax = dout[c];
 1945              		.loc 1 269 0
 1946 0034 4046     		mov	r0, r8
 1947 0036 3146     		mov	r1, r6
 1948 0038 FFF7FEFF 		bl	__aeabi_fcmplt
 1949              	.LVL393:
 1950 003c 00B1     		cbz	r0, .L137
 1951 003e B046     		mov	r8, r6
 1952              	.LVL394:
 1953              	.L137:
 263:.\tm_layers.c ****     #if TM_MDL_TYPE == TM_MDL_INT8 || TM_MDL_TYPE == TM_MDL_INT16
 1954              		.loc 1 263 0 discriminator 2
 1955 0040 0135     		adds	r5, r5, #1
 1956              	.LVL395:
 1957              	.L136:
 263:.\tm_layers.c ****     #if TM_MDL_TYPE == TM_MDL_INT8 || TM_MDL_TYPE == TM_MDL_INT16
 1958              		.loc 1 263 0 is_stmt 0 discriminator 1
 1959 0042 FB88     		ldrh	r3, [r7, #6]
 1960 0044 AB42     		cmp	r3, r5
 1961 0046 E9DC     		bgt	.L138
 1962 0048 0026     		movs	r6, #0
 1963 004a 0025     		movs	r5, #0
 1964              	.LVL396:
 1965 004c 45E0     		b	.L139
 1966              	.LVL397:
 1967              	.L140:
 270:.\tm_layers.c ****     }
 271:.\tm_layers.c ****     float sum = 0;
 272:.\tm_layers.c ****     for(c=0; c <in->c; c++){
 273:.\tm_layers.c ****         dout[c] -= dmax;
ARM GAS  C:\Users\kuzni\AppData\Local\Temp\ccqUPoDe.s 			page 46


 1968              		.loc 1 273 0 is_stmt 1 discriminator 3
 1969 004e 54F82500 		ldr	r0, [r4, r5, lsl #2]	@ float
 1970 0052 4146     		mov	r1, r8
 1971 0054 FFF7FEFF 		bl	__aeabi_fsub
 1972              	.LVL398:
 1973 0058 44F82500 		str	r0, [r4, r5, lsl #2]	@ float
 1974              	.LVL399:
 1975              	.LBB82:
 1976              	.LBB83:
 1977              		.file 3 ".\\tinymaix.h"
   1:.\tinymaix.h  **** /* Copyright 2022 Sipeed Technology Co., Ltd. All Rights Reserved.
   2:.\tinymaix.h  **** Licensed under the Apache License, Version 2.0 (the "License");
   3:.\tinymaix.h  **** you may not use this file except in compliance with the License.
   4:.\tinymaix.h  **** You may obtain a copy of the License at
   5:.\tinymaix.h  ****     http://www.apache.org/licenses/LICENSE-2.0
   6:.\tinymaix.h  **** Unless required by applicable law or agreed to in writing, software
   7:.\tinymaix.h  **** distributed under the License is distributed on an "AS IS" BASIS,
   8:.\tinymaix.h  **** WITHOUT WARRANTIES OR CONDITIONS OF ANY KIND, either express or implied.
   9:.\tinymaix.h  **** See the License for the specific language governing permissions and
  10:.\tinymaix.h  **** limitations under the License.
  11:.\tinymaix.h  **** ==============================================================================*/
  12:.\tinymaix.h  **** 
  13:.\tinymaix.h  **** #ifndef __TINYMAIX_H
  14:.\tinymaix.h  **** #define __TINYMAIX_H
  15:.\tinymaix.h  **** 
  16:.\tinymaix.h  **** #include <stdint.h>
  17:.\tinymaix.h  **** #include <stdio.h>
  18:.\tinymaix.h  **** #include <stdlib.h>
  19:.\tinymaix.h  **** #include <string.h>
  20:.\tinymaix.h  **** 
  21:.\tinymaix.h  **** #define  TM_MDL_INT8    0
  22:.\tinymaix.h  **** #define  TM_MDL_INT16   1
  23:.\tinymaix.h  **** #define  TM_MDL_FP32    2
  24:.\tinymaix.h  **** #define  TM_MDL_FP16    3
  25:.\tinymaix.h  **** #define  TM_MDL_FP8_143 4 //experimental
  26:.\tinymaix.h  **** #define  TM_MDL_FP8_152 5 //experimental
  27:.\tinymaix.h  **** #include "tm_port.h"
  28:.\tinymaix.h  **** 
  29:.\tinymaix.h  **** #ifndef TM_STATIC
  30:.\tinymaix.h  **** // Set default value, if not defined in tm_port.h
  31:.\tinymaix.h  **** #define TM_STATIC static
  32:.\tinymaix.h  **** #endif
  33:.\tinymaix.h  **** 
  34:.\tinymaix.h  **** /******************************* MARCO ************************************/
  35:.\tinymaix.h  **** #define TM_MDL_MAGIC 'XIAM'     //mdl magic sign
  36:.\tinymaix.h  **** #define TM_ALIGN_SIZE   (8)     //8 byte align
  37:.\tinymaix.h  **** #define TM_ALIGN(addr)  ((((size_t)(addr))+(TM_ALIGN_SIZE-1))/TM_ALIGN_SIZE*TM_ALIGN_SIZE)
  38:.\tinymaix.h  **** #define TM_MATP(mat,y,x,ch) ((mat)->data + ((y)*(mat)->w + (x))*(mat)->c + (ch))
  39:.\tinymaix.h  ****                                 //HWC
  40:.\tinymaix.h  **** #if   TM_MDL_TYPE == TM_MDL_INT8
  41:.\tinymaix.h  ****     typedef int8_t  mtype_t;    //mat data type
  42:.\tinymaix.h  ****     typedef int8_t  wtype_t;    //weight data type
  43:.\tinymaix.h  ****     typedef int32_t btype_t;    //bias data type
  44:.\tinymaix.h  ****     typedef int32_t sumtype_t;  //sum data type 
  45:.\tinymaix.h  ****     typedef int32_t zptype_t;   //zeropoint data type 
  46:.\tinymaix.h  ****     #define UINT2INT_SHIFT (0)
  47:.\tinymaix.h  **** #elif TM_MDL_TYPE == TM_MDL_INT16
ARM GAS  C:\Users\kuzni\AppData\Local\Temp\ccqUPoDe.s 			page 47


  48:.\tinymaix.h  ****     typedef int16_t mtype_t;    //mat data type
  49:.\tinymaix.h  ****     typedef int16_t wtype_t;    //weight data type
  50:.\tinymaix.h  ****     typedef int32_t btype_t;    //bias data type
  51:.\tinymaix.h  ****     typedef int32_t sumtype_t;  //sum data type 
  52:.\tinymaix.h  ****     typedef int32_t zptype_t;   //zeropoint data type
  53:.\tinymaix.h  ****     #define UINT2INT_SHIFT (8)
  54:.\tinymaix.h  **** #elif TM_MDL_TYPE == TM_MDL_FP32
  55:.\tinymaix.h  ****     typedef float   mtype_t;    //mat data type
  56:.\tinymaix.h  ****     typedef float   wtype_t;    //weight data type
  57:.\tinymaix.h  ****     typedef float   btype_t;    //bias data type
  58:.\tinymaix.h  ****     typedef float   sumtype_t;  //sum data type 
  59:.\tinymaix.h  ****     typedef float   zptype_t;   //zeropoint data type 
  60:.\tinymaix.h  **** #elif TM_MDL_TYPE == TM_MDL_FP16
  61:.\tinymaix.h  ****     #if TM_ARCH != TM_ARCH_RV64V
  62:.\tinymaix.h  ****         #error "only support RV64V's float16!"
  63:.\tinymaix.h  ****     #endif
  64:.\tinymaix.h  ****     #include <riscv_vector.h>
  65:.\tinymaix.h  ****     typedef float16_t mtype_t;    //mat data type
  66:.\tinymaix.h  ****     typedef float16_t wtype_t;    //weight data type
  67:.\tinymaix.h  ****     typedef float16_t btype_t;    //bias data type
  68:.\tinymaix.h  ****     typedef float16_t sumtype_t;  //sum data type 
  69:.\tinymaix.h  ****     typedef float16_t zptype_t;   //zeropoint data type
  70:.\tinymaix.h  **** #elif (TM_MDL_TYPE == TM_MDL_FP8_143) || (TM_MDL_TYPE == TM_MDL_FP8_152)
  71:.\tinymaix.h  ****     #if TM_ARCH != TM_ARCH_CPU
  72:.\tinymaix.h  ****         #error "only support CPU simulation now!"
  73:.\tinymaix.h  ****     #endif
  74:.\tinymaix.h  ****     typedef uint8_t mtype_t;    //mat data type
  75:.\tinymaix.h  ****     typedef uint8_t wtype_t;    //weight data type
  76:.\tinymaix.h  ****     typedef uint8_t btype_t;    //bias data type
  77:.\tinymaix.h  ****     typedef float sumtype_t;    //sum data type 
  78:.\tinymaix.h  ****     typedef float zptype_t;     //zeropoint data type
  79:.\tinymaix.h  **** #else 
  80:.\tinymaix.h  ****     #error "Not support this MDL_TYPE!"
  81:.\tinymaix.h  **** #endif
  82:.\tinymaix.h  **** 
  83:.\tinymaix.h  **** #if TM_MDL_TYPE == TM_MDL_FP8_143
  84:.\tinymaix.h  ****     #define TM_FP8_SCNT (1)
  85:.\tinymaix.h  ****     #define TM_FP8_ECNT (4)
  86:.\tinymaix.h  ****     #define TM_FP8_MCNT (3)
  87:.\tinymaix.h  ****     #define TM_FP8_BIAS (9)
  88:.\tinymaix.h  **** #elif TM_MDL_TYPE == TM_MDL_FP8_152
  89:.\tinymaix.h  ****     #define TM_FP8_SCNT (1)
  90:.\tinymaix.h  ****     #define TM_FP8_ECNT (5)
  91:.\tinymaix.h  ****     #define TM_FP8_MCNT (2)
  92:.\tinymaix.h  ****     #define TM_FP8_BIAS (15)
  93:.\tinymaix.h  **** #endif
  94:.\tinymaix.h  **** 
  95:.\tinymaix.h  **** typedef float sctype_t;
  96:.\tinymaix.h  **** #define TM_FASTSCALE_SHIFT (8)
  97:.\tinymaix.h  **** 
  98:.\tinymaix.h  **** /******************************* ENUM ************************************/
  99:.\tinymaix.h  **** typedef enum{
 100:.\tinymaix.h  ****     TM_OK = 0,
 101:.\tinymaix.h  ****     TM_ERR= 1,
 102:.\tinymaix.h  ****     TM_ERR_MAGIC     = 2,
 103:.\tinymaix.h  ****     TM_ERR_UNSUPPORT = 3,
 104:.\tinymaix.h  ****     TM_ERR_OOM       = 4,
ARM GAS  C:\Users\kuzni\AppData\Local\Temp\ccqUPoDe.s 			page 48


 105:.\tinymaix.h  ****     TM_ERR_LAYERTYPE = 5,
 106:.\tinymaix.h  ****     TM_ERR_DIMS      = 6,
 107:.\tinymaix.h  ****     TM_ERR_TODO      = 7,
 108:.\tinymaix.h  ****     TM_ERR_MDLTYPE   = 8,
 109:.\tinymaix.h  ****     TM_ERR_KSIZE     = 9,
 110:.\tinymaix.h  **** }tm_err_t;
 111:.\tinymaix.h  **** 
 112:.\tinymaix.h  **** typedef enum{
 113:.\tinymaix.h  ****     TML_CONV2D    = 0,
 114:.\tinymaix.h  ****     TML_GAP       = 1,
 115:.\tinymaix.h  ****     TML_FC        = 2,
 116:.\tinymaix.h  ****     TML_SOFTMAX   = 3,
 117:.\tinymaix.h  ****     TML_RESHAPE   = 4,
 118:.\tinymaix.h  ****     TML_DWCONV2D  = 5,
 119:.\tinymaix.h  ****     TML_ADD       = 6,
 120:.\tinymaix.h  ****     TML_MAXCNT    ,
 121:.\tinymaix.h  **** }tm_layer_type_t;
 122:.\tinymaix.h  **** 
 123:.\tinymaix.h  **** typedef enum{
 124:.\tinymaix.h  ****     TM_PAD_VALID  = 0,
 125:.\tinymaix.h  ****     TM_PAD_SAME   = 1,
 126:.\tinymaix.h  **** }tm_pad_type_t;
 127:.\tinymaix.h  **** 
 128:.\tinymaix.h  **** typedef enum{
 129:.\tinymaix.h  ****     TM_ACT_NONE   = 0,
 130:.\tinymaix.h  ****     TM_ACT_RELU   = 1,
 131:.\tinymaix.h  ****     TM_ACT_RELU1  = 2,
 132:.\tinymaix.h  ****     TM_ACT_RELU6  = 3,
 133:.\tinymaix.h  ****     TM_ACT_TANH   = 4,
 134:.\tinymaix.h  ****     TM_ACT_SIGNBIT= 5,
 135:.\tinymaix.h  ****     TM_ACT_MAXCNT ,
 136:.\tinymaix.h  **** }tm_act_type_t;
 137:.\tinymaix.h  **** 
 138:.\tinymaix.h  **** 
 139:.\tinymaix.h  **** typedef enum {
 140:.\tinymaix.h  ****     TMPP_NONE      = 0,
 141:.\tinymaix.h  ****     TMPP_FP2INT    = 1,  //user own fp buf -> int input buf
 142:.\tinymaix.h  ****     TMPP_UINT2INT  = 2,  //int8: cvt in place; int16: can't cvt in place
 143:.\tinymaix.h  ****     TMPP_UINT2FP01 = 3,  // u8/255.0
 144:.\tinymaix.h  ****     TMPP_UINT2FPN11= 4,  // (u8-128)/128 
 145:.\tinymaix.h  ****     TMPP_UINT2DTYPE= 5,  //uint8 to fp16,fp8
 146:.\tinymaix.h  ****     TMPP_MAXCNT,
 147:.\tinymaix.h  **** }tm_pp_t;
 148:.\tinymaix.h  **** 
 149:.\tinymaix.h  **** /******************************* STRUCT ************************************/
 150:.\tinymaix.h  **** //mdlbin in flash
 151:.\tinymaix.h  **** typedef struct{
 152:.\tinymaix.h  ****     uint32_t magic;         //"MAIX"
 153:.\tinymaix.h  ****     uint8_t  mdl_type;      //0 int8, 1 int16, 2 fp32,
 154:.\tinymaix.h  ****     uint8_t  out_deq;       //0 don't dequant out; 1 dequant out
 155:.\tinymaix.h  ****     uint16_t input_cnt;     //only support 1 yet
 156:.\tinymaix.h  ****     uint16_t output_cnt;    //only support 1 yet
 157:.\tinymaix.h  ****     uint16_t layer_cnt;     
 158:.\tinymaix.h  ****     uint32_t buf_size;      //main buf size for middle result = pingpong+keep
 159:.\tinymaix.h  ****     uint32_t sub_size;      //pingpong buf size;
 160:.\tinymaix.h  ****     uint16_t in_dims[4];    //0:dims; 1:dim0; 2:dim1; 3:dim2
 161:.\tinymaix.h  ****     uint16_t out_dims[4];
ARM GAS  C:\Users\kuzni\AppData\Local\Temp\ccqUPoDe.s 			page 49


 162:.\tinymaix.h  ****     uint8_t  reserve[28];   //reserve for future
 163:.\tinymaix.h  ****     uint8_t  layers_body[0];//oft 64 here
 164:.\tinymaix.h  **** }tm_mdlbin_t;
 165:.\tinymaix.h  **** 
 166:.\tinymaix.h  **** //mdl meta data in ram
 167:.\tinymaix.h  **** typedef struct{
 168:.\tinymaix.h  ****     tm_mdlbin_t* b;         //bin
 169:.\tinymaix.h  ****     void*    cb;            //Layer callback
 170:.\tinymaix.h  ****     uint8_t* buf;           //main buf addr
 171:.\tinymaix.h  ****     uint8_t* subbuf;        //sub buf addr
 172:.\tinymaix.h  ****     uint16_t main_alloc;    //is main buf alloc or static
 173:.\tinymaix.h  ****     uint16_t layer_i;       //current layer index
 174:.\tinymaix.h  ****     uint8_t* layer_body;    //current layer body addr
 175:.\tinymaix.h  **** }tm_mdl_t;
 176:.\tinymaix.h  **** 
 177:.\tinymaix.h  **** //dims==3, hwc
 178:.\tinymaix.h  **** //dims==2, 1wc
 179:.\tinymaix.h  **** //dims==1, 11c
 180:.\tinymaix.h  **** typedef struct{
 181:.\tinymaix.h  ****     uint16_t dims;
 182:.\tinymaix.h  ****     uint16_t h;
 183:.\tinymaix.h  ****     uint16_t w;
 184:.\tinymaix.h  ****     uint16_t c;
 185:.\tinymaix.h  ****     union {
 186:.\tinymaix.h  ****         mtype_t* data;
 187:.\tinymaix.h  ****         float*   dataf;
 188:.\tinymaix.h  ****     };
 189:.\tinymaix.h  **** }tm_mat_t;
 190:.\tinymaix.h  **** 
 191:.\tinymaix.h  **** /******************************* LAYER STRUCT ************************************/
 192:.\tinymaix.h  **** typedef struct{             //48byte
 193:.\tinymaix.h  ****     uint16_t type;          //layer type
 194:.\tinymaix.h  ****     uint16_t is_out;        //is output
 195:.\tinymaix.h  ****     uint32_t size;          //8 byte align size for this layer
 196:.\tinymaix.h  ****     uint32_t in_oft;        //input  oft in main buf
 197:.\tinymaix.h  ****     uint32_t out_oft;       //output oft in main buf
 198:.\tinymaix.h  ****     uint16_t in_dims[4];    //0:dims; 1:dim0; 2:dim1; 3:dim2
 199:.\tinymaix.h  ****     uint16_t out_dims[4];
 200:.\tinymaix.h  ****                             //following unit not used in fp32 mode
 201:.\tinymaix.h  ****     sctype_t in_s;          //input scale, 
 202:.\tinymaix.h  ****     zptype_t in_zp;         //input zeropoint
 203:.\tinymaix.h  ****     sctype_t out_s;         //output scale
 204:.\tinymaix.h  ****     zptype_t out_zp;        //output zeropoint
 205:.\tinymaix.h  ****     //note: real = scale*(q-zeropoint)
 206:.\tinymaix.h  **** }tml_head_t;
 207:.\tinymaix.h  **** 
 208:.\tinymaix.h  **** typedef struct{
 209:.\tinymaix.h  ****     tml_head_t h;
 210:.\tinymaix.h  **** 
 211:.\tinymaix.h  ****     uint8_t  kernel_w;
 212:.\tinymaix.h  ****     uint8_t  kernel_h;
 213:.\tinymaix.h  ****     uint8_t  stride_w;
 214:.\tinymaix.h  ****     uint8_t  stride_h;
 215:.\tinymaix.h  ****     
 216:.\tinymaix.h  ****     uint8_t  dilation_w;
 217:.\tinymaix.h  ****     uint8_t  dilation_h;
 218:.\tinymaix.h  ****     uint16_t  act;          //0 none, 1 relu, 2 relu1, 3 relu6, 4 tanh, 5 sign_bit
ARM GAS  C:\Users\kuzni\AppData\Local\Temp\ccqUPoDe.s 			page 50


 219:.\tinymaix.h  ****     
 220:.\tinymaix.h  ****     uint8_t  pad[4];        //top,bottom,left,right
 221:.\tinymaix.h  **** 
 222:.\tinymaix.h  ****     uint32_t depth_mul;     //depth_multiplier: if conv2d,=0; else: >=1
 223:.\tinymaix.h  ****     uint32_t reserve;       //for 8byte align
 224:.\tinymaix.h  ****     
 225:.\tinymaix.h  ****     uint32_t ws_oft;        //weight scale oft from this layer start 
 226:.\tinymaix.h  ****                             //skip bias scale: bias_scale = weight_scale*in_scale
 227:.\tinymaix.h  ****     uint32_t w_oft;         //weight oft from this layer start
 228:.\tinymaix.h  ****     uint32_t b_oft;         //bias oft from this layer start 
 229:.\tinymaix.h  ****     //note: bias[c] = bias[c] + (-out_zp)*sum(w[c*chi*maxk:(c+1)*chi*maxk])
 230:.\tinymaix.h  ****     //      fused in advance (when convert model)
 231:.\tinymaix.h  **** }tml_conv2d_dw_t;  //compatible with conv2d and dwconv2d
 232:.\tinymaix.h  **** 
 233:.\tinymaix.h  **** typedef struct{
 234:.\tinymaix.h  ****     tml_head_t h;
 235:.\tinymaix.h  **** }tml_gap_t;
 236:.\tinymaix.h  **** 
 237:.\tinymaix.h  **** typedef struct{
 238:.\tinymaix.h  ****     tml_head_t h;
 239:.\tinymaix.h  **** 
 240:.\tinymaix.h  ****     uint32_t ws_oft;        //weight scale oft from this layer start 
 241:.\tinymaix.h  ****     uint32_t w_oft;         //weight oft from this layer start
 242:.\tinymaix.h  ****     uint32_t b_oft;         //bias oft from this layer start
 243:.\tinymaix.h  ****     uint32_t reserve;       //for 8byte align
 244:.\tinymaix.h  **** }tml_fc_t;
 245:.\tinymaix.h  **** 
 246:.\tinymaix.h  **** typedef struct{
 247:.\tinymaix.h  ****     tml_head_t h;
 248:.\tinymaix.h  **** }tml_softmax_t;
 249:.\tinymaix.h  **** 
 250:.\tinymaix.h  **** typedef struct{
 251:.\tinymaix.h  ****     tml_head_t h;
 252:.\tinymaix.h  **** }tml_reshape_t;
 253:.\tinymaix.h  **** 
 254:.\tinymaix.h  **** typedef struct{
 255:.\tinymaix.h  ****     tml_head_t h;
 256:.\tinymaix.h  **** 
 257:.\tinymaix.h  ****     uint8_t  kernel_w;
 258:.\tinymaix.h  ****     uint8_t  kernel_h;
 259:.\tinymaix.h  ****     uint8_t  stride_w;
 260:.\tinymaix.h  ****     uint8_t  stride_h;
 261:.\tinymaix.h  ****     
 262:.\tinymaix.h  ****     uint8_t  dilation_w;
 263:.\tinymaix.h  ****     uint8_t  dilation_h;
 264:.\tinymaix.h  ****     uint16_t  act;          //0 none, 1 relu, 2 relu1, 3 relu6, 4 tanh, 5 sign_bit
 265:.\tinymaix.h  ****     
 266:.\tinymaix.h  ****     uint8_t  pad[4];        //top,bottom,left,right
 267:.\tinymaix.h  **** 
 268:.\tinymaix.h  **** 
 269:.\tinymaix.h  ****     
 270:.\tinymaix.h  ****     uint32_t ws_oft;        //weight scale oft from this layer start 
 271:.\tinymaix.h  ****                             //skip bias scale: bias_scale = weight_scale*in_scale
 272:.\tinymaix.h  ****     uint32_t w_oft;         //weight oft from this layer start
 273:.\tinymaix.h  ****     uint32_t b_oft;         //bias oft from this layer start 
 274:.\tinymaix.h  ****     //note: bias[c] = bias[c] + (-out_zp)*sum(w[c*chi*maxk:(c+1)*chi*maxk])
 275:.\tinymaix.h  ****     //      fused in advance (when convert model)
ARM GAS  C:\Users\kuzni\AppData\Local\Temp\ccqUPoDe.s 			page 51


 276:.\tinymaix.h  **** }tml_dwconv2d_t;
 277:.\tinymaix.h  **** 
 278:.\tinymaix.h  **** typedef struct{
 279:.\tinymaix.h  ****     tml_head_t h;
 280:.\tinymaix.h  ****     uint32_t in_oft1;
 281:.\tinymaix.h  ****     sctype_t in_s1;          //input scale, 
 282:.\tinymaix.h  ****     zptype_t in_zp1;         //input zeropoint
 283:.\tinymaix.h  ****     uint32_t reserve;        //align8
 284:.\tinymaix.h  **** }tml_add_t;
 285:.\tinymaix.h  **** 
 286:.\tinymaix.h  **** 
 287:.\tinymaix.h  **** /******************************* TYPE ************************************/
 288:.\tinymaix.h  **** typedef tm_err_t (*tml_stat_t)(tml_head_t* layer, tm_mat_t* in, tm_mat_t* out);
 289:.\tinymaix.h  **** typedef tm_err_t (*tm_cb_t)(tm_mdl_t* mdl, tml_head_t* lh);
 290:.\tinymaix.h  **** 
 291:.\tinymaix.h  **** 
 292:.\tinymaix.h  **** /******************************* GLOBAL VARIABLE ************************************/
 293:.\tinymaix.h  **** 
 294:.\tinymaix.h  **** 
 295:.\tinymaix.h  **** /******************************* MODEL FUNCTION ************************************/
 296:.\tinymaix.h  **** tm_err_t tm_load  (tm_mdl_t* mdl, const uint8_t* bin, uint8_t*buf, tm_cb_t cb, tm_mat_t* in);   //l
 297:.\tinymaix.h  **** void     tm_unload(tm_mdl_t* mdl);                                      //remove model
 298:.\tinymaix.h  **** tm_err_t tm_preprocess(tm_mdl_t* mdl, tm_pp_t pp_type, tm_mat_t* in, tm_mat_t* out);            //p
 299:.\tinymaix.h  **** tm_err_t tm_run   (tm_mdl_t* mdl, tm_mat_t* in, tm_mat_t* out);         //run model
 300:.\tinymaix.h  **** 
 301:.\tinymaix.h  **** 
 302:.\tinymaix.h  **** /******************************* LAYER FUNCTION ************************************/
 303:.\tinymaix.h  **** tm_err_t tml_conv2d_dwconv2d(tm_mat_t* in, tm_mat_t* out, wtype_t* w, btype_t* b, \
 304:.\tinymaix.h  ****     int kw, int kh, int sx, int sy, int dx, int dy, int act, \
 305:.\tinymaix.h  ****     int pad_top, int pad_bottom, int pad_left, int pad_right, int dmul, \
 306:.\tinymaix.h  ****     sctype_t* ws, sctype_t in_s, zptype_t in_zp, sctype_t out_s, zptype_t out_zp);
 307:.\tinymaix.h  **** tm_err_t tml_gap(tm_mat_t* in, tm_mat_t* out, sctype_t in_s, zptype_t in_zp, sctype_t out_s, zptype
 308:.\tinymaix.h  **** tm_err_t tml_fc(tm_mat_t* in, tm_mat_t* out,  wtype_t* w, btype_t* b, \
 309:.\tinymaix.h  ****     sctype_t* ws, sctype_t in_s, zptype_t in_zp, sctype_t out_s, zptype_t out_zp);
 310:.\tinymaix.h  **** tm_err_t tml_softmax(tm_mat_t* in, tm_mat_t* out, sctype_t in_s, zptype_t in_zp, sctype_t out_s, zp
 311:.\tinymaix.h  **** tm_err_t tml_reshape(tm_mat_t* in, tm_mat_t* out, sctype_t in_s, zptype_t in_zp, sctype_t out_s, zp
 312:.\tinymaix.h  **** tm_err_t tml_add(tm_mat_t* in0, tm_mat_t* in1, tm_mat_t* out, \
 313:.\tinymaix.h  ****     sctype_t in_s0, zptype_t in_zp0, sctype_t in_s1, zptype_t in_zp1, sctype_t out_s, zptype_t out_
 314:.\tinymaix.h  **** 
 315:.\tinymaix.h  **** /******************************* STAT FUNCTION ************************************/
 316:.\tinymaix.h  **** #if TM_ENABLE_STAT
 317:.\tinymaix.h  **** tm_err_t tm_stat(tm_mdlbin_t* mdl);                    //stat model
 318:.\tinymaix.h  **** #endif
 319:.\tinymaix.h  **** 
 320:.\tinymaix.h  **** /******************************* UTILS FUNCTION ************************************/
 321:.\tinymaix.h  **** uint8_t TM_WEAK tm_fp32to8(float fp32);
 322:.\tinymaix.h  **** float TM_WEAK tm_fp8to32(uint8_t fp8);
 323:.\tinymaix.h  **** 
 324:.\tinymaix.h  **** 
 325:.\tinymaix.h  **** /******************************* UTILS  ************************************/
 326:.\tinymaix.h  **** 
 327:.\tinymaix.h  **** #define TML_GET_INPUT(mdl,lh)   ((mtype_t*)((mdl)->buf + (lh)->in_oft))
 328:.\tinymaix.h  **** #define TML_GET_OUTPUT(mdl,lh)  ((mtype_t*)((mdl)->buf + (lh)->out_oft))
 329:.\tinymaix.h  **** #if (TM_MDL_TYPE == TM_MDL_INT8)||(TM_MDL_TYPE == TM_MDL_INT16)
 330:.\tinymaix.h  ****     #define TML_DEQUANT(lh, x)       (((sumtype_t)(x)-((lh)->out_zp))*((lh)->out_s))
 331:.\tinymaix.h  ****     #define TM_DEQUANT(i8,s,zp) (((sumtype_t)(i8)-(zp))*(s))
 332:.\tinymaix.h  ****     #define TM_QUANT(fp32,s,zp) ((mtype_t)((fp32)/(s)+zp))
ARM GAS  C:\Users\kuzni\AppData\Local\Temp\ccqUPoDe.s 			page 52


 333:.\tinymaix.h  **** #elif (TM_MDL_TYPE == TM_MDL_FP8_143) || (TM_MDL_TYPE == TM_MDL_FP8_152)
 334:.\tinymaix.h  ****     #define TML_DEQUANT(lh, x)  (tm_fp8to32(x))
 335:.\tinymaix.h  **** #else   //FP32,FP16
 336:.\tinymaix.h  ****     #define TML_DEQUANT(lh, x)  ((float)(x))
 337:.\tinymaix.h  ****     #define TM_DEQUANT(x,s,zp)  (x)
 338:.\tinymaix.h  ****     #define TM_QUANT(x,s,zp)    (x)
 339:.\tinymaix.h  **** #endif
 340:.\tinymaix.h  **** 
 341:.\tinymaix.h  **** /******************************* LOCAL MATH FUNCTION  ************************************/
 342:.\tinymaix.h  **** #if 1//TM_LOCAL_MATH
 343:.\tinymaix.h  **** //http://www.machinedlearnings.com/2011/06/fast-approximate-logarithm-exponential.html
 344:.\tinymaix.h  **** static inline float _exp(float x) {
 345:.\tinymaix.h  ****         float p = 1.442695040f * x;
 1978              		.loc 3 345 0 discriminator 3
 1979 005c 3049     		ldr	r1, .L145
 1980 005e FFF7FEFF 		bl	__aeabi_fmul
 1981              	.LVL400:
 1982 0062 8346     		mov	fp, r0
 1983              	.LVL401:
 346:.\tinymaix.h  ****         uint32_t i = 0;
 347:.\tinymaix.h  ****         uint32_t sign = (i >> 31);
 348:.\tinymaix.h  ****         int w = (int) p;
 1984              		.loc 3 348 0 discriminator 3
 1985 0064 FFF7FEFF 		bl	__aeabi_f2iz
 1986              	.LVL402:
 349:.\tinymaix.h  ****         float z = p - (float) w + (float) sign;
 1987              		.loc 3 349 0 discriminator 3
 1988 0068 FFF7FEFF 		bl	__aeabi_i2f
 1989              	.LVL403:
 1990 006c 0146     		mov	r1, r0
 1991 006e 5846     		mov	r0, fp
 1992 0070 FFF7FEFF 		bl	__aeabi_fsub
 1993              	.LVL404:
 1994 0074 0021     		movs	r1, #0
 1995 0076 FFF7FEFF 		bl	__aeabi_fadd
 1996              	.LVL405:
 1997 007a 8246     		mov	r10, r0
 1998              	.LVL406:
 350:.\tinymaix.h  ****         union {
 351:.\tinymaix.h  ****             uint32_t i;
 352:.\tinymaix.h  ****             float f;
 353:.\tinymaix.h  ****         } v = {.i = (uint32_t) ((1 << 23) * (p + 121.2740838f + 27.7280233f / (4.84252568f - z) - 1
 1999              		.loc 3 353 0 discriminator 3
 2000 007c 5846     		mov	r0, fp
 2001              	.LVL407:
 2002 007e 2949     		ldr	r1, .L145+4
 2003 0080 FFF7FEFF 		bl	__aeabi_fadd
 2004              	.LVL408:
 2005 0084 8346     		mov	fp, r0
 2006              	.LVL409:
 2007 0086 2848     		ldr	r0, .L145+8
 2008 0088 5146     		mov	r1, r10
 2009 008a FFF7FEFF 		bl	__aeabi_fsub
 2010              	.LVL410:
 2011 008e 0146     		mov	r1, r0
 2012 0090 2648     		ldr	r0, .L145+12
 2013 0092 FFF7FEFF 		bl	__aeabi_fdiv
ARM GAS  C:\Users\kuzni\AppData\Local\Temp\ccqUPoDe.s 			page 53


 2014              	.LVL411:
 2015 0096 0146     		mov	r1, r0
 2016 0098 5846     		mov	r0, fp
 2017 009a FFF7FEFF 		bl	__aeabi_fadd
 2018              	.LVL412:
 2019 009e 8346     		mov	fp, r0
 2020 00a0 5046     		mov	r0, r10
 2021 00a2 2349     		ldr	r1, .L145+16
 2022 00a4 FFF7FEFF 		bl	__aeabi_fmul
 2023              	.LVL413:
 2024 00a8 0146     		mov	r1, r0
 2025 00aa 5846     		mov	r0, fp
 2026 00ac FFF7FEFF 		bl	__aeabi_fsub
 2027              	.LVL414:
 2028 00b0 4FF09641 		mov	r1, #1258291200
 2029 00b4 FFF7FEFF 		bl	__aeabi_fmul
 2030              	.LVL415:
 2031 00b8 FFF7FEFF 		bl	__aeabi_f2uiz
 2032              	.LVL416:
 2033 00bc 8246     		mov	r10, r0
 2034              	.LVL417:
 2035              	.LBE83:
 2036              	.LBE82:
 274:.\tm_layers.c ****         dout[c] = (float)tm_exp(dout[c]);
 2037              		.loc 1 274 0 discriminator 3
 2038 00be 44F82500 		str	r0, [r4, r5, lsl #2]	@ float
 275:.\tm_layers.c ****         sum     += dout[c];
 2039              		.loc 1 275 0 discriminator 3
 2040 00c2 3046     		mov	r0, r6
 2041 00c4 5146     		mov	r1, r10
 2042 00c6 FFF7FEFF 		bl	__aeabi_fadd
 2043              	.LVL418:
 2044 00ca 0646     		mov	r6, r0
 2045              	.LVL419:
 276:.\tm_layers.c ****         dout[c] -= 0.000001f;  //prevent 1.0 value (cause 256 overflow)
 2046              		.loc 1 276 0 discriminator 3
 2047 00cc 5046     		mov	r0, r10
 2048              	.LVL420:
 2049 00ce 1949     		ldr	r1, .L145+20
 2050 00d0 FFF7FEFF 		bl	__aeabi_fsub
 2051              	.LVL421:
 2052 00d4 44F82500 		str	r0, [r4, r5, lsl #2]	@ float
 272:.\tm_layers.c ****         dout[c] -= dmax;
 2053              		.loc 1 272 0 discriminator 3
 2054 00d8 0135     		adds	r5, r5, #1
 2055              	.LVL422:
 2056              	.L139:
 272:.\tm_layers.c ****         dout[c] -= dmax;
 2057              		.loc 1 272 0 is_stmt 0 discriminator 1
 2058 00da FB88     		ldrh	r3, [r7, #6]
 2059 00dc AB42     		cmp	r3, r5
 2060 00de B6DC     		bgt	.L140
 2061 00e0 0025     		movs	r5, #0
 2062              	.LVL423:
 2063 00e2 16E0     		b	.L141
 2064              	.LVL424:
 2065              	.L142:
ARM GAS  C:\Users\kuzni\AppData\Local\Temp\ccqUPoDe.s 			page 54


 277:.\tm_layers.c ****     }
 278:.\tm_layers.c ****     for(c=0; c <in->c; c++){  //int8/int16 <= fp32, so it is ok
 279:.\tm_layers.c ****     #if TM_MDL_TYPE == TM_MDL_INT8 || TM_MDL_TYPE == TM_MDL_INT16
 280:.\tm_layers.c ****         out->data[c] = (mtype_t)(dout[c]/sum/out_s + out_zp); //requant
 2066              		.loc 1 280 0 is_stmt 1 discriminator 3
 2067 00e4 D9F80880 		ldr	r8, [r9, #8]
 2068 00e8 54F82500 		ldr	r0, [r4, r5, lsl #2]	@ float
 2069 00ec 3146     		mov	r1, r6
 2070 00ee FFF7FEFF 		bl	__aeabi_fdiv
 2071              	.LVL425:
 2072 00f2 0C99     		ldr	r1, [sp, #48]	@ float
 2073 00f4 FFF7FEFF 		bl	__aeabi_fdiv
 2074              	.LVL426:
 2075 00f8 8246     		mov	r10, r0
 2076 00fa 0D98     		ldr	r0, [sp, #52]
 2077 00fc FFF7FEFF 		bl	__aeabi_i2f
 2078              	.LVL427:
 2079 0100 0146     		mov	r1, r0
 2080 0102 5046     		mov	r0, r10
 2081 0104 FFF7FEFF 		bl	__aeabi_fadd
 2082              	.LVL428:
 2083 0108 FFF7FEFF 		bl	__aeabi_f2iz
 2084              	.LVL429:
 2085 010c 08F80500 		strb	r0, [r8, r5]
 278:.\tm_layers.c ****     #if TM_MDL_TYPE == TM_MDL_INT8 || TM_MDL_TYPE == TM_MDL_INT16
 2086              		.loc 1 278 0 discriminator 3
 2087 0110 0135     		adds	r5, r5, #1
 2088              	.LVL430:
 2089              	.L141:
 278:.\tm_layers.c ****     #if TM_MDL_TYPE == TM_MDL_INT8 || TM_MDL_TYPE == TM_MDL_INT16
 2090              		.loc 1 278 0 is_stmt 0 discriminator 1
 2091 0112 FB88     		ldrh	r3, [r7, #6]
 2092 0114 AB42     		cmp	r3, r5
 2093 0116 E5DC     		bgt	.L142
 281:.\tm_layers.c ****     #else
 282:.\tm_layers.c ****         out->data[c] = (mtype_t)(dout[c]/sum);
 283:.\tm_layers.c ****     #endif
 284:.\tm_layers.c ****     }
 285:.\tm_layers.c ****     return TM_OK;
 286:.\tm_layers.c **** }
 2094              		.loc 1 286 0 is_stmt 1
 2095 0118 0020     		movs	r0, #0
 2096 011a 03B0     		add	sp, sp, #12
 2097              		.cfi_def_cfa_offset 36
 2098              		@ sp needed
 2099 011c BDE8F08F 		pop	{r4, r5, r6, r7, r8, r9, r10, fp, pc}
 2100              	.LVL431:
 2101              	.L146:
 2102              		.align	2
 2103              	.L145:
 2104 0120 3BAAB83F 		.word	1069066811
 2105 0124 558CF242 		.word	1123191893
 2106 0128 F8F59A40 		.word	1083897336
 2107 012c FED2DD41 		.word	1105056510
 2108 0130 8DBCBE3F 		.word	1069464717
 2109 0134 BD378635 		.word	897988541
 2110              		.cfi_endproc
ARM GAS  C:\Users\kuzni\AppData\Local\Temp\ccqUPoDe.s 			page 55


 2111              	.LFE9:
 2112              		.size	tml_softmax, .-tml_softmax
 2113              		.section	.text.tml_reshape,"ax",%progbits
 2114              		.align	2
 2115              		.weak	tml_reshape
 2116              		.thumb
 2117              		.thumb_func
 2118              		.type	tml_reshape, %function
 2119              	tml_reshape:
 2120              	.LFB10:
 287:.\tm_layers.c **** 
 288:.\tm_layers.c **** /*************************** TML_RESHAPE **********************************/
 289:.\tm_layers.c **** tm_err_t TM_WEAK tml_reshape(tm_mat_t* in, tm_mat_t* out, sctype_t in_s, zptype_t in_zp, sctype_t o
 290:.\tm_layers.c **** {   
 2121              		.loc 1 290 0
 2122              		.cfi_startproc
 2123              		@ args = 8, pretend = 0, frame = 0
 2124              		@ frame_needed = 0, uses_anonymous_args = 0
 2125              		@ link register save eliminated.
 2126              	.LVL432:
 291:.\tm_layers.c ****     //in fact do nothing... out shape
 292:.\tm_layers.c ****     return TM_OK;
 293:.\tm_layers.c **** }
 2127              		.loc 1 293 0
 2128 0000 0020     		movs	r0, #0
 2129              	.LVL433:
 2130 0002 7047     		bx	lr
 2131              		.cfi_endproc
 2132              	.LFE10:
 2133              		.size	tml_reshape, .-tml_reshape
 2134              		.global	__aeabi_f2d
 2135              		.section	.text.tml_add,"ax",%progbits
 2136              		.align	2
 2137              		.weak	tml_add
 2138              		.thumb
 2139              		.thumb_func
 2140              		.type	tml_add, %function
 2141              	tml_add:
 2142              	.LFB11:
 294:.\tm_layers.c **** 
 295:.\tm_layers.c **** 
 296:.\tm_layers.c **** tm_err_t TM_WEAK tml_add(tm_mat_t* in0, tm_mat_t* in1, tm_mat_t* out, \
 297:.\tm_layers.c ****     sctype_t in_s0, zptype_t in_zp0, sctype_t in_s1, zptype_t in_zp1, sctype_t out_s, zptype_t out_
 298:.\tm_layers.c **** {   //TODO: check in0 shape == in1 shape 
 2143              		.loc 1 298 0
 2144              		.cfi_startproc
 2145              		@ args = 20, pretend = 0, frame = 24
 2146              		@ frame_needed = 0, uses_anonymous_args = 0
 2147              	.LVL434:
 2148 0000 2DE9F04F 		push	{r4, r5, r6, r7, r8, r9, r10, fp, lr}
 2149              		.cfi_def_cfa_offset 36
 2150              		.cfi_offset 4, -36
 2151              		.cfi_offset 5, -32
 2152              		.cfi_offset 6, -28
 2153              		.cfi_offset 7, -24
 2154              		.cfi_offset 8, -20
 2155              		.cfi_offset 9, -16
ARM GAS  C:\Users\kuzni\AppData\Local\Temp\ccqUPoDe.s 			page 56


 2156              		.cfi_offset 10, -12
 2157              		.cfi_offset 11, -8
 2158              		.cfi_offset 14, -4
 2159 0004 8DB0     		sub	sp, sp, #52
 2160              		.cfi_def_cfa_offset 88
 2161 0006 1C46     		mov	r4, r3
 2162 0008 0793     		str	r3, [sp, #28]	@ float
 2163 000a DDF85880 		ldr	r8, [sp, #88]
 2164 000e DDF860B0 		ldr	fp, [sp, #96]
 299:.\tm_layers.c ****     //It is simple and experimental implement for ADD, could be more way faster
 300:.\tm_layers.c ****     mtype_t* d0 = in0->data;
 2165              		.loc 1 300 0
 2166 0012 8568     		ldr	r5, [r0, #8]
 2167              	.LVL435:
 301:.\tm_layers.c ****     mtype_t* d1 = in1->data;
 2168              		.loc 1 301 0
 2169 0014 8E68     		ldr	r6, [r1, #8]
 2170              	.LVL436:
 302:.\tm_layers.c ****     mtype_t* res = out->data; 
 2171              		.loc 1 302 0
 2172 0016 9768     		ldr	r7, [r2, #8]
 2173              	.LVL437:
 303:.\tm_layers.c ****     int size = in0->h*in0->w*in0->c;
 2174              		.loc 1 303 0
 2175 0018 4288     		ldrh	r2, [r0, #2]
 2176              	.LVL438:
 2177 001a 8388     		ldrh	r3, [r0, #4]
 2178              	.LVL439:
 2179 001c 03FB02F3 		mul	r3, r3, r2
 2180 0020 C288     		ldrh	r2, [r0, #6]
 2181 0022 02FB03F2 		mul	r2, r2, r3
 2182 0026 0B92     		str	r2, [sp, #44]
 2183              	.LVL440:
 304:.\tm_layers.c ****     TM_PRINTF("s0=%.3f,zp0=%d; s1=%.3f,zp1=%d\r\n", in_s0, in_zp0, in_s1, in_zp1);
 2184              		.loc 1 304 0
 2185 0028 2046     		mov	r0, r4
 2186              	.LVL441:
 2187 002a FFF7FEFF 		bl	__aeabi_f2d
 2188              	.LVL442:
 2189 002e CDE90801 		strd	r0, [sp, #32]
 2190 0032 CDF80080 		str	r8, [sp]
 2191 0036 1798     		ldr	r0, [sp, #92]	@ float
 2192 0038 FFF7FEFF 		bl	__aeabi_f2d
 2193              	.LVL443:
 2194 003c CDE90201 		strd	r0, [sp, #8]
 2195 0040 CDF810B0 		str	fp, [sp, #16]
 2196 0044 6348     		ldr	r0, .L154
 2197 0046 DDE90823 		ldrd	r2, [sp, #32]
 2198 004a FFF7FEFF 		bl	printf
 2199              	.LVL444:
 305:.\tm_layers.c **** #if TM_MDL_TYPE == TM_MDL_FP16 || TM_MDL_TYPE == TM_MDL_FP32 || TM_MDL_TYPE == TM_MDL_INT8
 306:.\tm_layers.c ****     int i;
 307:.\tm_layers.c ****     for(i=0; i+4<=size; ){
 2200              		.loc 1 307 0
 2201 004e 0024     		movs	r4, #0
 2202              	.LVL445:
 2203 0050 8DE0     		b	.L149
ARM GAS  C:\Users\kuzni\AppData\Local\Temp\ccqUPoDe.s 			page 57


 2204              	.LVL446:
 2205              	.L150:
 308:.\tm_layers.c ****         res[i] = TM_QUANT(TM_DEQUANT(d0[i],in_s0,in_zp0)+TM_DEQUANT(d1[i],in_s1,in_zp1), out_s, out
 2206              		.loc 1 308 0
 2207 0052 2857     		ldrsb	r0, [r5, r4]
 2208 0054 C8EB0000 		rsb	r0, r8, r0
 2209 0058 FFF7FEFF 		bl	__aeabi_i2f
 2210              	.LVL447:
 2211 005c 0799     		ldr	r1, [sp, #28]	@ float
 2212 005e FFF7FEFF 		bl	__aeabi_fmul
 2213              	.LVL448:
 2214 0062 8146     		mov	r9, r0
 2215 0064 3057     		ldrsb	r0, [r6, r4]
 2216 0066 CBEB0000 		rsb	r0, fp, r0
 2217 006a FFF7FEFF 		bl	__aeabi_i2f
 2218              	.LVL449:
 2219 006e 1799     		ldr	r1, [sp, #92]	@ float
 2220 0070 FFF7FEFF 		bl	__aeabi_fmul
 2221              	.LVL450:
 2222 0074 0146     		mov	r1, r0
 2223 0076 4846     		mov	r0, r9
 2224 0078 FFF7FEFF 		bl	__aeabi_fadd
 2225              	.LVL451:
 2226 007c 1999     		ldr	r1, [sp, #100]	@ float
 2227 007e FFF7FEFF 		bl	__aeabi_fdiv
 2228              	.LVL452:
 2229 0082 8146     		mov	r9, r0
 2230 0084 1A98     		ldr	r0, [sp, #104]
 2231 0086 FFF7FEFF 		bl	__aeabi_i2f
 2232              	.LVL453:
 2233 008a 0346     		mov	r3, r0
 2234 008c 4846     		mov	r0, r9
 2235 008e 0893     		str	r3, [sp, #32]	@ float
 2236 0090 1946     		mov	r1, r3
 2237 0092 FFF7FEFF 		bl	__aeabi_fadd
 2238              	.LVL454:
 2239 0096 FFF7FEFF 		bl	__aeabi_f2iz
 2240              	.LVL455:
 2241 009a 3855     		strb	r0, [r7, r4]
 2242 009c 04F10109 		add	r9, r4, #1
 2243              	.LVL456:
 309:.\tm_layers.c ****         res[i] = TM_QUANT(TM_DEQUANT(d0[i],in_s0,in_zp0)+TM_DEQUANT(d1[i],in_s1,in_zp1), out_s, out
 2244              		.loc 1 309 0
 2245 00a0 15F90900 		ldrsb	r0, [r5, r9]
 2246 00a4 C8EB0000 		rsb	r0, r8, r0
 2247 00a8 FFF7FEFF 		bl	__aeabi_i2f
 2248              	.LVL457:
 2249 00ac 0799     		ldr	r1, [sp, #28]	@ float
 2250 00ae FFF7FEFF 		bl	__aeabi_fmul
 2251              	.LVL458:
 2252 00b2 0A90     		str	r0, [sp, #40]	@ float
 2253 00b4 16F90900 		ldrsb	r0, [r6, r9]
 2254 00b8 CBEB0000 		rsb	r0, fp, r0
 2255 00bc FFF7FEFF 		bl	__aeabi_i2f
 2256              	.LVL459:
 2257 00c0 1799     		ldr	r1, [sp, #92]	@ float
 2258 00c2 FFF7FEFF 		bl	__aeabi_fmul
ARM GAS  C:\Users\kuzni\AppData\Local\Temp\ccqUPoDe.s 			page 58


 2259              	.LVL460:
 2260 00c6 0146     		mov	r1, r0
 2261 00c8 0A98     		ldr	r0, [sp, #40]	@ float
 2262 00ca FFF7FEFF 		bl	__aeabi_fadd
 2263              	.LVL461:
 2264 00ce 1999     		ldr	r1, [sp, #100]	@ float
 2265 00d0 FFF7FEFF 		bl	__aeabi_fdiv
 2266              	.LVL462:
 2267 00d4 0146     		mov	r1, r0
 2268 00d6 0898     		ldr	r0, [sp, #32]	@ float
 2269 00d8 FFF7FEFF 		bl	__aeabi_fadd
 2270              	.LVL463:
 2271 00dc FFF7FEFF 		bl	__aeabi_f2iz
 2272              	.LVL464:
 2273 00e0 07F80900 		strb	r0, [r7, r9]
 2274 00e4 04F10209 		add	r9, r4, #2
 2275              	.LVL465:
 310:.\tm_layers.c ****         res[i] = TM_QUANT(TM_DEQUANT(d0[i],in_s0,in_zp0)+TM_DEQUANT(d1[i],in_s1,in_zp1), out_s, out
 2276              		.loc 1 310 0
 2277 00e8 15F90900 		ldrsb	r0, [r5, r9]
 2278 00ec C8EB0000 		rsb	r0, r8, r0
 2279 00f0 FFF7FEFF 		bl	__aeabi_i2f
 2280              	.LVL466:
 2281 00f4 0799     		ldr	r1, [sp, #28]	@ float
 2282 00f6 FFF7FEFF 		bl	__aeabi_fmul
 2283              	.LVL467:
 2284 00fa 0A90     		str	r0, [sp, #40]	@ float
 2285 00fc 16F90900 		ldrsb	r0, [r6, r9]
 2286 0100 CBEB0000 		rsb	r0, fp, r0
 2287 0104 FFF7FEFF 		bl	__aeabi_i2f
 2288              	.LVL468:
 2289 0108 1799     		ldr	r1, [sp, #92]	@ float
 2290 010a FFF7FEFF 		bl	__aeabi_fmul
 2291              	.LVL469:
 2292 010e 0146     		mov	r1, r0
 2293 0110 0A98     		ldr	r0, [sp, #40]	@ float
 2294 0112 FFF7FEFF 		bl	__aeabi_fadd
 2295              	.LVL470:
 2296 0116 1999     		ldr	r1, [sp, #100]	@ float
 2297 0118 FFF7FEFF 		bl	__aeabi_fdiv
 2298              	.LVL471:
 2299 011c 0146     		mov	r1, r0
 2300 011e 0898     		ldr	r0, [sp, #32]	@ float
 2301 0120 FFF7FEFF 		bl	__aeabi_fadd
 2302              	.LVL472:
 2303 0124 FFF7FEFF 		bl	__aeabi_f2iz
 2304              	.LVL473:
 2305 0128 07F80900 		strb	r0, [r7, r9]
 2306 012c 0334     		adds	r4, r4, #3
 2307              	.LVL474:
 311:.\tm_layers.c ****         res[i] = TM_QUANT(TM_DEQUANT(d0[i],in_s0,in_zp0)+TM_DEQUANT(d1[i],in_s1,in_zp1), out_s, out
 2308              		.loc 1 311 0
 2309 012e 2857     		ldrsb	r0, [r5, r4]
 2310 0130 C8EB0000 		rsb	r0, r8, r0
 2311 0134 FFF7FEFF 		bl	__aeabi_i2f
 2312              	.LVL475:
 2313 0138 0799     		ldr	r1, [sp, #28]	@ float
ARM GAS  C:\Users\kuzni\AppData\Local\Temp\ccqUPoDe.s 			page 59


 2314 013a FFF7FEFF 		bl	__aeabi_fmul
 2315              	.LVL476:
 2316 013e 8146     		mov	r9, r0
 2317 0140 3057     		ldrsb	r0, [r6, r4]
 2318 0142 CBEB0000 		rsb	r0, fp, r0
 2319 0146 FFF7FEFF 		bl	__aeabi_i2f
 2320              	.LVL477:
 2321 014a 1799     		ldr	r1, [sp, #92]	@ float
 2322 014c FFF7FEFF 		bl	__aeabi_fmul
 2323              	.LVL478:
 2324 0150 0146     		mov	r1, r0
 2325 0152 4846     		mov	r0, r9
 2326 0154 FFF7FEFF 		bl	__aeabi_fadd
 2327              	.LVL479:
 2328 0158 1999     		ldr	r1, [sp, #100]	@ float
 2329 015a FFF7FEFF 		bl	__aeabi_fdiv
 2330              	.LVL480:
 2331 015e 0146     		mov	r1, r0
 2332 0160 0898     		ldr	r0, [sp, #32]	@ float
 2333 0162 FFF7FEFF 		bl	__aeabi_fadd
 2334              	.LVL481:
 2335 0166 FFF7FEFF 		bl	__aeabi_f2iz
 2336              	.LVL482:
 2337 016a 3855     		strb	r0, [r7, r4]
 2338              	.LVL483:
 2339 016c 5446     		mov	r4, r10
 2340              	.LVL484:
 2341              	.L149:
 307:.\tm_layers.c ****         res[i] = TM_QUANT(TM_DEQUANT(d0[i],in_s0,in_zp0)+TM_DEQUANT(d1[i],in_s1,in_zp1), out_s, out
 2342              		.loc 1 307 0 discriminator 1
 2343 016e 04F1040A 		add	r10, r4, #4
 2344 0172 0B9B     		ldr	r3, [sp, #44]
 2345 0174 9A45     		cmp	r10, r3
 2346 0176 7FF76CAF 		ble	.L150
 2347 017a 9A46     		mov	r10, r3
 2348 017c 23E0     		b	.L151
 2349              	.L152:
 312:.\tm_layers.c ****     }
 313:.\tm_layers.c ****     for(; i<size; i++){
 314:.\tm_layers.c ****         res[i] = TM_QUANT(TM_DEQUANT(d0[i],in_s0,in_zp0)+TM_DEQUANT(d1[i],in_s1,in_zp1), out_s, out
 2350              		.loc 1 314 0 discriminator 2
 2351 017e 2857     		ldrsb	r0, [r5, r4]
 2352 0180 C8EB0000 		rsb	r0, r8, r0
 2353 0184 FFF7FEFF 		bl	__aeabi_i2f
 2354              	.LVL485:
 2355 0188 0799     		ldr	r1, [sp, #28]	@ float
 2356 018a FFF7FEFF 		bl	__aeabi_fmul
 2357              	.LVL486:
 2358 018e 8146     		mov	r9, r0
 2359 0190 3057     		ldrsb	r0, [r6, r4]
 2360 0192 CBEB0000 		rsb	r0, fp, r0
 2361 0196 FFF7FEFF 		bl	__aeabi_i2f
 2362              	.LVL487:
 2363 019a 1799     		ldr	r1, [sp, #92]	@ float
 2364 019c FFF7FEFF 		bl	__aeabi_fmul
 2365              	.LVL488:
 2366 01a0 0146     		mov	r1, r0
ARM GAS  C:\Users\kuzni\AppData\Local\Temp\ccqUPoDe.s 			page 60


 2367 01a2 4846     		mov	r0, r9
 2368 01a4 FFF7FEFF 		bl	__aeabi_fadd
 2369              	.LVL489:
 2370 01a8 1999     		ldr	r1, [sp, #100]	@ float
 2371 01aa FFF7FEFF 		bl	__aeabi_fdiv
 2372              	.LVL490:
 2373 01ae 8146     		mov	r9, r0
 2374 01b0 1A98     		ldr	r0, [sp, #104]
 2375 01b2 FFF7FEFF 		bl	__aeabi_i2f
 2376              	.LVL491:
 2377 01b6 0146     		mov	r1, r0
 2378 01b8 4846     		mov	r0, r9
 2379 01ba FFF7FEFF 		bl	__aeabi_fadd
 2380              	.LVL492:
 2381 01be FFF7FEFF 		bl	__aeabi_f2iz
 2382              	.LVL493:
 2383 01c2 3855     		strb	r0, [r7, r4]
 313:.\tm_layers.c ****         res[i] = TM_QUANT(TM_DEQUANT(d0[i],in_s0,in_zp0)+TM_DEQUANT(d1[i],in_s1,in_zp1), out_s, out
 2384              		.loc 1 313 0 discriminator 2
 2385 01c4 0134     		adds	r4, r4, #1
 2386              	.LVL494:
 2387              	.L151:
 313:.\tm_layers.c ****         res[i] = TM_QUANT(TM_DEQUANT(d0[i],in_s0,in_zp0)+TM_DEQUANT(d1[i],in_s1,in_zp1), out_s, out
 2388              		.loc 1 313 0 is_stmt 0 discriminator 1
 2389 01c6 5445     		cmp	r4, r10
 2390 01c8 D9DB     		blt	.L152
 315:.\tm_layers.c ****     }
 316:.\tm_layers.c **** #else
 317:.\tm_layers.c ****     #error "ADD not support this data type yet"
 318:.\tm_layers.c **** #endif
 319:.\tm_layers.c ****     return TM_OK;
 320:.\tm_layers.c **** }
 2391              		.loc 1 320 0 is_stmt 1
 2392 01ca 0020     		movs	r0, #0
 2393 01cc 0DB0     		add	sp, sp, #52
 2394              		.cfi_def_cfa_offset 36
 2395              		@ sp needed
 2396 01ce BDE8F08F 		pop	{r4, r5, r6, r7, r8, r9, r10, fp, pc}
 2397              	.LVL495:
 2398              	.L155:
 2399 01d2 00BF     		.align	2
 2400              	.L154:
 2401 01d4 00000000 		.word	.LC0
 2402              		.cfi_endproc
 2403              	.LFE11:
 2404              		.size	tml_add, .-tml_add
 2405              		.section	.rodata.str1.4,"aMS",%progbits,1
 2406              		.align	2
 2407              	.LC0:
 2408 0000 73303D25 		.ascii	"s0=%.3f,zp0=%d; s1=%.3f,zp1=%d\015\012\000"
 2408      2E33662C 
 2408      7A70303D 
 2408      25643B20 
 2408      73313D25 
 2409 0021 000000   		.bss
 2410              		.align	2
 2411              		.set	.LANCHOR0,. + 0
ARM GAS  C:\Users\kuzni\AppData\Local\Temp\ccqUPoDe.s 			page 61


 2412              		.set	.LANCHOR1,. + 4344
 2413              		.type	sbuf, %object
 2414              		.size	sbuf, 2304
 2415              	sbuf:
 2416 0000 00000000 		.space	2304
 2416      00000000 
 2416      00000000 
 2416      00000000 
 2416      00000000 
 2417              		.type	sumscale, %object
 2418              		.size	sumscale, 4000
 2419              	sumscale:
 2420 0900 00000000 		.space	4000
 2420      00000000 
 2420      00000000 
 2420      00000000 
 2420      00000000 
 2421              		.type	k_oft, %object
 2422              		.size	k_oft, 100
 2423              	k_oft:
 2424 18a0 00000000 		.space	100
 2424      00000000 
 2424      00000000 
 2424      00000000 
 2424      00000000 
 2425              		.text
 2426              	.Letext0:
 2427              		.file 4 "c:\\program files (x86)\\cypress\\psoc creator\\3.3\\psoc creator\\import\\gnu\\arm\\4.9.
 2428              		.file 5 "c:\\program files (x86)\\cypress\\psoc creator\\3.3\\psoc creator\\import\\gnu\\arm\\4.9.
 2429              		.file 6 "c:\\program files (x86)\\cypress\\psoc creator\\3.3\\psoc creator\\import\\gnu\\arm\\4.9.
 2430              		.file 7 "c:\\program files (x86)\\cypress\\psoc creator\\3.3\\psoc creator\\import\\gnu\\arm\\4.9.
 2431              		.file 8 "c:\\program files (x86)\\cypress\\psoc creator\\3.3\\psoc creator\\import\\gnu\\arm\\4.9.
 2432              		.section	.debug_info,"",%progbits
 2433              	.Ldebug_info0:
 2434 0000 17120000 		.4byte	0x1217
 2435 0004 0400     		.2byte	0x4
 2436 0006 00000000 		.4byte	.Ldebug_abbrev0
 2437 000a 04       		.byte	0x4
 2438 000b 01       		.uleb128 0x1
 2439 000c BB030000 		.4byte	.LASF111
 2440 0010 01       		.byte	0x1
 2441 0011 7E010000 		.4byte	.LASF112
 2442 0015 5C030000 		.4byte	.LASF113
 2443 0019 78000000 		.4byte	.Ldebug_ranges0+0x78
 2444 001d 00000000 		.4byte	0
 2445 0021 00000000 		.4byte	.Ldebug_line0
 2446 0025 02       		.uleb128 0x2
 2447 0026 08       		.byte	0x8
 2448 0027 04       		.byte	0x4
 2449 0028 AC040000 		.4byte	.LASF0
 2450 002c 03       		.uleb128 0x3
 2451 002d CF020000 		.4byte	.LASF4
 2452 0031 04       		.byte	0x4
 2453 0032 1B       		.byte	0x1b
 2454 0033 37000000 		.4byte	0x37
 2455 0037 02       		.uleb128 0x2
 2456 0038 01       		.byte	0x1
ARM GAS  C:\Users\kuzni\AppData\Local\Temp\ccqUPoDe.s 			page 62


 2457 0039 06       		.byte	0x6
 2458 003a 6A040000 		.4byte	.LASF1
 2459 003e 02       		.uleb128 0x2
 2460 003f 01       		.byte	0x1
 2461 0040 08       		.byte	0x8
 2462 0041 A2030000 		.4byte	.LASF2
 2463 0045 02       		.uleb128 0x2
 2464 0046 02       		.byte	0x2
 2465 0047 05       		.byte	0x5
 2466 0048 F4020000 		.4byte	.LASF3
 2467 004c 03       		.uleb128 0x3
 2468 004d 13010000 		.4byte	.LASF5
 2469 0051 04       		.byte	0x4
 2470 0052 2B       		.byte	0x2b
 2471 0053 57000000 		.4byte	0x57
 2472 0057 02       		.uleb128 0x2
 2473 0058 02       		.byte	0x2
 2474 0059 07       		.byte	0x7
 2475 005a 88040000 		.4byte	.LASF6
 2476 005e 03       		.uleb128 0x3
 2477 005f 39000000 		.4byte	.LASF7
 2478 0063 04       		.byte	0x4
 2479 0064 3F       		.byte	0x3f
 2480 0065 69000000 		.4byte	0x69
 2481 0069 02       		.uleb128 0x2
 2482 006a 04       		.byte	0x4
 2483 006b 05       		.byte	0x5
 2484 006c FE020000 		.4byte	.LASF8
 2485 0070 03       		.uleb128 0x3
 2486 0071 B0030000 		.4byte	.LASF9
 2487 0075 04       		.byte	0x4
 2488 0076 41       		.byte	0x41
 2489 0077 7B000000 		.4byte	0x7b
 2490 007b 02       		.uleb128 0x2
 2491 007c 04       		.byte	0x4
 2492 007d 07       		.byte	0x7
 2493 007e 38030000 		.4byte	.LASF10
 2494 0082 02       		.uleb128 0x2
 2495 0083 08       		.byte	0x8
 2496 0084 05       		.byte	0x5
 2497 0085 3A020000 		.4byte	.LASF11
 2498 0089 02       		.uleb128 0x2
 2499 008a 08       		.byte	0x8
 2500 008b 07       		.byte	0x7
 2501 008c FC000000 		.4byte	.LASF12
 2502 0090 04       		.uleb128 0x4
 2503 0091 04       		.byte	0x4
 2504 0092 05       		.byte	0x5
 2505 0093 696E7400 		.ascii	"int\000"
 2506 0097 02       		.uleb128 0x2
 2507 0098 04       		.byte	0x4
 2508 0099 07       		.byte	0x7
 2509 009a 21000000 		.4byte	.LASF13
 2510 009e 03       		.uleb128 0x3
 2511 009f B3000000 		.4byte	.LASF14
 2512 00a3 05       		.byte	0x5
 2513 00a4 14       		.byte	0x14
ARM GAS  C:\Users\kuzni\AppData\Local\Temp\ccqUPoDe.s 			page 63


 2514 00a5 2C000000 		.4byte	0x2c
 2515 00a9 03       		.uleb128 0x3
 2516 00aa EB020000 		.4byte	.LASF15
 2517 00ae 05       		.byte	0x5
 2518 00af 21       		.byte	0x21
 2519 00b0 4C000000 		.4byte	0x4c
 2520 00b4 03       		.uleb128 0x3
 2521 00b5 4A030000 		.4byte	.LASF16
 2522 00b9 05       		.byte	0x5
 2523 00ba 2C       		.byte	0x2c
 2524 00bb 5E000000 		.4byte	0x5e
 2525 00bf 03       		.uleb128 0x3
 2526 00c0 AA000000 		.4byte	.LASF17
 2527 00c4 05       		.byte	0x5
 2528 00c5 2D       		.byte	0x2d
 2529 00c6 70000000 		.4byte	0x70
 2530 00ca 03       		.uleb128 0x3
 2531 00cb 68010000 		.4byte	.LASF18
 2532 00cf 06       		.byte	0x6
 2533 00d0 D4       		.byte	0xd4
 2534 00d1 97000000 		.4byte	0x97
 2535 00d5 05       		.uleb128 0x5
 2536 00d6 04       		.byte	0x4
 2537 00d7 02       		.uleb128 0x2
 2538 00d8 04       		.byte	0x4
 2539 00d9 07       		.byte	0x7
 2540 00da 2A030000 		.4byte	.LASF19
 2541 00de 02       		.uleb128 0x2
 2542 00df 01       		.byte	0x1
 2543 00e0 08       		.byte	0x8
 2544 00e1 AC010000 		.4byte	.LASF20
 2545 00e5 06       		.uleb128 0x6
 2546 00e6 04       		.byte	0x4
 2547 00e7 EB000000 		.4byte	0xeb
 2548 00eb 07       		.uleb128 0x7
 2549 00ec DE000000 		.4byte	0xde
 2550 00f0 03       		.uleb128 0x3
 2551 00f1 8C010000 		.4byte	.LASF21
 2552 00f5 03       		.byte	0x3
 2553 00f6 29       		.byte	0x29
 2554 00f7 9E000000 		.4byte	0x9e
 2555 00fb 03       		.uleb128 0x3
 2556 00fc 52040000 		.4byte	.LASF22
 2557 0100 03       		.byte	0x3
 2558 0101 2A       		.byte	0x2a
 2559 0102 9E000000 		.4byte	0x9e
 2560 0106 03       		.uleb128 0x3
 2561 0107 5D000000 		.4byte	.LASF23
 2562 010b 03       		.byte	0x3
 2563 010c 2B       		.byte	0x2b
 2564 010d B4000000 		.4byte	0xb4
 2565 0111 03       		.uleb128 0x3
 2566 0112 74010000 		.4byte	.LASF24
 2567 0116 03       		.byte	0x3
 2568 0117 2C       		.byte	0x2c
 2569 0118 B4000000 		.4byte	0xb4
 2570 011c 03       		.uleb128 0x3
ARM GAS  C:\Users\kuzni\AppData\Local\Temp\ccqUPoDe.s 			page 64


 2571 011d 5F010000 		.4byte	.LASF25
 2572 0121 03       		.byte	0x3
 2573 0122 2D       		.byte	0x2d
 2574 0123 B4000000 		.4byte	0xb4
 2575 0127 03       		.uleb128 0x3
 2576 0128 12020000 		.4byte	.LASF26
 2577 012c 03       		.byte	0x3
 2578 012d 5F       		.byte	0x5f
 2579 012e 32010000 		.4byte	0x132
 2580 0132 02       		.uleb128 0x2
 2581 0133 04       		.byte	0x4
 2582 0134 04       		.byte	0x4
 2583 0135 EF000000 		.4byte	.LASF27
 2584 0139 08       		.uleb128 0x8
 2585 013a 01       		.byte	0x1
 2586 013b 03       		.byte	0x3
 2587 013c 63       		.byte	0x63
 2588 013d 7E010000 		.4byte	0x17e
 2589 0141 09       		.uleb128 0x9
 2590 0142 00000000 		.4byte	.LASF28
 2591 0146 00       		.sleb128 0
 2592 0147 09       		.uleb128 0x9
 2593 0148 A3000000 		.4byte	.LASF29
 2594 014c 01       		.sleb128 1
 2595 014d 09       		.uleb128 0x9
 2596 014e CD010000 		.4byte	.LASF30
 2597 0152 02       		.sleb128 2
 2598 0153 09       		.uleb128 0x9
 2599 0154 DA010000 		.4byte	.LASF31
 2600 0158 03       		.sleb128 3
 2601 0159 09       		.uleb128 0x9
 2602 015a 19030000 		.4byte	.LASF32
 2603 015e 04       		.sleb128 4
 2604 015f 09       		.uleb128 0x9
 2605 0160 DE000000 		.4byte	.LASF33
 2606 0164 05       		.sleb128 5
 2607 0165 09       		.uleb128 0x9
 2608 0166 F0010000 		.4byte	.LASF34
 2609 016a 06       		.sleb128 6
 2610 016b 09       		.uleb128 0x9
 2611 016c 06020000 		.4byte	.LASF35
 2612 0170 07       		.sleb128 7
 2613 0171 09       		.uleb128 0x9
 2614 0172 25020000 		.4byte	.LASF36
 2615 0176 08       		.sleb128 8
 2616 0177 09       		.uleb128 0x9
 2617 0178 C0010000 		.4byte	.LASF37
 2618 017c 09       		.sleb128 9
 2619 017d 00       		.byte	0
 2620 017e 03       		.uleb128 0x3
 2621 017f CD040000 		.4byte	.LASF38
 2622 0183 03       		.byte	0x3
 2623 0184 6E       		.byte	0x6e
 2624 0185 39010000 		.4byte	0x139
 2625 0189 08       		.uleb128 0x8
 2626 018a 01       		.byte	0x1
 2627 018b 03       		.byte	0x3
ARM GAS  C:\Users\kuzni\AppData\Local\Temp\ccqUPoDe.s 			page 65


 2628 018c 80       		.byte	0x80
 2629 018d BC010000 		.4byte	0x1bc
 2630 0191 09       		.uleb128 0x9
 2631 0192 0E000000 		.4byte	.LASF39
 2632 0196 00       		.sleb128 0
 2633 0197 09       		.uleb128 0x9
 2634 0198 28010000 		.4byte	.LASF40
 2635 019c 01       		.sleb128 1
 2636 019d 09       		.uleb128 0x9
 2637 019e BA000000 		.4byte	.LASF41
 2638 01a2 02       		.sleb128 2
 2639 01a3 09       		.uleb128 0x9
 2640 01a4 D1000000 		.4byte	.LASF42
 2641 01a8 03       		.sleb128 3
 2642 01a9 09       		.uleb128 0x9
 2643 01aa C1040000 		.4byte	.LASF43
 2644 01ae 04       		.sleb128 4
 2645 01af 09       		.uleb128 0x9
 2646 01b0 63020000 		.4byte	.LASF44
 2647 01b4 05       		.sleb128 5
 2648 01b5 09       		.uleb128 0x9
 2649 01b6 65000000 		.4byte	.LASF45
 2650 01ba 06       		.sleb128 6
 2651 01bb 00       		.byte	0
 2652 01bc 0A       		.uleb128 0xa
 2653 01bd 04       		.byte	0x4
 2654 01be 03       		.byte	0x3
 2655 01bf B9       		.byte	0xb9
 2656 01c0 DB010000 		.4byte	0x1db
 2657 01c4 0B       		.uleb128 0xb
 2658 01c5 EB010000 		.4byte	.LASF46
 2659 01c9 03       		.byte	0x3
 2660 01ca BA       		.byte	0xba
 2661 01cb DB010000 		.4byte	0x1db
 2662 01cf 0B       		.uleb128 0xb
 2663 01d0 72020000 		.4byte	.LASF47
 2664 01d4 03       		.byte	0x3
 2665 01d5 BB       		.byte	0xbb
 2666 01d6 E1010000 		.4byte	0x1e1
 2667 01da 00       		.byte	0
 2668 01db 06       		.uleb128 0x6
 2669 01dc 04       		.byte	0x4
 2670 01dd F0000000 		.4byte	0xf0
 2671 01e1 06       		.uleb128 0x6
 2672 01e2 04       		.byte	0x4
 2673 01e3 32010000 		.4byte	0x132
 2674 01e7 0C       		.uleb128 0xc
 2675 01e8 0C       		.byte	0xc
 2676 01e9 03       		.byte	0x3
 2677 01ea B4       		.byte	0xb4
 2678 01eb 20020000 		.4byte	0x220
 2679 01ef 0D       		.uleb128 0xd
 2680 01f0 7A000000 		.4byte	.LASF48
 2681 01f4 03       		.byte	0x3
 2682 01f5 B5       		.byte	0xb5
 2683 01f6 A9000000 		.4byte	0xa9
 2684 01fa 00       		.byte	0
ARM GAS  C:\Users\kuzni\AppData\Local\Temp\ccqUPoDe.s 			page 66


 2685 01fb 0E       		.uleb128 0xe
 2686 01fc 6800     		.ascii	"h\000"
 2687 01fe 03       		.byte	0x3
 2688 01ff B6       		.byte	0xb6
 2689 0200 A9000000 		.4byte	0xa9
 2690 0204 02       		.byte	0x2
 2691 0205 0E       		.uleb128 0xe
 2692 0206 7700     		.ascii	"w\000"
 2693 0208 03       		.byte	0x3
 2694 0209 B7       		.byte	0xb7
 2695 020a A9000000 		.4byte	0xa9
 2696 020e 04       		.byte	0x4
 2697 020f 0E       		.uleb128 0xe
 2698 0210 6300     		.ascii	"c\000"
 2699 0212 03       		.byte	0x3
 2700 0213 B8       		.byte	0xb8
 2701 0214 A9000000 		.4byte	0xa9
 2702 0218 06       		.byte	0x6
 2703 0219 0F       		.uleb128 0xf
 2704 021a BC010000 		.4byte	0x1bc
 2705 021e 08       		.byte	0x8
 2706 021f 00       		.byte	0
 2707 0220 03       		.uleb128 0x3
 2708 0221 90000000 		.4byte	.LASF49
 2709 0225 03       		.byte	0x3
 2710 0226 BD       		.byte	0xbd
 2711 0227 E7010000 		.4byte	0x1e7
 2712 022b 06       		.uleb128 0x6
 2713 022c 04       		.byte	0x4
 2714 022d 20020000 		.4byte	0x220
 2715 0231 02       		.uleb128 0x2
 2716 0232 08       		.byte	0x8
 2717 0233 04       		.byte	0x4
 2718 0234 DF020000 		.4byte	.LASF50
 2719 0238 10       		.uleb128 0x10
 2720 0239 97020000 		.4byte	.LASF59
 2721 023d 02       		.byte	0x2
 2722 023e 2B       		.byte	0x2b
 2723 023f 03       		.byte	0x3
 2724 0240 B1020000 		.4byte	0x2b1
 2725 0244 11       		.uleb128 0x11
 2726 0245 B3040000 		.4byte	.LASF51
 2727 0249 02       		.byte	0x2
 2728 024a 2B       		.byte	0x2b
 2729 024b DB010000 		.4byte	0x1db
 2730 024f 11       		.uleb128 0x11
 2731 0250 FC010000 		.4byte	.LASF52
 2732 0254 02       		.byte	0x2
 2733 0255 2B       		.byte	0x2b
 2734 0256 DB010000 		.4byte	0x1db
 2735 025a 11       		.uleb128 0x11
 2736 025b 92020000 		.4byte	.LASF53
 2737 025f 02       		.byte	0x2
 2738 0260 2B       		.byte	0x2b
 2739 0261 BF000000 		.4byte	0xbf
 2740 0265 11       		.uleb128 0x11
 2741 0266 F5000000 		.4byte	.LASF54
ARM GAS  C:\Users\kuzni\AppData\Local\Temp\ccqUPoDe.s 			page 67


 2742 026a 02       		.byte	0x2
 2743 026b 2B       		.byte	0x2b
 2744 026c B1020000 		.4byte	0x2b1
 2745 0270 12       		.uleb128 0x12
 2746 0271 B1010000 		.4byte	.LASF55
 2747 0275 02       		.byte	0x2
 2748 0276 2D       		.byte	0x2d
 2749 0277 11010000 		.4byte	0x111
 2750 027b 12       		.uleb128 0x12
 2751 027c B6010000 		.4byte	.LASF56
 2752 0280 02       		.byte	0x2
 2753 0281 2E       		.byte	0x2e
 2754 0282 11010000 		.4byte	0x111
 2755 0286 12       		.uleb128 0x12
 2756 0287 87030000 		.4byte	.LASF57
 2757 028b 02       		.byte	0x2
 2758 028c 2F       		.byte	0x2f
 2759 028d DB010000 		.4byte	0x1db
 2760 0291 12       		.uleb128 0x12
 2761 0292 8D030000 		.4byte	.LASF58
 2762 0296 02       		.byte	0x2
 2763 0297 30       		.byte	0x30
 2764 0298 DB010000 		.4byte	0x1db
 2765 029c 13       		.uleb128 0x13
 2766 029d 6900     		.ascii	"i\000"
 2767 029f 02       		.byte	0x2
 2768 02a0 32       		.byte	0x32
 2769 02a1 BF000000 		.4byte	0xbf
 2770 02a5 13       		.uleb128 0x13
 2771 02a6 636E7400 		.ascii	"cnt\000"
 2772 02aa 02       		.byte	0x2
 2773 02ab 33       		.byte	0x33
 2774 02ac BF000000 		.4byte	0xbf
 2775 02b0 00       		.byte	0
 2776 02b1 06       		.uleb128 0x6
 2777 02b2 04       		.byte	0x4
 2778 02b3 11010000 		.4byte	0x111
 2779 02b7 10       		.uleb128 0x10
 2780 02b8 50020000 		.4byte	.LASF60
 2781 02bc 02       		.byte	0x2
 2782 02bd A0       		.byte	0xa0
 2783 02be 03       		.byte	0x3
 2784 02bf 3A030000 		.4byte	0x33a
 2785 02c3 14       		.uleb128 0x14
 2786 02c4 6E00     		.ascii	"n\000"
 2787 02c6 02       		.byte	0x2
 2788 02c7 A0       		.byte	0xa0
 2789 02c8 90000000 		.4byte	0x90
 2790 02cc 11       		.uleb128 0x11
 2791 02cd 20020000 		.4byte	.LASF61
 2792 02d1 02       		.byte	0x2
 2793 02d2 A0       		.byte	0xa0
 2794 02d3 B1020000 		.4byte	0x2b1
 2795 02d7 14       		.uleb128 0x14
 2796 02d8 627300   		.ascii	"bs\000"
 2797 02db 02       		.byte	0x2
 2798 02dc A0       		.byte	0xa0
ARM GAS  C:\Users\kuzni\AppData\Local\Temp\ccqUPoDe.s 			page 68


 2799 02dd 3A030000 		.4byte	0x33a
 2800 02e1 14       		.uleb128 0x14
 2801 02e2 61637400 		.ascii	"act\000"
 2802 02e6 02       		.byte	0x2
 2803 02e7 A0       		.byte	0xa0
 2804 02e8 90000000 		.4byte	0x90
 2805 02ec 11       		.uleb128 0x11
 2806 02ed 0F030000 		.4byte	.LASF62
 2807 02f1 02       		.byte	0x2
 2808 02f2 A0       		.byte	0xa0
 2809 02f3 DB010000 		.4byte	0x1db
 2810 02f7 11       		.uleb128 0x11
 2811 02f8 73000000 		.4byte	.LASF63
 2812 02fc 02       		.byte	0x2
 2813 02fd A0       		.byte	0xa0
 2814 02fe 40030000 		.4byte	0x340
 2815 0302 11       		.uleb128 0x11
 2816 0303 C7000000 		.4byte	.LASF64
 2817 0307 02       		.byte	0x2
 2818 0308 A0       		.byte	0xa0
 2819 0309 27010000 		.4byte	0x127
 2820 030d 11       		.uleb128 0x11
 2821 030e D8020000 		.4byte	.LASF65
 2822 0312 02       		.byte	0x2
 2823 0313 A0       		.byte	0xa0
 2824 0314 1C010000 		.4byte	0x11c
 2825 0318 13       		.uleb128 0x13
 2826 0319 6900     		.ascii	"i\000"
 2827 031b 02       		.byte	0x2
 2828 031c A5       		.byte	0xa5
 2829 031d 90000000 		.4byte	0x90
 2830 0321 15       		.uleb128 0x15
 2831 0322 13       		.uleb128 0x13
 2832 0323 73756D00 		.ascii	"sum\000"
 2833 0327 02       		.byte	0x2
 2834 0328 A7       		.byte	0xa7
 2835 0329 11010000 		.4byte	0x111
 2836 032d 12       		.uleb128 0x12
 2837 032e 1B020000 		.4byte	.LASF66
 2838 0332 02       		.byte	0x2
 2839 0333 AA       		.byte	0xaa
 2840 0334 32010000 		.4byte	0x132
 2841 0338 00       		.byte	0
 2842 0339 00       		.byte	0
 2843 033a 06       		.uleb128 0x6
 2844 033b 04       		.byte	0x4
 2845 033c 06010000 		.4byte	0x106
 2846 0340 06       		.uleb128 0x6
 2847 0341 04       		.byte	0x4
 2848 0342 27010000 		.4byte	0x127
 2849 0346 10       		.uleb128 0x10
 2850 0347 94010000 		.4byte	.LASF67
 2851 034b 02       		.byte	0x2
 2852 034c 15       		.byte	0x15
 2853 034d 03       		.byte	0x3
 2854 034e 9E030000 		.4byte	0x39e
 2855 0352 11       		.uleb128 0x11
ARM GAS  C:\Users\kuzni\AppData\Local\Temp\ccqUPoDe.s 			page 69


 2856 0353 B3040000 		.4byte	.LASF51
 2857 0357 02       		.byte	0x2
 2858 0358 15       		.byte	0x15
 2859 0359 DB010000 		.4byte	0x1db
 2860 035d 11       		.uleb128 0x11
 2861 035e FC010000 		.4byte	.LASF52
 2862 0362 02       		.byte	0x2
 2863 0363 15       		.byte	0x15
 2864 0364 DB010000 		.4byte	0x1db
 2865 0368 11       		.uleb128 0x11
 2866 0369 92020000 		.4byte	.LASF53
 2867 036d 02       		.byte	0x2
 2868 036e 15       		.byte	0x15
 2869 036f BF000000 		.4byte	0xbf
 2870 0373 11       		.uleb128 0x11
 2871 0374 F5000000 		.4byte	.LASF54
 2872 0378 02       		.byte	0x2
 2873 0379 15       		.byte	0x15
 2874 037a B1020000 		.4byte	0x2b1
 2875 037e 13       		.uleb128 0x13
 2876 037f 73756D00 		.ascii	"sum\000"
 2877 0383 02       		.byte	0x2
 2878 0384 17       		.byte	0x17
 2879 0385 11010000 		.4byte	0x111
 2880 0389 13       		.uleb128 0x13
 2881 038a 6900     		.ascii	"i\000"
 2882 038c 02       		.byte	0x2
 2883 038d 18       		.byte	0x18
 2884 038e BF000000 		.4byte	0xbf
 2885 0392 13       		.uleb128 0x13
 2886 0393 636E7400 		.ascii	"cnt\000"
 2887 0397 02       		.byte	0x2
 2888 0398 19       		.byte	0x19
 2889 0399 BF000000 		.4byte	0xbf
 2890 039d 00       		.byte	0
 2891 039e 10       		.uleb128 0x10
 2892 039f 76040000 		.4byte	.LASF68
 2893 03a3 02       		.byte	0x2
 2894 03a4 50       		.byte	0x50
 2895 03a5 03       		.byte	0x3
 2896 03a6 CC030000 		.4byte	0x3cc
 2897 03aa 11       		.uleb128 0x11
 2898 03ab B3040000 		.4byte	.LASF51
 2899 03af 02       		.byte	0x2
 2900 03b0 50       		.byte	0x50
 2901 03b1 DB010000 		.4byte	0x1db
 2902 03b5 11       		.uleb128 0x11
 2903 03b6 FC010000 		.4byte	.LASF52
 2904 03ba 02       		.byte	0x2
 2905 03bb 50       		.byte	0x50
 2906 03bc DB010000 		.4byte	0x1db
 2907 03c0 11       		.uleb128 0x11
 2908 03c1 F5000000 		.4byte	.LASF54
 2909 03c5 02       		.byte	0x2
 2910 03c6 50       		.byte	0x50
 2911 03c7 B1020000 		.4byte	0x2b1
 2912 03cb 00       		.byte	0
ARM GAS  C:\Users\kuzni\AppData\Local\Temp\ccqUPoDe.s 			page 70


 2913 03cc 16       		.uleb128 0x16
 2914 03cd BB010000 		.4byte	.LASF114
 2915 03d1 03       		.byte	0x3
 2916 03d2 5801     		.2byte	0x158
 2917 03d4 32010000 		.4byte	0x132
 2918 03d8 03       		.byte	0x3
 2919 03d9 44040000 		.4byte	0x444
 2920 03dd 17       		.uleb128 0x17
 2921 03de 7800     		.ascii	"x\000"
 2922 03e0 03       		.byte	0x3
 2923 03e1 5801     		.2byte	0x158
 2924 03e3 32010000 		.4byte	0x132
 2925 03e7 18       		.uleb128 0x18
 2926 03e8 7000     		.ascii	"p\000"
 2927 03ea 03       		.byte	0x3
 2928 03eb 5901     		.2byte	0x159
 2929 03ed 32010000 		.4byte	0x132
 2930 03f1 18       		.uleb128 0x18
 2931 03f2 6900     		.ascii	"i\000"
 2932 03f4 03       		.byte	0x3
 2933 03f5 5A01     		.2byte	0x15a
 2934 03f7 BF000000 		.4byte	0xbf
 2935 03fb 19       		.uleb128 0x19
 2936 03fc 6F010000 		.4byte	.LASF69
 2937 0400 03       		.byte	0x3
 2938 0401 5B01     		.2byte	0x15b
 2939 0403 BF000000 		.4byte	0xbf
 2940 0407 18       		.uleb128 0x18
 2941 0408 7700     		.ascii	"w\000"
 2942 040a 03       		.byte	0x3
 2943 040b 5C01     		.2byte	0x15c
 2944 040d 90000000 		.4byte	0x90
 2945 0411 18       		.uleb128 0x18
 2946 0412 7A00     		.ascii	"z\000"
 2947 0414 03       		.byte	0x3
 2948 0415 5D01     		.2byte	0x15d
 2949 0417 32010000 		.4byte	0x132
 2950 041b 1A       		.uleb128 0x1a
 2951 041c 04       		.byte	0x4
 2952 041d 03       		.byte	0x3
 2953 041e 5E01     		.2byte	0x15e
 2954 0420 39040000 		.4byte	0x439
 2955 0424 1B       		.uleb128 0x1b
 2956 0425 6900     		.ascii	"i\000"
 2957 0427 03       		.byte	0x3
 2958 0428 5F01     		.2byte	0x15f
 2959 042a BF000000 		.4byte	0xbf
 2960 042e 1B       		.uleb128 0x1b
 2961 042f 6600     		.ascii	"f\000"
 2962 0431 03       		.byte	0x3
 2963 0432 6001     		.2byte	0x160
 2964 0434 32010000 		.4byte	0x132
 2965 0438 00       		.byte	0
 2966 0439 18       		.uleb128 0x18
 2967 043a 7600     		.ascii	"v\000"
 2968 043c 03       		.byte	0x3
 2969 043d 6101     		.2byte	0x161
ARM GAS  C:\Users\kuzni\AppData\Local\Temp\ccqUPoDe.s 			page 71


 2970 043f 1B040000 		.4byte	0x41b
 2971 0443 00       		.byte	0
 2972 0444 1C       		.uleb128 0x1c
 2973 0445 BB020000 		.4byte	.LASF92
 2974 0449 01       		.byte	0x1
 2975 044a 40       		.byte	0x40
 2976 044b 7E010000 		.4byte	0x17e
 2977 044f 00000000 		.4byte	.LFB6
 2978 0453 2C080000 		.4byte	.LFE6-.LFB6
 2979 0457 01       		.uleb128 0x1
 2980 0458 9C       		.byte	0x9c
 2981 0459 290C0000 		.4byte	0xc29
 2982 045d 1D       		.uleb128 0x1d
 2983 045e 696E00   		.ascii	"in\000"
 2984 0461 01       		.byte	0x1
 2985 0462 40       		.byte	0x40
 2986 0463 2B020000 		.4byte	0x22b
 2987 0467 00000000 		.4byte	.LLST0
 2988 046b 1D       		.uleb128 0x1d
 2989 046c 6F757400 		.ascii	"out\000"
 2990 0470 01       		.byte	0x1
 2991 0471 40       		.byte	0x40
 2992 0472 2B020000 		.4byte	0x22b
 2993 0476 CC000000 		.4byte	.LLST1
 2994 047a 1D       		.uleb128 0x1d
 2995 047b 7700     		.ascii	"w\000"
 2996 047d 01       		.byte	0x1
 2997 047e 40       		.byte	0x40
 2998 047f 290C0000 		.4byte	0xc29
 2999 0483 1C010000 		.4byte	.LLST2
 3000 0487 1D       		.uleb128 0x1d
 3001 0488 6200     		.ascii	"b\000"
 3002 048a 01       		.byte	0x1
 3003 048b 40       		.byte	0x40
 3004 048c 3A030000 		.4byte	0x33a
 3005 0490 C5010000 		.4byte	.LLST3
 3006 0494 1D       		.uleb128 0x1d
 3007 0495 6B7700   		.ascii	"kw\000"
 3008 0498 01       		.byte	0x1
 3009 0499 41       		.byte	0x41
 3010 049a 90000000 		.4byte	0x90
 3011 049e F2010000 		.4byte	.LLST4
 3012 04a2 1D       		.uleb128 0x1d
 3013 04a3 6B6800   		.ascii	"kh\000"
 3014 04a6 01       		.byte	0x1
 3015 04a7 41       		.byte	0x41
 3016 04a8 90000000 		.4byte	0x90
 3017 04ac 12020000 		.4byte	.LLST5
 3018 04b0 1D       		.uleb128 0x1d
 3019 04b1 737800   		.ascii	"sx\000"
 3020 04b4 01       		.byte	0x1
 3021 04b5 41       		.byte	0x41
 3022 04b6 90000000 		.4byte	0x90
 3023 04ba 32020000 		.4byte	.LLST6
 3024 04be 1D       		.uleb128 0x1d
 3025 04bf 737900   		.ascii	"sy\000"
 3026 04c2 01       		.byte	0x1
ARM GAS  C:\Users\kuzni\AppData\Local\Temp\ccqUPoDe.s 			page 72


 3027 04c3 41       		.byte	0x41
 3028 04c4 90000000 		.4byte	0x90
 3029 04c8 52020000 		.4byte	.LLST7
 3030 04cc 1D       		.uleb128 0x1d
 3031 04cd 647800   		.ascii	"dx\000"
 3032 04d0 01       		.byte	0x1
 3033 04d1 41       		.byte	0x41
 3034 04d2 90000000 		.4byte	0x90
 3035 04d6 72020000 		.4byte	.LLST8
 3036 04da 1D       		.uleb128 0x1d
 3037 04db 647900   		.ascii	"dy\000"
 3038 04de 01       		.byte	0x1
 3039 04df 41       		.byte	0x41
 3040 04e0 90000000 		.4byte	0x90
 3041 04e4 92020000 		.4byte	.LLST9
 3042 04e8 1D       		.uleb128 0x1d
 3043 04e9 61637400 		.ascii	"act\000"
 3044 04ed 01       		.byte	0x1
 3045 04ee 41       		.byte	0x41
 3046 04ef 90000000 		.4byte	0x90
 3047 04f3 B2020000 		.4byte	.LLST10
 3048 04f7 1E       		.uleb128 0x1e
 3049 04f8 06000000 		.4byte	.LASF70
 3050 04fc 01       		.byte	0x1
 3051 04fd 42       		.byte	0x42
 3052 04fe 90000000 		.4byte	0x90
 3053 0502 D2020000 		.4byte	.LLST11
 3054 0506 1E       		.uleb128 0x1e
 3055 0507 5A040000 		.4byte	.LASF71
 3056 050b 01       		.byte	0x1
 3057 050c 42       		.byte	0x42
 3058 050d 90000000 		.4byte	0x90
 3059 0511 F2020000 		.4byte	.LLST12
 3060 0515 1E       		.uleb128 0x1e
 3061 0516 49040000 		.4byte	.LASF72
 3062 051a 01       		.byte	0x1
 3063 051b 42       		.byte	0x42
 3064 051c 90000000 		.4byte	0x90
 3065 0520 12030000 		.4byte	.LLST13
 3066 0524 1E       		.uleb128 0x1e
 3067 0525 55010000 		.4byte	.LASF73
 3068 0529 01       		.byte	0x1
 3069 052a 42       		.byte	0x42
 3070 052b 90000000 		.4byte	0x90
 3071 052f 32030000 		.4byte	.LLST14
 3072 0533 1E       		.uleb128 0x1e
 3073 0534 1E010000 		.4byte	.LASF74
 3074 0538 01       		.byte	0x1
 3075 0539 42       		.byte	0x42
 3076 053a 90000000 		.4byte	0x90
 3077 053e 52030000 		.4byte	.LLST15
 3078 0542 1D       		.uleb128 0x1d
 3079 0543 777300   		.ascii	"ws\000"
 3080 0546 01       		.byte	0x1
 3081 0547 43       		.byte	0x43
 3082 0548 40030000 		.4byte	0x340
 3083 054c 72030000 		.4byte	.LLST16
ARM GAS  C:\Users\kuzni\AppData\Local\Temp\ccqUPoDe.s 			page 73


 3084 0550 1E       		.uleb128 0x1e
 3085 0551 53000000 		.4byte	.LASF75
 3086 0555 01       		.byte	0x1
 3087 0556 43       		.byte	0x43
 3088 0557 27010000 		.4byte	0x127
 3089 055b 92030000 		.4byte	.LLST17
 3090 055f 1E       		.uleb128 0x1e
 3091 0560 9C030000 		.4byte	.LASF76
 3092 0564 01       		.byte	0x1
 3093 0565 43       		.byte	0x43
 3094 0566 1C010000 		.4byte	0x11c
 3095 056a B2030000 		.4byte	.LLST18
 3096 056e 1E       		.uleb128 0x1e
 3097 056f 34020000 		.4byte	.LASF77
 3098 0573 01       		.byte	0x1
 3099 0574 43       		.byte	0x43
 3100 0575 27010000 		.4byte	0x127
 3101 0579 D2030000 		.4byte	.LLST19
 3102 057d 1E       		.uleb128 0x1e
 3103 057e D8020000 		.4byte	.LASF65
 3104 0582 01       		.byte	0x1
 3105 0583 43       		.byte	0x43
 3106 0584 1C010000 		.4byte	0x11c
 3107 0588 F2030000 		.4byte	.LLST20
 3108 058c 1F       		.uleb128 0x1f
 3109 058d 93030000 		.4byte	.LASF78
 3110 0591 01       		.byte	0x1
 3111 0592 47       		.byte	0x47
 3112 0593 90000000 		.4byte	0x90
 3113 0597 14040000 		.4byte	.LLST21
 3114 059b 1F       		.uleb128 0x1f
 3115 059c 65040000 		.4byte	.LASF79
 3116 05a0 01       		.byte	0x1
 3117 05a1 4A       		.byte	0x4a
 3118 05a2 90000000 		.4byte	0x90
 3119 05a6 32040000 		.4byte	.LLST22
 3120 05aa 20       		.uleb128 0x20
 3121 05ab 63686900 		.ascii	"chi\000"
 3122 05af 01       		.byte	0x1
 3123 05b0 4D       		.byte	0x4d
 3124 05b1 90000000 		.4byte	0x90
 3125 05b5 89040000 		.4byte	.LLST23
 3126 05b9 20       		.uleb128 0x20
 3127 05ba 63686F00 		.ascii	"cho\000"
 3128 05be 01       		.byte	0x1
 3129 05bf 4E       		.byte	0x4e
 3130 05c0 90000000 		.4byte	0x90
 3131 05c4 BF040000 		.4byte	.LLST24
 3132 05c8 21       		.uleb128 0x21
 3133 05c9 73756D00 		.ascii	"sum\000"
 3134 05cd 01       		.byte	0x1
 3135 05ce 4F       		.byte	0x4f
 3136 05cf 11010000 		.4byte	0x111
 3137 05d3 02       		.uleb128 0x2
 3138 05d4 91       		.byte	0x91
 3139 05d5 54       		.sleb128 -44
 3140 05d6 1F       		.uleb128 0x1f
ARM GAS  C:\Users\kuzni\AppData\Local\Temp\ccqUPoDe.s 			page 74


 3141 05d7 0F030000 		.4byte	.LASF62
 3142 05db 01       		.byte	0x1
 3143 05dc 50       		.byte	0x50
 3144 05dd DB010000 		.4byte	0x1db
 3145 05e1 EC040000 		.4byte	.LLST25
 3146 05e5 1F       		.uleb128 0x1f
 3147 05e6 B8040000 		.4byte	.LASF80
 3148 05ea 01       		.byte	0x1
 3149 05eb 57       		.byte	0x57
 3150 05ec 27010000 		.4byte	0x127
 3151 05f0 84050000 		.4byte	.LLST26
 3152 05f4 1F       		.uleb128 0x1f
 3153 05f5 48010000 		.4byte	.LASF81
 3154 05f9 01       		.byte	0x1
 3155 05fa 58       		.byte	0x58
 3156 05fb 27010000 		.4byte	0x127
 3157 05ff 98050000 		.4byte	.LLST27
 3158 0603 20       		.uleb128 0x20
 3159 0604 6300     		.ascii	"c\000"
 3160 0606 01       		.byte	0x1
 3161 0607 59       		.byte	0x59
 3162 0608 90000000 		.4byte	0x90
 3163 060c B8050000 		.4byte	.LLST28
 3164 0610 20       		.uleb128 0x20
 3165 0611 6F667400 		.ascii	"oft\000"
 3166 0615 01       		.byte	0x1
 3167 0616 79       		.byte	0x79
 3168 0617 90000000 		.4byte	0x90
 3169 061b E2050000 		.4byte	.LLST29
 3170 061f 20       		.uleb128 0x20
 3171 0620 69647800 		.ascii	"idx\000"
 3172 0624 01       		.byte	0x1
 3173 0625 7A       		.byte	0x7a
 3174 0626 90000000 		.4byte	0x90
 3175 062a 00060000 		.4byte	.LLST30
 3176 062e 20       		.uleb128 0x20
 3177 062f 7900     		.ascii	"y\000"
 3178 0631 01       		.byte	0x1
 3179 0632 7B       		.byte	0x7b
 3180 0633 90000000 		.4byte	0x90
 3181 0637 1E060000 		.4byte	.LLST31
 3182 063b 20       		.uleb128 0x20
 3183 063c 7800     		.ascii	"x\000"
 3184 063e 01       		.byte	0x1
 3185 063f 7C       		.byte	0x7c
 3186 0640 90000000 		.4byte	0x90
 3187 0644 5F060000 		.4byte	.LLST32
 3188 0648 1F       		.uleb128 0x1f
 3189 0649 86000000 		.4byte	.LASF82
 3190 064d 01       		.byte	0x1
 3191 064e 86       		.byte	0x86
 3192 064f 90000000 		.4byte	0x90
 3193 0653 A0060000 		.4byte	.LLST33
 3194 0657 22       		.uleb128 0x22
 3195 0658 BA000000 		.4byte	.LBB40
 3196 065c E2020000 		.4byte	.LBE40-.LBB40
 3197 0660 9A080000 		.4byte	0x89a
ARM GAS  C:\Users\kuzni\AppData\Local\Temp\ccqUPoDe.s 			page 75


 3198 0664 23       		.uleb128 0x23
 3199 0665 20020000 		.4byte	.LASF61
 3200 0669 01       		.byte	0x1
 3201 066a 62       		.byte	0x62
 3202 066b 2F0C0000 		.4byte	0xc2f
 3203 066f 02       		.uleb128 0x2
 3204 0670 91       		.byte	0x91
 3205 0671 4C       		.sleb128 -52
 3206 0672 20       		.uleb128 0x20
 3207 0673 6300     		.ascii	"c\000"
 3208 0675 01       		.byte	0x1
 3209 0676 63       		.byte	0x63
 3210 0677 90000000 		.4byte	0x90
 3211 067b EC080000 		.4byte	.LLST34
 3212 067f 1F       		.uleb128 0x1f
 3213 0680 B3040000 		.4byte	.LASF51
 3214 0684 01       		.byte	0x1
 3215 0685 64       		.byte	0x64
 3216 0686 DB010000 		.4byte	0x1db
 3217 068a 3B090000 		.4byte	.LLST35
 3218 068e 1F       		.uleb128 0x1f
 3219 068f FC010000 		.4byte	.LASF52
 3220 0693 01       		.byte	0x1
 3221 0694 65       		.byte	0x65
 3222 0695 290C0000 		.4byte	0xc29
 3223 0699 64090000 		.4byte	.LLST36
 3224 069d 24       		.uleb128 0x24
 3225 069e 00000000 		.4byte	.Ldebug_ranges0+0
 3226 06a2 B5070000 		.4byte	0x7b5
 3227 06a6 20       		.uleb128 0x20
 3228 06a7 62617400 		.ascii	"bat\000"
 3229 06ab 01       		.byte	0x1
 3230 06ac 67       		.byte	0x67
 3231 06ad 90000000 		.4byte	0x90
 3232 06b1 84090000 		.4byte	.LLST37
 3233 06b5 25       		.uleb128 0x25
 3234 06b6 38020000 		.4byte	0x238
 3235 06ba E4000000 		.4byte	.LBB42
 3236 06be C8000000 		.4byte	.LBE42-.LBB42
 3237 06c2 01       		.byte	0x1
 3238 06c3 69       		.byte	0x69
 3239 06c4 2D070000 		.4byte	0x72d
 3240 06c8 26       		.uleb128 0x26
 3241 06c9 65020000 		.4byte	0x265
 3242 06cd A2090000 		.4byte	.LLST38
 3243 06d1 26       		.uleb128 0x26
 3244 06d2 5A020000 		.4byte	0x25a
 3245 06d6 C2090000 		.4byte	.LLST39
 3246 06da 26       		.uleb128 0x26
 3247 06db 4F020000 		.4byte	0x24f
 3248 06df E2090000 		.4byte	.LLST40
 3249 06e3 26       		.uleb128 0x26
 3250 06e4 44020000 		.4byte	0x244
 3251 06e8 F5090000 		.4byte	.LLST41
 3252 06ec 27       		.uleb128 0x27
 3253 06ed E4000000 		.4byte	.LBB43
 3254 06f1 C8000000 		.4byte	.LBE43-.LBB43
ARM GAS  C:\Users\kuzni\AppData\Local\Temp\ccqUPoDe.s 			page 76


 3255 06f5 28       		.uleb128 0x28
 3256 06f6 70020000 		.4byte	0x270
 3257 06fa 080A0000 		.4byte	.LLST42
 3258 06fe 28       		.uleb128 0x28
 3259 06ff 7B020000 		.4byte	0x27b
 3260 0703 480A0000 		.4byte	.LLST43
 3261 0707 28       		.uleb128 0x28
 3262 0708 86020000 		.4byte	0x286
 3263 070c E2090000 		.4byte	.LLST40
 3264 0710 28       		.uleb128 0x28
 3265 0711 91020000 		.4byte	0x291
 3266 0715 670A0000 		.4byte	.LLST45
 3267 0719 28       		.uleb128 0x28
 3268 071a 9C020000 		.4byte	0x29c
 3269 071e 7A0A0000 		.4byte	.LLST46
 3270 0722 28       		.uleb128 0x28
 3271 0723 A5020000 		.4byte	0x2a5
 3272 0727 4C0B0000 		.4byte	.LLST47
 3273 072b 00       		.byte	0
 3274 072c 00       		.byte	0
 3275 072d 29       		.uleb128 0x29
 3276 072e B7020000 		.4byte	0x2b7
 3277 0732 C8010000 		.4byte	.LBB44
 3278 0736 84000000 		.4byte	.LBE44-.LBB44
 3279 073a 01       		.byte	0x1
 3280 073b 6A       		.byte	0x6a
 3281 073c 26       		.uleb128 0x26
 3282 073d 0D030000 		.4byte	0x30d
 3283 0741 6C0B0000 		.4byte	.LLST48
 3284 0745 26       		.uleb128 0x26
 3285 0746 02030000 		.4byte	0x302
 3286 074a 810B0000 		.4byte	.LLST49
 3287 074e 26       		.uleb128 0x26
 3288 074f F7020000 		.4byte	0x2f7
 3289 0753 960B0000 		.4byte	.LLST50
 3290 0757 26       		.uleb128 0x26
 3291 0758 EC020000 		.4byte	0x2ec
 3292 075c B10B0000 		.4byte	.LLST51
 3293 0760 26       		.uleb128 0x26
 3294 0761 E1020000 		.4byte	0x2e1
 3295 0765 C60B0000 		.4byte	.LLST52
 3296 0769 26       		.uleb128 0x26
 3297 076a D7020000 		.4byte	0x2d7
 3298 076e E50B0000 		.4byte	.LLST53
 3299 0772 26       		.uleb128 0x26
 3300 0773 CC020000 		.4byte	0x2cc
 3301 0777 FF0B0000 		.4byte	.LLST54
 3302 077b 26       		.uleb128 0x26
 3303 077c C3020000 		.4byte	0x2c3
 3304 0780 2C0C0000 		.4byte	.LLST55
 3305 0784 27       		.uleb128 0x27
 3306 0785 C8010000 		.4byte	.LBB45
 3307 0789 84000000 		.4byte	.LBE45-.LBB45
 3308 078d 28       		.uleb128 0x28
 3309 078e 18030000 		.4byte	0x318
 3310 0792 400C0000 		.4byte	.LLST56
 3311 0796 27       		.uleb128 0x27
ARM GAS  C:\Users\kuzni\AppData\Local\Temp\ccqUPoDe.s 			page 77


 3312 0797 D0010000 		.4byte	.LBB46
 3313 079b 76000000 		.4byte	.LBE46-.LBB46
 3314 079f 28       		.uleb128 0x28
 3315 07a0 22030000 		.4byte	0x322
 3316 07a4 5F0C0000 		.4byte	.LLST57
 3317 07a8 28       		.uleb128 0x28
 3318 07a9 2D030000 		.4byte	0x32d
 3319 07ad 8D0C0000 		.4byte	.LLST58
 3320 07b1 00       		.byte	0
 3321 07b2 00       		.byte	0
 3322 07b3 00       		.byte	0
 3323 07b4 00       		.byte	0
 3324 07b5 25       		.uleb128 0x25
 3325 07b6 46030000 		.4byte	0x346
 3326 07ba 74020000 		.4byte	.LBB48
 3327 07be 82000000 		.4byte	.LBE48-.LBB48
 3328 07c2 01       		.byte	0x1
 3329 07c3 70       		.byte	0x70
 3330 07c4 12080000 		.4byte	0x812
 3331 07c8 26       		.uleb128 0x26
 3332 07c9 73030000 		.4byte	0x373
 3333 07cd C10C0000 		.4byte	.LLST59
 3334 07d1 26       		.uleb128 0x26
 3335 07d2 68030000 		.4byte	0x368
 3336 07d6 EE0C0000 		.4byte	.LLST60
 3337 07da 26       		.uleb128 0x26
 3338 07db 5D030000 		.4byte	0x35d
 3339 07df 0C0D0000 		.4byte	.LLST61
 3340 07e3 26       		.uleb128 0x26
 3341 07e4 52030000 		.4byte	0x352
 3342 07e8 1F0D0000 		.4byte	.LLST62
 3343 07ec 27       		.uleb128 0x27
 3344 07ed 74020000 		.4byte	.LBB49
 3345 07f1 82000000 		.4byte	.LBE49-.LBB49
 3346 07f5 28       		.uleb128 0x28
 3347 07f6 7E030000 		.4byte	0x37e
 3348 07fa 320D0000 		.4byte	.LLST63
 3349 07fe 28       		.uleb128 0x28
 3350 07ff 89030000 		.4byte	0x389
 3351 0803 510D0000 		.4byte	.LLST64
 3352 0807 28       		.uleb128 0x28
 3353 0808 92030000 		.4byte	0x392
 3354 080c 230E0000 		.4byte	.LLST65
 3355 0810 00       		.byte	0
 3356 0811 00       		.byte	0
 3357 0812 29       		.uleb128 0x29
 3358 0813 B7020000 		.4byte	0x2b7
 3359 0817 FA020000 		.4byte	.LBB50
 3360 081b 7E000000 		.4byte	.LBE50-.LBB50
 3361 081f 01       		.byte	0x1
 3362 0820 71       		.byte	0x71
 3363 0821 26       		.uleb128 0x26
 3364 0822 0D030000 		.4byte	0x30d
 3365 0826 560E0000 		.4byte	.LLST66
 3366 082a 26       		.uleb128 0x26
 3367 082b 02030000 		.4byte	0x302
 3368 082f 6B0E0000 		.4byte	.LLST67
ARM GAS  C:\Users\kuzni\AppData\Local\Temp\ccqUPoDe.s 			page 78


 3369 0833 26       		.uleb128 0x26
 3370 0834 F7020000 		.4byte	0x2f7
 3371 0838 800E0000 		.4byte	.LLST68
 3372 083c 26       		.uleb128 0x26
 3373 083d EC020000 		.4byte	0x2ec
 3374 0841 9B0E0000 		.4byte	.LLST69
 3375 0845 26       		.uleb128 0x26
 3376 0846 E1020000 		.4byte	0x2e1
 3377 084a B00E0000 		.4byte	.LLST70
 3378 084e 26       		.uleb128 0x26
 3379 084f D7020000 		.4byte	0x2d7
 3380 0853 C40E0000 		.4byte	.LLST71
 3381 0857 26       		.uleb128 0x26
 3382 0858 CC020000 		.4byte	0x2cc
 3383 085c DE0E0000 		.4byte	.LLST72
 3384 0860 26       		.uleb128 0x26
 3385 0861 C3020000 		.4byte	0x2c3
 3386 0865 0B0F0000 		.4byte	.LLST73
 3387 0869 27       		.uleb128 0x27
 3388 086a FA020000 		.4byte	.LBB51
 3389 086e 7E000000 		.4byte	.LBE51-.LBB51
 3390 0872 28       		.uleb128 0x28
 3391 0873 18030000 		.4byte	0x318
 3392 0877 1F0F0000 		.4byte	.LLST74
 3393 087b 27       		.uleb128 0x27
 3394 087c FE020000 		.4byte	.LBB52
 3395 0880 74000000 		.4byte	.LBE52-.LBB52
 3396 0884 28       		.uleb128 0x28
 3397 0885 22030000 		.4byte	0x322
 3398 0889 3E0F0000 		.4byte	.LLST75
 3399 088d 28       		.uleb128 0x28
 3400 088e 2D030000 		.4byte	0x32d
 3401 0892 6C0F0000 		.4byte	.LLST76
 3402 0896 00       		.byte	0
 3403 0897 00       		.byte	0
 3404 0898 00       		.byte	0
 3405 0899 00       		.byte	0
 3406 089a 27       		.uleb128 0x27
 3407 089b E8030000 		.4byte	.LBB53
 3408 089f 0A040000 		.4byte	.LBE53-.LBB53
 3409 08a3 1F       		.uleb128 0x1f
 3410 08a4 7F000000 		.4byte	.LASF83
 3411 08a8 01       		.byte	0x1
 3412 08a9 88       		.byte	0x88
 3413 08aa 90000000 		.4byte	0x90
 3414 08ae A00F0000 		.4byte	.LLST77
 3415 08b2 27       		.uleb128 0x27
 3416 08b3 FC030000 		.4byte	.LBB54
 3417 08b7 E4030000 		.4byte	.LBE54-.LBB54
 3418 08bb 1F       		.uleb128 0x1f
 3419 08bc 43000000 		.4byte	.LASF84
 3420 08c0 01       		.byte	0x1
 3421 08c1 8A       		.byte	0x8a
 3422 08c2 90000000 		.4byte	0x90
 3423 08c6 C00F0000 		.4byte	.LLST78
 3424 08ca 21       		.uleb128 0x21
 3425 08cb 73756D00 		.ascii	"sum\000"
ARM GAS  C:\Users\kuzni\AppData\Local\Temp\ccqUPoDe.s 			page 79


 3426 08cf 01       		.byte	0x1
 3427 08d0 8B       		.byte	0x8b
 3428 08d1 11010000 		.4byte	0x111
 3429 08d5 02       		.uleb128 0x2
 3430 08d6 91       		.byte	0x91
 3431 08d7 4C       		.sleb128 -52
 3432 08d8 1F       		.uleb128 0x1f
 3433 08d9 B3040000 		.4byte	.LASF51
 3434 08dd 01       		.byte	0x1
 3435 08de BA       		.byte	0xba
 3436 08df DB010000 		.4byte	0x1db
 3437 08e3 0A100000 		.4byte	.LLST79
 3438 08e7 22       		.uleb128 0x22
 3439 08e8 2E040000 		.4byte	.LBB55
 3440 08ec 5A000000 		.4byte	.LBE55-.LBB55
 3441 08f0 43090000 		.4byte	0x943
 3442 08f4 1F       		.uleb128 0x1f
 3443 08f5 A2040000 		.4byte	.LASF85
 3444 08f9 01       		.byte	0x1
 3445 08fa 8F       		.byte	0x8f
 3446 08fb DB010000 		.4byte	0x1db
 3447 08ff 6E100000 		.4byte	.LLST80
 3448 0903 1F       		.uleb128 0x1f
 3449 0904 B3040000 		.4byte	.LASF51
 3450 0908 01       		.byte	0x1
 3451 0909 90       		.byte	0x90
 3452 090a DB010000 		.4byte	0x1db
 3453 090e 81100000 		.4byte	.LLST81
 3454 0912 1F       		.uleb128 0x1f
 3455 0913 58000000 		.4byte	.LASF86
 3456 0917 01       		.byte	0x1
 3457 0918 91       		.byte	0x91
 3458 0919 BF000000 		.4byte	0xbf
 3459 091d B5100000 		.4byte	.LLST82
 3460 0921 20       		.uleb128 0x20
 3461 0922 636300   		.ascii	"cc\000"
 3462 0925 01       		.byte	0x1
 3463 0926 92       		.byte	0x92
 3464 0927 90000000 		.4byte	0x90
 3465 092b D4100000 		.4byte	.LLST83
 3466 092f 2A       		.uleb128 0x2a
 3467 0930 18000000 		.4byte	.Ldebug_ranges0+0x18
 3468 0934 20       		.uleb128 0x20
 3469 0935 6B00     		.ascii	"k\000"
 3470 0937 01       		.byte	0x1
 3471 0938 94       		.byte	0x94
 3472 0939 90000000 		.4byte	0x90
 3473 093d F3100000 		.4byte	.LLST84
 3474 0941 00       		.byte	0
 3475 0942 00       		.byte	0
 3476 0943 22       		.uleb128 0x22
 3477 0944 88040000 		.4byte	.LBB58
 3478 0948 C0000000 		.4byte	.LBE58-.LBB58
 3479 094c 300A0000 		.4byte	0xa30
 3480 0950 1F       		.uleb128 0x1f
 3481 0951 52030000 		.4byte	.LASF87
 3482 0955 01       		.byte	0x1
ARM GAS  C:\Users\kuzni\AppData\Local\Temp\ccqUPoDe.s 			page 80


 3483 0956 9C       		.byte	0x9c
 3484 0957 90000000 		.4byte	0x90
 3485 095b 11110000 		.4byte	.LLST85
 3486 095f 1F       		.uleb128 0x1f
 3487 0960 14030000 		.4byte	.LASF88
 3488 0964 01       		.byte	0x1
 3489 0965 9D       		.byte	0x9d
 3490 0966 90000000 		.4byte	0x90
 3491 096a 26110000 		.4byte	.LLST86
 3492 096e 1F       		.uleb128 0x1f
 3493 096f 57030000 		.4byte	.LASF89
 3494 0973 01       		.byte	0x1
 3495 0974 9E       		.byte	0x9e
 3496 0975 90000000 		.4byte	0x90
 3497 0979 39110000 		.4byte	.LLST87
 3498 097d 1F       		.uleb128 0x1f
 3499 097e A0010000 		.4byte	.LASF90
 3500 0982 01       		.byte	0x1
 3501 0983 9F       		.byte	0x9f
 3502 0984 90000000 		.4byte	0x90
 3503 0988 57110000 		.4byte	.LLST88
 3504 098c 1F       		.uleb128 0x1f
 3505 098d 58000000 		.4byte	.LASF86
 3506 0991 01       		.byte	0x1
 3507 0992 A0       		.byte	0xa0
 3508 0993 BF000000 		.4byte	0xbf
 3509 0997 6A110000 		.4byte	.LLST89
 3510 099b 1F       		.uleb128 0x1f
 3511 099c 9B040000 		.4byte	.LASF91
 3512 09a0 01       		.byte	0x1
 3513 09a1 A1       		.byte	0xa1
 3514 09a2 BF000000 		.4byte	0xbf
 3515 09a6 89110000 		.4byte	.LLST90
 3516 09aa 1F       		.uleb128 0x1f
 3517 09ab A2040000 		.4byte	.LASF85
 3518 09af 01       		.byte	0x1
 3519 09b0 A2       		.byte	0xa2
 3520 09b1 DB010000 		.4byte	0x1db
 3521 09b5 C1110000 		.4byte	.LLST91
 3522 09b9 1F       		.uleb128 0x1f
 3523 09ba B3040000 		.4byte	.LASF51
 3524 09be 01       		.byte	0x1
 3525 09bf A3       		.byte	0xa3
 3526 09c0 DB010000 		.4byte	0x1db
 3527 09c4 D4110000 		.4byte	.LLST92
 3528 09c8 20       		.uleb128 0x20
 3529 09c9 636300   		.ascii	"cc\000"
 3530 09cc 01       		.byte	0x1
 3531 09cd AB       		.byte	0xab
 3532 09ce 90000000 		.4byte	0x90
 3533 09d2 08120000 		.4byte	.LLST93
 3534 09d6 24       		.uleb128 0x24
 3535 09d7 30000000 		.4byte	.Ldebug_ranges0+0x30
 3536 09db 150A0000 		.4byte	0xa15
 3537 09df 20       		.uleb128 0x20
 3538 09e0 5F6B7900 		.ascii	"_ky\000"
 3539 09e4 01       		.byte	0x1
ARM GAS  C:\Users\kuzni\AppData\Local\Temp\ccqUPoDe.s 			page 81


 3540 09e5 AD       		.byte	0xad
 3541 09e6 90000000 		.4byte	0x90
 3542 09ea 27120000 		.4byte	.LLST94
 3543 09ee 20       		.uleb128 0x20
 3544 09ef 5F6B7800 		.ascii	"_kx\000"
 3545 09f3 01       		.byte	0x1
 3546 09f4 AE       		.byte	0xae
 3547 09f5 90000000 		.4byte	0x90
 3548 09f9 45120000 		.4byte	.LLST95
 3549 09fd 27       		.uleb128 0x27
 3550 09fe F2040000 		.4byte	.LBB60
 3551 0a02 1A000000 		.4byte	.LBE60-.LBB60
 3552 0a06 20       		.uleb128 0x20
 3553 0a07 6B00     		.ascii	"k\000"
 3554 0a09 01       		.byte	0x1
 3555 0a0a B1       		.byte	0xb1
 3556 0a0b 90000000 		.4byte	0x90
 3557 0a0f 63120000 		.4byte	.LLST96
 3558 0a13 00       		.byte	0
 3559 0a14 00       		.byte	0
 3560 0a15 2B       		.uleb128 0x2b
 3561 0a16 E8040000 		.4byte	.LVL202
 3562 0a1a E9110000 		.4byte	0x11e9
 3563 0a1e 2C       		.uleb128 0x2c
 3564 0a1f 01       		.uleb128 0x1
 3565 0a20 51       		.byte	0x51
 3566 0a21 03       		.uleb128 0x3
 3567 0a22 91       		.byte	0x91
 3568 0a23 38       		.sleb128 56
 3569 0a24 06       		.byte	0x6
 3570 0a25 2C       		.uleb128 0x2c
 3571 0a26 01       		.uleb128 0x1
 3572 0a27 50       		.byte	0x50
 3573 0a28 05       		.uleb128 0x5
 3574 0a29 03       		.byte	0x3
 3575 0a2a 00000000 		.4byte	.LANCHOR0
 3576 0a2e 00       		.byte	0
 3577 0a2f 00       		.byte	0
 3578 0a30 24       		.uleb128 0x24
 3579 0a31 48000000 		.4byte	.Ldebug_ranges0+0x48
 3580 0a35 160B0000 		.4byte	0xb16
 3581 0a39 20       		.uleb128 0x20
 3582 0a3a 6300     		.ascii	"c\000"
 3583 0a3c 01       		.byte	0x1
 3584 0a3d BC       		.byte	0xbc
 3585 0a3e 90000000 		.4byte	0x90
 3586 0a42 9E120000 		.4byte	.LLST97
 3587 0a46 27       		.uleb128 0x27
 3588 0a47 6A050000 		.4byte	.LBB63
 3589 0a4b 10010000 		.4byte	.LBE63-.LBB63
 3590 0a4f 1F       		.uleb128 0x1f
 3591 0a50 FC010000 		.4byte	.LASF52
 3592 0a54 01       		.byte	0x1
 3593 0a55 BE       		.byte	0xbe
 3594 0a56 290C0000 		.4byte	0xc29
 3595 0a5a BC120000 		.4byte	.LLST98
 3596 0a5e 25       		.uleb128 0x25
ARM GAS  C:\Users\kuzni\AppData\Local\Temp\ccqUPoDe.s 			page 82


 3597 0a5f 9E030000 		.4byte	0x39e
 3598 0a63 7A050000 		.4byte	.LBB64
 3599 0a67 6C000000 		.4byte	.LBE64-.LBB64
 3600 0a6b 01       		.byte	0x1
 3601 0a6c BF       		.byte	0xbf
 3602 0a6d 8D0A0000 		.4byte	0xa8d
 3603 0a71 26       		.uleb128 0x26
 3604 0a72 C0030000 		.4byte	0x3c0
 3605 0a76 03130000 		.4byte	.LLST99
 3606 0a7a 26       		.uleb128 0x26
 3607 0a7b B5030000 		.4byte	0x3b5
 3608 0a7f BC120000 		.4byte	.LLST98
 3609 0a83 26       		.uleb128 0x26
 3610 0a84 AA030000 		.4byte	0x3aa
 3611 0a88 30130000 		.4byte	.LLST101
 3612 0a8c 00       		.byte	0
 3613 0a8d 29       		.uleb128 0x29
 3614 0a8e B7020000 		.4byte	0x2b7
 3615 0a92 EA050000 		.4byte	.LBB66
 3616 0a96 88000000 		.4byte	.LBE66-.LBB66
 3617 0a9a 01       		.byte	0x1
 3618 0a9b C0       		.byte	0xc0
 3619 0a9c 26       		.uleb128 0x26
 3620 0a9d 0D030000 		.4byte	0x30d
 3621 0aa1 43130000 		.4byte	.LLST102
 3622 0aa5 26       		.uleb128 0x26
 3623 0aa6 02030000 		.4byte	0x302
 3624 0aaa 58130000 		.4byte	.LLST103
 3625 0aae 26       		.uleb128 0x26
 3626 0aaf F7020000 		.4byte	0x2f7
 3627 0ab3 6D130000 		.4byte	.LLST104
 3628 0ab7 26       		.uleb128 0x26
 3629 0ab8 EC020000 		.4byte	0x2ec
 3630 0abc 88130000 		.4byte	.LLST105
 3631 0ac0 26       		.uleb128 0x26
 3632 0ac1 E1020000 		.4byte	0x2e1
 3633 0ac5 9D130000 		.4byte	.LLST106
 3634 0ac9 26       		.uleb128 0x26
 3635 0aca D7020000 		.4byte	0x2d7
 3636 0ace B1130000 		.4byte	.LLST107
 3637 0ad2 26       		.uleb128 0x26
 3638 0ad3 CC020000 		.4byte	0x2cc
 3639 0ad7 CB130000 		.4byte	.LLST108
 3640 0adb 26       		.uleb128 0x26
 3641 0adc C3020000 		.4byte	0x2c3
 3642 0ae0 F8130000 		.4byte	.LLST109
 3643 0ae4 27       		.uleb128 0x27
 3644 0ae5 EA050000 		.4byte	.LBB67
 3645 0ae9 88000000 		.4byte	.LBE67-.LBB67
 3646 0aed 28       		.uleb128 0x28
 3647 0aee 18030000 		.4byte	0x318
 3648 0af2 0C140000 		.4byte	.LLST110
 3649 0af6 27       		.uleb128 0x27
 3650 0af7 EE050000 		.4byte	.LBB68
 3651 0afb 7E000000 		.4byte	.LBE68-.LBB68
 3652 0aff 28       		.uleb128 0x28
 3653 0b00 22030000 		.4byte	0x322
ARM GAS  C:\Users\kuzni\AppData\Local\Temp\ccqUPoDe.s 			page 83


 3654 0b04 2B140000 		.4byte	.LLST111
 3655 0b08 28       		.uleb128 0x28
 3656 0b09 2D030000 		.4byte	0x32d
 3657 0b0d 59140000 		.4byte	.LLST112
 3658 0b11 00       		.byte	0
 3659 0b12 00       		.byte	0
 3660 0b13 00       		.byte	0
 3661 0b14 00       		.byte	0
 3662 0b15 00       		.byte	0
 3663 0b16 2A       		.uleb128 0x2a
 3664 0b17 60000000 		.4byte	.Ldebug_ranges0+0x60
 3665 0b1b 20       		.uleb128 0x20
 3666 0b1c 6300     		.ascii	"c\000"
 3667 0b1e 01       		.byte	0x1
 3668 0b1f C4       		.byte	0xc4
 3669 0b20 90000000 		.4byte	0x90
 3670 0b24 8D140000 		.4byte	.LLST113
 3671 0b28 27       		.uleb128 0x27
 3672 0b29 94060000 		.4byte	.LBB71
 3673 0b2d 2E010000 		.4byte	.LBE71-.LBB71
 3674 0b31 1F       		.uleb128 0x1f
 3675 0b32 FC010000 		.4byte	.LASF52
 3676 0b36 01       		.byte	0x1
 3677 0b37 C6       		.byte	0xc6
 3678 0b38 290C0000 		.4byte	0xc29
 3679 0b3c AB140000 		.4byte	.LLST114
 3680 0b40 25       		.uleb128 0x25
 3681 0b41 46030000 		.4byte	0x346
 3682 0b45 A4060000 		.4byte	.LBB72
 3683 0b49 96000000 		.4byte	.LBE72-.LBB72
 3684 0b4d 01       		.byte	0x1
 3685 0b4e C7       		.byte	0xc7
 3686 0b4f 9D0B0000 		.4byte	0xb9d
 3687 0b53 26       		.uleb128 0x26
 3688 0b54 73030000 		.4byte	0x373
 3689 0b58 F2140000 		.4byte	.LLST115
 3690 0b5c 26       		.uleb128 0x26
 3691 0b5d 68030000 		.4byte	0x368
 3692 0b61 1F150000 		.4byte	.LLST116
 3693 0b65 26       		.uleb128 0x26
 3694 0b66 5D030000 		.4byte	0x35d
 3695 0b6a 4A150000 		.4byte	.LLST117
 3696 0b6e 26       		.uleb128 0x26
 3697 0b6f 52030000 		.4byte	0x352
 3698 0b73 91150000 		.4byte	.LLST118
 3699 0b77 27       		.uleb128 0x27
 3700 0b78 A4060000 		.4byte	.LBB73
 3701 0b7c 96000000 		.4byte	.LBE73-.LBB73
 3702 0b80 28       		.uleb128 0x28
 3703 0b81 7E030000 		.4byte	0x37e
 3704 0b85 A4150000 		.4byte	.LLST119
 3705 0b89 28       		.uleb128 0x28
 3706 0b8a 89030000 		.4byte	0x389
 3707 0b8e C3150000 		.4byte	.LLST120
 3708 0b92 28       		.uleb128 0x28
 3709 0b93 92030000 		.4byte	0x392
 3710 0b97 95160000 		.4byte	.LLST121
ARM GAS  C:\Users\kuzni\AppData\Local\Temp\ccqUPoDe.s 			page 84


 3711 0b9b 00       		.byte	0
 3712 0b9c 00       		.byte	0
 3713 0b9d 29       		.uleb128 0x29
 3714 0b9e B7020000 		.4byte	0x2b7
 3715 0ba2 3E070000 		.4byte	.LBB74
 3716 0ba6 7C000000 		.4byte	.LBE74-.LBB74
 3717 0baa 01       		.byte	0x1
 3718 0bab C8       		.byte	0xc8
 3719 0bac 26       		.uleb128 0x26
 3720 0bad 0D030000 		.4byte	0x30d
 3721 0bb1 BA160000 		.4byte	.LLST122
 3722 0bb5 26       		.uleb128 0x26
 3723 0bb6 02030000 		.4byte	0x302
 3724 0bba CF160000 		.4byte	.LLST123
 3725 0bbe 26       		.uleb128 0x26
 3726 0bbf F7020000 		.4byte	0x2f7
 3727 0bc3 E4160000 		.4byte	.LLST124
 3728 0bc7 26       		.uleb128 0x26
 3729 0bc8 EC020000 		.4byte	0x2ec
 3730 0bcc FF160000 		.4byte	.LLST125
 3731 0bd0 26       		.uleb128 0x26
 3732 0bd1 E1020000 		.4byte	0x2e1
 3733 0bd5 1F170000 		.4byte	.LLST126
 3734 0bd9 26       		.uleb128 0x26
 3735 0bda D7020000 		.4byte	0x2d7
 3736 0bde 33170000 		.4byte	.LLST127
 3737 0be2 26       		.uleb128 0x26
 3738 0be3 CC020000 		.4byte	0x2cc
 3739 0be7 4D170000 		.4byte	.LLST128
 3740 0beb 26       		.uleb128 0x26
 3741 0bec C3020000 		.4byte	0x2c3
 3742 0bf0 7A170000 		.4byte	.LLST129
 3743 0bf4 27       		.uleb128 0x27
 3744 0bf5 3E070000 		.4byte	.LBB75
 3745 0bf9 7C000000 		.4byte	.LBE75-.LBB75
 3746 0bfd 28       		.uleb128 0x28
 3747 0bfe 18030000 		.4byte	0x318
 3748 0c02 8E170000 		.4byte	.LLST130
 3749 0c06 27       		.uleb128 0x27
 3750 0c07 42070000 		.4byte	.LBB76
 3751 0c0b 72000000 		.4byte	.LBE76-.LBB76
 3752 0c0f 28       		.uleb128 0x28
 3753 0c10 22030000 		.4byte	0x322
 3754 0c14 AD170000 		.4byte	.LLST131
 3755 0c18 28       		.uleb128 0x28
 3756 0c19 2D030000 		.4byte	0x32d
 3757 0c1d DB170000 		.4byte	.LLST132
 3758 0c21 00       		.byte	0
 3759 0c22 00       		.byte	0
 3760 0c23 00       		.byte	0
 3761 0c24 00       		.byte	0
 3762 0c25 00       		.byte	0
 3763 0c26 00       		.byte	0
 3764 0c27 00       		.byte	0
 3765 0c28 00       		.byte	0
 3766 0c29 06       		.uleb128 0x6
 3767 0c2a 04       		.byte	0x4
ARM GAS  C:\Users\kuzni\AppData\Local\Temp\ccqUPoDe.s 			page 85


 3768 0c2b FB000000 		.4byte	0xfb
 3769 0c2f 2D       		.uleb128 0x2d
 3770 0c30 11010000 		.4byte	0x111
 3771 0c34 3F0C0000 		.4byte	0xc3f
 3772 0c38 2E       		.uleb128 0x2e
 3773 0c39 D7000000 		.4byte	0xd7
 3774 0c3d 01       		.byte	0x1
 3775 0c3e 00       		.byte	0
 3776 0c3f 1C       		.uleb128 0x1c
 3777 0c40 07030000 		.4byte	.LASF93
 3778 0c44 01       		.byte	0x1
 3779 0c45 D4       		.byte	0xd4
 3780 0c46 7E010000 		.4byte	0x17e
 3781 0c4a 00000000 		.4byte	.LFB7
 3782 0c4e 86000000 		.4byte	.LFE7-.LFB7
 3783 0c52 01       		.uleb128 0x1
 3784 0c53 9C       		.byte	0x9c
 3785 0c54 370D0000 		.4byte	0xd37
 3786 0c58 1D       		.uleb128 0x1d
 3787 0c59 696E00   		.ascii	"in\000"
 3788 0c5c 01       		.byte	0x1
 3789 0c5d D4       		.byte	0xd4
 3790 0c5e 2B020000 		.4byte	0x22b
 3791 0c62 0F180000 		.4byte	.LLST133
 3792 0c66 1D       		.uleb128 0x1d
 3793 0c67 6F757400 		.ascii	"out\000"
 3794 0c6b 01       		.byte	0x1
 3795 0c6c D4       		.byte	0xd4
 3796 0c6d 2B020000 		.4byte	0x22b
 3797 0c71 2D180000 		.4byte	.LLST134
 3798 0c75 1E       		.uleb128 0x1e
 3799 0c76 53000000 		.4byte	.LASF75
 3800 0c7a 01       		.byte	0x1
 3801 0c7b D4       		.byte	0xd4
 3802 0c7c 27010000 		.4byte	0x127
 3803 0c80 4B180000 		.4byte	.LLST135
 3804 0c84 1E       		.uleb128 0x1e
 3805 0c85 9C030000 		.4byte	.LASF76
 3806 0c89 01       		.byte	0x1
 3807 0c8a D4       		.byte	0xd4
 3808 0c8b 1C010000 		.4byte	0x11c
 3809 0c8f 69180000 		.4byte	.LLST136
 3810 0c93 2F       		.uleb128 0x2f
 3811 0c94 34020000 		.4byte	.LASF77
 3812 0c98 01       		.byte	0x1
 3813 0c99 D4       		.byte	0xd4
 3814 0c9a 27010000 		.4byte	0x127
 3815 0c9e 02       		.uleb128 0x2
 3816 0c9f 91       		.byte	0x91
 3817 0ca0 00       		.sleb128 0
 3818 0ca1 2F       		.uleb128 0x2f
 3819 0ca2 D8020000 		.4byte	.LASF65
 3820 0ca6 01       		.byte	0x1
 3821 0ca7 D4       		.byte	0xd4
 3822 0ca8 1C010000 		.4byte	0x11c
 3823 0cac 02       		.uleb128 0x2
 3824 0cad 91       		.byte	0x91
ARM GAS  C:\Users\kuzni\AppData\Local\Temp\ccqUPoDe.s 			page 86


 3825 0cae 04       		.sleb128 4
 3826 0caf 0C       		.uleb128 0xc
 3827 0cb0 0C       		.byte	0xc
 3828 0cb1 01       		.byte	0x1
 3829 0cb2 D5       		.byte	0xd5
 3830 0cb3 DC0C0000 		.4byte	0xcdc
 3831 0cb7 0D       		.uleb128 0xd
 3832 0cb8 A9020000 		.4byte	.LASF94
 3833 0cbc 01       		.byte	0x1
 3834 0cbd D5       		.byte	0xd5
 3835 0cbe BF000000 		.4byte	0xbf
 3836 0cc2 00       		.byte	0
 3837 0cc3 0D       		.uleb128 0xd
 3838 0cc4 A5010000 		.4byte	.LASF95
 3839 0cc8 01       		.byte	0x1
 3840 0cc9 D5       		.byte	0xd5
 3841 0cca BF000000 		.4byte	0xbf
 3842 0cce 04       		.byte	0x4
 3843 0ccf 0D       		.uleb128 0xd
 3844 0cd0 23010000 		.4byte	.LASF96
 3845 0cd4 01       		.byte	0x1
 3846 0cd5 D5       		.byte	0xd5
 3847 0cd6 32010000 		.4byte	0x132
 3848 0cda 08       		.byte	0x8
 3849 0cdb 00       		.byte	0
 3850 0cdc 12       		.uleb128 0x12
 3851 0cdd 99000000 		.4byte	.LASF97
 3852 0ce1 01       		.byte	0x1
 3853 0ce2 D5       		.byte	0xd5
 3854 0ce3 AF0C0000 		.4byte	0xcaf
 3855 0ce7 1F       		.uleb128 0x1f
 3856 0ce8 EB010000 		.4byte	.LASF46
 3857 0cec 01       		.byte	0x1
 3858 0ced D6       		.byte	0xd6
 3859 0cee DB010000 		.4byte	0x1db
 3860 0cf2 87180000 		.4byte	.LLST137
 3861 0cf6 20       		.uleb128 0x20
 3862 0cf7 6300     		.ascii	"c\000"
 3863 0cf9 01       		.byte	0x1
 3864 0cfa D7       		.byte	0xd7
 3865 0cfb 90000000 		.4byte	0x90
 3866 0cff 9A180000 		.4byte	.LLST138
 3867 0d03 27       		.uleb128 0x27
 3868 0d04 10000000 		.4byte	.LBB78
 3869 0d08 66000000 		.4byte	.LBE78-.LBB78
 3870 0d0c 20       		.uleb128 0x20
 3871 0d0d 73756D00 		.ascii	"sum\000"
 3872 0d11 01       		.byte	0x1
 3873 0d12 D9       		.byte	0xd9
 3874 0d13 11010000 		.4byte	0x111
 3875 0d17 B9180000 		.4byte	.LLST139
 3876 0d1b 20       		.uleb128 0x20
 3877 0d1c 7900     		.ascii	"y\000"
 3878 0d1e 01       		.byte	0x1
 3879 0d1f DB       		.byte	0xdb
 3880 0d20 90000000 		.4byte	0x90
 3881 0d24 D8180000 		.4byte	.LLST140
ARM GAS  C:\Users\kuzni\AppData\Local\Temp\ccqUPoDe.s 			page 87


 3882 0d28 20       		.uleb128 0x20
 3883 0d29 7800     		.ascii	"x\000"
 3884 0d2b 01       		.byte	0x1
 3885 0d2c DC       		.byte	0xdc
 3886 0d2d 90000000 		.4byte	0x90
 3887 0d31 F7180000 		.4byte	.LLST141
 3888 0d35 00       		.byte	0
 3889 0d36 00       		.byte	0
 3890 0d37 1C       		.uleb128 0x1c
 3891 0d38 8B020000 		.4byte	.LASF98
 3892 0d3c 01       		.byte	0x1
 3893 0d3d EE       		.byte	0xee
 3894 0d3e 7E010000 		.4byte	0x17e
 3895 0d42 00000000 		.4byte	.LFB8
 3896 0d46 F4000000 		.4byte	.LFE8-.LFB8
 3897 0d4a 01       		.uleb128 0x1
 3898 0d4b 9C       		.byte	0x9c
 3899 0d4c 910E0000 		.4byte	0xe91
 3900 0d50 1D       		.uleb128 0x1d
 3901 0d51 696E00   		.ascii	"in\000"
 3902 0d54 01       		.byte	0x1
 3903 0d55 EE       		.byte	0xee
 3904 0d56 2B020000 		.4byte	0x22b
 3905 0d5a 21190000 		.4byte	.LLST142
 3906 0d5e 1D       		.uleb128 0x1d
 3907 0d5f 6F757400 		.ascii	"out\000"
 3908 0d63 01       		.byte	0x1
 3909 0d64 EE       		.byte	0xee
 3910 0d65 2B020000 		.4byte	0x22b
 3911 0d69 3F190000 		.4byte	.LLST143
 3912 0d6d 1D       		.uleb128 0x1d
 3913 0d6e 7700     		.ascii	"w\000"
 3914 0d70 01       		.byte	0x1
 3915 0d71 EE       		.byte	0xee
 3916 0d72 290C0000 		.4byte	0xc29
 3917 0d76 5D190000 		.4byte	.LLST144
 3918 0d7a 1D       		.uleb128 0x1d
 3919 0d7b 6200     		.ascii	"b\000"
 3920 0d7d 01       		.byte	0x1
 3921 0d7e EE       		.byte	0xee
 3922 0d7f 3A030000 		.4byte	0x33a
 3923 0d83 7B190000 		.4byte	.LLST145
 3924 0d87 30       		.uleb128 0x30
 3925 0d88 777300   		.ascii	"ws\000"
 3926 0d8b 01       		.byte	0x1
 3927 0d8c EF       		.byte	0xef
 3928 0d8d 40030000 		.4byte	0x340
 3929 0d91 02       		.uleb128 0x2
 3930 0d92 91       		.byte	0x91
 3931 0d93 00       		.sleb128 0
 3932 0d94 2F       		.uleb128 0x2f
 3933 0d95 53000000 		.4byte	.LASF75
 3934 0d99 01       		.byte	0x1
 3935 0d9a EF       		.byte	0xef
 3936 0d9b 27010000 		.4byte	0x127
 3937 0d9f 02       		.uleb128 0x2
 3938 0da0 91       		.byte	0x91
ARM GAS  C:\Users\kuzni\AppData\Local\Temp\ccqUPoDe.s 			page 88


 3939 0da1 04       		.sleb128 4
 3940 0da2 2F       		.uleb128 0x2f
 3941 0da3 9C030000 		.4byte	.LASF76
 3942 0da7 01       		.byte	0x1
 3943 0da8 EF       		.byte	0xef
 3944 0da9 1C010000 		.4byte	0x11c
 3945 0dad 02       		.uleb128 0x2
 3946 0dae 91       		.byte	0x91
 3947 0daf 08       		.sleb128 8
 3948 0db0 2F       		.uleb128 0x2f
 3949 0db1 34020000 		.4byte	.LASF77
 3950 0db5 01       		.byte	0x1
 3951 0db6 EF       		.byte	0xef
 3952 0db7 27010000 		.4byte	0x127
 3953 0dbb 02       		.uleb128 0x2
 3954 0dbc 91       		.byte	0x91
 3955 0dbd 0C       		.sleb128 12
 3956 0dbe 2F       		.uleb128 0x2f
 3957 0dbf D8020000 		.4byte	.LASF65
 3958 0dc3 01       		.byte	0x1
 3959 0dc4 EF       		.byte	0xef
 3960 0dc5 1C010000 		.4byte	0x11c
 3961 0dc9 02       		.uleb128 0x2
 3962 0dca 91       		.byte	0x91
 3963 0dcb 10       		.sleb128 16
 3964 0dcc 0C       		.uleb128 0xc
 3965 0dcd 0C       		.byte	0xc
 3966 0dce 01       		.byte	0x1
 3967 0dcf F0       		.byte	0xf0
 3968 0dd0 F90D0000 		.4byte	0xdf9
 3969 0dd4 0D       		.uleb128 0xd
 3970 0dd5 A9020000 		.4byte	.LASF94
 3971 0dd9 01       		.byte	0x1
 3972 0dda F0       		.byte	0xf0
 3973 0ddb BF000000 		.4byte	0xbf
 3974 0ddf 00       		.byte	0
 3975 0de0 0D       		.uleb128 0xd
 3976 0de1 A5010000 		.4byte	.LASF95
 3977 0de5 01       		.byte	0x1
 3978 0de6 F0       		.byte	0xf0
 3979 0de7 BF000000 		.4byte	0xbf
 3980 0deb 04       		.byte	0x4
 3981 0dec 0D       		.uleb128 0xd
 3982 0ded 23010000 		.4byte	.LASF96
 3983 0df1 01       		.byte	0x1
 3984 0df2 F0       		.byte	0xf0
 3985 0df3 32010000 		.4byte	0x132
 3986 0df7 08       		.byte	0x8
 3987 0df8 00       		.byte	0
 3988 0df9 12       		.uleb128 0x12
 3989 0dfa 99000000 		.4byte	.LASF97
 3990 0dfe 01       		.byte	0x1
 3991 0dff F0       		.byte	0xf0
 3992 0e00 CC0D0000 		.4byte	0xdcc
 3993 0e04 23       		.uleb128 0x23
 3994 0e05 EB010000 		.4byte	.LASF46
 3995 0e09 01       		.byte	0x1
ARM GAS  C:\Users\kuzni\AppData\Local\Temp\ccqUPoDe.s 			page 89


 3996 0e0a F1       		.byte	0xf1
 3997 0e0b DB010000 		.4byte	0x1db
 3998 0e0f 01       		.uleb128 0x1
 3999 0e10 54       		.byte	0x54
 4000 0e11 20       		.uleb128 0x20
 4001 0e12 6300     		.ascii	"c\000"
 4002 0e14 01       		.byte	0x1
 4003 0e15 F2       		.byte	0xf2
 4004 0e16 90000000 		.4byte	0x90
 4005 0e1a 99190000 		.4byte	.LLST146
 4006 0e1e 27       		.uleb128 0x27
 4007 0e1f 12000000 		.4byte	.LBB79
 4008 0e23 D4000000 		.4byte	.LBE79-.LBB79
 4009 0e27 20       		.uleb128 0x20
 4010 0e28 73756D00 		.ascii	"sum\000"
 4011 0e2c 01       		.byte	0x1
 4012 0e2d F4       		.byte	0xf4
 4013 0e2e 11010000 		.4byte	0x111
 4014 0e32 B8190000 		.4byte	.LLST147
 4015 0e36 29       		.uleb128 0x29
 4016 0e37 46030000 		.4byte	0x346
 4017 0e3b 1C000000 		.4byte	.LBB80
 4018 0e3f 90000000 		.4byte	.LBE80-.LBB80
 4019 0e43 01       		.byte	0x1
 4020 0e44 F5       		.byte	0xf5
 4021 0e45 26       		.uleb128 0x26
 4022 0e46 73030000 		.4byte	0x373
 4023 0e4a E7190000 		.4byte	.LLST148
 4024 0e4e 26       		.uleb128 0x26
 4025 0e4f 68030000 		.4byte	0x368
 4026 0e53 FF190000 		.4byte	.LLST149
 4027 0e57 26       		.uleb128 0x26
 4028 0e58 5D030000 		.4byte	0x35d
 4029 0e5c 1D1A0000 		.4byte	.LLST150
 4030 0e60 26       		.uleb128 0x26
 4031 0e61 52030000 		.4byte	0x352
 4032 0e65 431A0000 		.4byte	.LLST151
 4033 0e69 27       		.uleb128 0x27
 4034 0e6a 1C000000 		.4byte	.LBB81
 4035 0e6e 90000000 		.4byte	.LBE81-.LBB81
 4036 0e72 28       		.uleb128 0x28
 4037 0e73 7E030000 		.4byte	0x37e
 4038 0e77 561A0000 		.4byte	.LLST152
 4039 0e7b 28       		.uleb128 0x28
 4040 0e7c 89030000 		.4byte	0x389
 4041 0e80 961A0000 		.4byte	.LLST153
 4042 0e84 28       		.uleb128 0x28
 4043 0e85 92030000 		.4byte	0x392
 4044 0e89 681B0000 		.4byte	.LLST154
 4045 0e8d 00       		.byte	0
 4046 0e8e 00       		.byte	0
 4047 0e8f 00       		.byte	0
 4048 0e90 00       		.byte	0
 4049 0e91 31       		.uleb128 0x31
 4050 0e92 78020000 		.4byte	.LASF99
 4051 0e96 01       		.byte	0x1
 4052 0e97 0101     		.2byte	0x101
ARM GAS  C:\Users\kuzni\AppData\Local\Temp\ccqUPoDe.s 			page 90


 4053 0e99 7E010000 		.4byte	0x17e
 4054 0e9d 00000000 		.4byte	.LFB9
 4055 0ea1 38010000 		.4byte	.LFE9-.LFB9
 4056 0ea5 01       		.uleb128 0x1
 4057 0ea6 9C       		.byte	0x9c
 4058 0ea7 EC0F0000 		.4byte	0xfec
 4059 0eab 32       		.uleb128 0x32
 4060 0eac 696E00   		.ascii	"in\000"
 4061 0eaf 01       		.byte	0x1
 4062 0eb0 0101     		.2byte	0x101
 4063 0eb2 2B020000 		.4byte	0x22b
 4064 0eb6 8B1B0000 		.4byte	.LLST155
 4065 0eba 32       		.uleb128 0x32
 4066 0ebb 6F757400 		.ascii	"out\000"
 4067 0ebf 01       		.byte	0x1
 4068 0ec0 0101     		.2byte	0x101
 4069 0ec2 2B020000 		.4byte	0x22b
 4070 0ec6 B71B0000 		.4byte	.LLST156
 4071 0eca 33       		.uleb128 0x33
 4072 0ecb 53000000 		.4byte	.LASF75
 4073 0ecf 01       		.byte	0x1
 4074 0ed0 0101     		.2byte	0x101
 4075 0ed2 27010000 		.4byte	0x127
 4076 0ed6 E31B0000 		.4byte	.LLST157
 4077 0eda 33       		.uleb128 0x33
 4078 0edb 9C030000 		.4byte	.LASF76
 4079 0edf 01       		.byte	0x1
 4080 0ee0 0101     		.2byte	0x101
 4081 0ee2 1C010000 		.4byte	0x11c
 4082 0ee6 0E1C0000 		.4byte	.LLST158
 4083 0eea 33       		.uleb128 0x33
 4084 0eeb 34020000 		.4byte	.LASF77
 4085 0eef 01       		.byte	0x1
 4086 0ef0 0101     		.2byte	0x101
 4087 0ef2 27010000 		.4byte	0x127
 4088 0ef6 3A1C0000 		.4byte	.LLST159
 4089 0efa 33       		.uleb128 0x33
 4090 0efb D8020000 		.4byte	.LASF65
 4091 0eff 01       		.byte	0x1
 4092 0f00 0101     		.2byte	0x101
 4093 0f02 1C010000 		.4byte	0x11c
 4094 0f06 5A1C0000 		.4byte	.LLST160
 4095 0f0a 34       		.uleb128 0x34
 4096 0f0b 0C       		.byte	0xc
 4097 0f0c 01       		.byte	0x1
 4098 0f0d 0201     		.2byte	0x102
 4099 0f0f 3B0F0000 		.4byte	0xf3b
 4100 0f13 35       		.uleb128 0x35
 4101 0f14 A9020000 		.4byte	.LASF94
 4102 0f18 01       		.byte	0x1
 4103 0f19 0201     		.2byte	0x102
 4104 0f1b BF000000 		.4byte	0xbf
 4105 0f1f 00       		.byte	0
 4106 0f20 35       		.uleb128 0x35
 4107 0f21 A5010000 		.4byte	.LASF95
 4108 0f25 01       		.byte	0x1
 4109 0f26 0201     		.2byte	0x102
ARM GAS  C:\Users\kuzni\AppData\Local\Temp\ccqUPoDe.s 			page 91


 4110 0f28 BF000000 		.4byte	0xbf
 4111 0f2c 04       		.byte	0x4
 4112 0f2d 35       		.uleb128 0x35
 4113 0f2e 23010000 		.4byte	.LASF96
 4114 0f32 01       		.byte	0x1
 4115 0f33 0201     		.2byte	0x102
 4116 0f35 32010000 		.4byte	0x132
 4117 0f39 08       		.byte	0x8
 4118 0f3a 00       		.byte	0
 4119 0f3b 19       		.uleb128 0x19
 4120 0f3c 99000000 		.4byte	.LASF97
 4121 0f40 01       		.byte	0x1
 4122 0f41 0201     		.2byte	0x102
 4123 0f43 0A0F0000 		.4byte	0xf0a
 4124 0f47 36       		.uleb128 0x36
 4125 0f48 64696E00 		.ascii	"din\000"
 4126 0f4c 01       		.byte	0x1
 4127 0f4d 0301     		.2byte	0x103
 4128 0f4f DB010000 		.4byte	0x1db
 4129 0f53 7A1C0000 		.4byte	.LLST161
 4130 0f57 37       		.uleb128 0x37
 4131 0f58 2E000000 		.4byte	.LASF100
 4132 0f5c 01       		.byte	0x1
 4133 0f5d 0401     		.2byte	0x104
 4134 0f5f E1010000 		.4byte	0x1e1
 4135 0f63 8D1C0000 		.4byte	.LLST162
 4136 0f67 37       		.uleb128 0x37
 4137 0f68 33030000 		.4byte	.LASF101
 4138 0f6c 01       		.byte	0x1
 4139 0f6d 0501     		.2byte	0x105
 4140 0f6f 32010000 		.4byte	0x132
 4141 0f73 A01C0000 		.4byte	.LLST163
 4142 0f77 36       		.uleb128 0x36
 4143 0f78 6300     		.ascii	"c\000"
 4144 0f7a 01       		.byte	0x1
 4145 0f7b 0601     		.2byte	0x106
 4146 0f7d 90000000 		.4byte	0x90
 4147 0f81 C31C0000 		.4byte	.LLST164
 4148 0f85 36       		.uleb128 0x36
 4149 0f86 73756D00 		.ascii	"sum\000"
 4150 0f8a 01       		.byte	0x1
 4151 0f8b 0F01     		.2byte	0x10f
 4152 0f8d 32010000 		.4byte	0x132
 4153 0f91 F81C0000 		.4byte	.LLST165
 4154 0f95 38       		.uleb128 0x38
 4155 0f96 CC030000 		.4byte	0x3cc
 4156 0f9a 5C000000 		.4byte	.LBB82
 4157 0f9e 62000000 		.4byte	.LBE82-.LBB82
 4158 0fa2 01       		.byte	0x1
 4159 0fa3 1201     		.2byte	0x112
 4160 0fa5 26       		.uleb128 0x26
 4161 0fa6 DD030000 		.4byte	0x3dd
 4162 0faa 211D0000 		.4byte	.LLST166
 4163 0fae 27       		.uleb128 0x27
 4164 0faf 5C000000 		.4byte	.LBB83
 4165 0fb3 62000000 		.4byte	.LBE83-.LBB83
 4166 0fb7 28       		.uleb128 0x28
ARM GAS  C:\Users\kuzni\AppData\Local\Temp\ccqUPoDe.s 			page 92


 4167 0fb8 E7030000 		.4byte	0x3e7
 4168 0fbc 341D0000 		.4byte	.LLST167
 4169 0fc0 28       		.uleb128 0x28
 4170 0fc1 F1030000 		.4byte	0x3f1
 4171 0fc5 521D0000 		.4byte	.LLST168
 4172 0fc9 28       		.uleb128 0x28
 4173 0fca FB030000 		.4byte	0x3fb
 4174 0fce 521D0000 		.4byte	.LLST168
 4175 0fd2 28       		.uleb128 0x28
 4176 0fd3 07040000 		.4byte	0x407
 4177 0fd7 661D0000 		.4byte	.LLST170
 4178 0fdb 28       		.uleb128 0x28
 4179 0fdc 11040000 		.4byte	0x411
 4180 0fe0 791D0000 		.4byte	.LLST171
 4181 0fe4 39       		.uleb128 0x39
 4182 0fe5 39040000 		.4byte	0x439
 4183 0fe9 00       		.byte	0
 4184 0fea 00       		.byte	0
 4185 0feb 00       		.byte	0
 4186 0fec 3A       		.uleb128 0x3a
 4187 0fed AF020000 		.4byte	.LASF102
 4188 0ff1 01       		.byte	0x1
 4189 0ff2 2101     		.2byte	0x121
 4190 0ff4 7E010000 		.4byte	0x17e
 4191 0ff8 00000000 		.4byte	.LFB10
 4192 0ffc 04000000 		.4byte	.LFE10-.LFB10
 4193 1000 01       		.uleb128 0x1
 4194 1001 9C       		.byte	0x9c
 4195 1002 5E100000 		.4byte	0x105e
 4196 1006 32       		.uleb128 0x32
 4197 1007 696E00   		.ascii	"in\000"
 4198 100a 01       		.byte	0x1
 4199 100b 2101     		.2byte	0x121
 4200 100d 2B020000 		.4byte	0x22b
 4201 1011 971D0000 		.4byte	.LLST172
 4202 1015 3B       		.uleb128 0x3b
 4203 1016 6F757400 		.ascii	"out\000"
 4204 101a 01       		.byte	0x1
 4205 101b 2101     		.2byte	0x121
 4206 101d 2B020000 		.4byte	0x22b
 4207 1021 01       		.uleb128 0x1
 4208 1022 51       		.byte	0x51
 4209 1023 3C       		.uleb128 0x3c
 4210 1024 53000000 		.4byte	.LASF75
 4211 1028 01       		.byte	0x1
 4212 1029 2101     		.2byte	0x121
 4213 102b 27010000 		.4byte	0x127
 4214 102f 01       		.uleb128 0x1
 4215 1030 52       		.byte	0x52
 4216 1031 3C       		.uleb128 0x3c
 4217 1032 9C030000 		.4byte	.LASF76
 4218 1036 01       		.byte	0x1
 4219 1037 2101     		.2byte	0x121
 4220 1039 1C010000 		.4byte	0x11c
 4221 103d 01       		.uleb128 0x1
 4222 103e 53       		.byte	0x53
 4223 103f 3C       		.uleb128 0x3c
ARM GAS  C:\Users\kuzni\AppData\Local\Temp\ccqUPoDe.s 			page 93


 4224 1040 34020000 		.4byte	.LASF77
 4225 1044 01       		.byte	0x1
 4226 1045 2101     		.2byte	0x121
 4227 1047 27010000 		.4byte	0x127
 4228 104b 02       		.uleb128 0x2
 4229 104c 91       		.byte	0x91
 4230 104d 00       		.sleb128 0
 4231 104e 3C       		.uleb128 0x3c
 4232 104f D8020000 		.4byte	.LASF65
 4233 1053 01       		.byte	0x1
 4234 1054 2101     		.2byte	0x121
 4235 1056 1C010000 		.4byte	0x11c
 4236 105a 02       		.uleb128 0x2
 4237 105b 91       		.byte	0x91
 4238 105c 04       		.sleb128 4
 4239 105d 00       		.byte	0
 4240 105e 31       		.uleb128 0x31
 4241 105f 48020000 		.4byte	.LASF103
 4242 1063 01       		.byte	0x1
 4243 1064 2801     		.2byte	0x128
 4244 1066 7E010000 		.4byte	0x17e
 4245 106a 00000000 		.4byte	.LFB11
 4246 106e D8010000 		.4byte	.LFE11-.LFB11
 4247 1072 01       		.uleb128 0x1
 4248 1073 9C       		.byte	0x9c
 4249 1074 84110000 		.4byte	0x1184
 4250 1078 32       		.uleb128 0x32
 4251 1079 696E3000 		.ascii	"in0\000"
 4252 107d 01       		.byte	0x1
 4253 107e 2801     		.2byte	0x128
 4254 1080 2B020000 		.4byte	0x22b
 4255 1084 B81D0000 		.4byte	.LLST173
 4256 1088 32       		.uleb128 0x32
 4257 1089 696E3100 		.ascii	"in1\000"
 4258 108d 01       		.byte	0x1
 4259 108e 2801     		.2byte	0x128
 4260 1090 2B020000 		.4byte	0x22b
 4261 1094 D91D0000 		.4byte	.LLST174
 4262 1098 32       		.uleb128 0x32
 4263 1099 6F757400 		.ascii	"out\000"
 4264 109d 01       		.byte	0x1
 4265 109e 2801     		.2byte	0x128
 4266 10a0 2B020000 		.4byte	0x22b
 4267 10a4 FA1D0000 		.4byte	.LLST175
 4268 10a8 33       		.uleb128 0x33
 4269 10a9 24030000 		.4byte	.LASF104
 4270 10ad 01       		.byte	0x1
 4271 10ae 2901     		.2byte	0x129
 4272 10b0 27010000 		.4byte	0x127
 4273 10b4 1B1E0000 		.4byte	.LLST176
 4274 10b8 33       		.uleb128 0x33
 4275 10b9 3A010000 		.4byte	.LASF105
 4276 10bd 01       		.byte	0x1
 4277 10be 2901     		.2byte	0x129
 4278 10c0 1C010000 		.4byte	0x11c
 4279 10c4 511E0000 		.4byte	.LLST177
 4280 10c8 33       		.uleb128 0x33
ARM GAS  C:\Users\kuzni\AppData\Local\Temp\ccqUPoDe.s 			page 94


 4281 10c9 33000000 		.4byte	.LASF106
 4282 10cd 01       		.byte	0x1
 4283 10ce 2901     		.2byte	0x129
 4284 10d0 27010000 		.4byte	0x127
 4285 10d4 711E0000 		.4byte	.LLST178
 4286 10d8 33       		.uleb128 0x33
 4287 10d9 41010000 		.4byte	.LASF107
 4288 10dd 01       		.byte	0x1
 4289 10de 2901     		.2byte	0x129
 4290 10e0 1C010000 		.4byte	0x11c
 4291 10e4 911E0000 		.4byte	.LLST179
 4292 10e8 33       		.uleb128 0x33
 4293 10e9 34020000 		.4byte	.LASF77
 4294 10ed 01       		.byte	0x1
 4295 10ee 2901     		.2byte	0x129
 4296 10f0 27010000 		.4byte	0x127
 4297 10f4 B11E0000 		.4byte	.LLST180
 4298 10f8 33       		.uleb128 0x33
 4299 10f9 D8020000 		.4byte	.LASF65
 4300 10fd 01       		.byte	0x1
 4301 10fe 2901     		.2byte	0x129
 4302 1100 1C010000 		.4byte	0x11c
 4303 1104 D11E0000 		.4byte	.LLST181
 4304 1108 36       		.uleb128 0x36
 4305 1109 643000   		.ascii	"d0\000"
 4306 110c 01       		.byte	0x1
 4307 110d 2C01     		.2byte	0x12c
 4308 110f DB010000 		.4byte	0x1db
 4309 1113 F11E0000 		.4byte	.LLST182
 4310 1117 36       		.uleb128 0x36
 4311 1118 643100   		.ascii	"d1\000"
 4312 111b 01       		.byte	0x1
 4313 111c 2D01     		.2byte	0x12d
 4314 111e DB010000 		.4byte	0x1db
 4315 1122 041F0000 		.4byte	.LLST183
 4316 1126 36       		.uleb128 0x36
 4317 1127 72657300 		.ascii	"res\000"
 4318 112b 01       		.byte	0x1
 4319 112c 2E01     		.2byte	0x12e
 4320 112e DB010000 		.4byte	0x1db
 4321 1132 171F0000 		.4byte	.LLST184
 4322 1136 37       		.uleb128 0x37
 4323 1137 92020000 		.4byte	.LASF53
 4324 113b 01       		.byte	0x1
 4325 113c 2F01     		.2byte	0x12f
 4326 113e 90000000 		.4byte	0x90
 4327 1142 2A1F0000 		.4byte	.LLST185
 4328 1146 36       		.uleb128 0x36
 4329 1147 6900     		.ascii	"i\000"
 4330 1149 01       		.byte	0x1
 4331 114a 3201     		.2byte	0x132
 4332 114c 90000000 		.4byte	0x90
 4333 1150 551F0000 		.4byte	.LLST186
 4334 1154 2B       		.uleb128 0x2b
 4335 1155 4E000000 		.4byte	.LVL444
 4336 1159 08120000 		.4byte	0x1208
 4337 115d 2C       		.uleb128 0x2c
ARM GAS  C:\Users\kuzni\AppData\Local\Temp\ccqUPoDe.s 			page 95


 4338 115e 06       		.uleb128 0x6
 4339 115f 52       		.byte	0x52
 4340 1160 93       		.byte	0x93
 4341 1161 04       		.uleb128 0x4
 4342 1162 53       		.byte	0x53
 4343 1163 93       		.byte	0x93
 4344 1164 04       		.uleb128 0x4
 4345 1165 05       		.uleb128 0x5
 4346 1166 91       		.byte	0x91
 4347 1167 48       		.sleb128 -56
 4348 1168 F6       		.byte	0xf6
 4349 1169 08       		.byte	0x8
 4350 116a 25       		.uleb128 0x25
 4351 116b 2C       		.uleb128 0x2c
 4352 116c 01       		.uleb128 0x1
 4353 116d 50       		.byte	0x50
 4354 116e 05       		.uleb128 0x5
 4355 116f 03       		.byte	0x3
 4356 1170 00000000 		.4byte	.LC0
 4357 1174 2C       		.uleb128 0x2c
 4358 1175 02       		.uleb128 0x2
 4359 1176 7D       		.byte	0x7d
 4360 1177 10       		.sleb128 16
 4361 1178 02       		.uleb128 0x2
 4362 1179 7B       		.byte	0x7b
 4363 117a 00       		.sleb128 0
 4364 117b 2C       		.uleb128 0x2c
 4365 117c 02       		.uleb128 0x2
 4366 117d 7D       		.byte	0x7d
 4367 117e 00       		.sleb128 0
 4368 117f 02       		.uleb128 0x2
 4369 1180 78       		.byte	0x78
 4370 1181 00       		.sleb128 0
 4371 1182 00       		.byte	0
 4372 1183 00       		.byte	0
 4373 1184 2D       		.uleb128 0x2d
 4374 1185 BF000000 		.4byte	0xbf
 4375 1189 94110000 		.4byte	0x1194
 4376 118d 2E       		.uleb128 0x2e
 4377 118e D7000000 		.4byte	0xd7
 4378 1192 18       		.byte	0x18
 4379 1193 00       		.byte	0
 4380 1194 23       		.uleb128 0x23
 4381 1195 34010000 		.4byte	.LASF108
 4382 1199 01       		.byte	0x1
 4383 119a 2D       		.byte	0x2d
 4384 119b 84110000 		.4byte	0x1184
 4385 119f 05       		.uleb128 0x5
 4386 11a0 03       		.byte	0x3
 4387 11a1 A0180000 		.4byte	k_oft
 4388 11a5 2D       		.uleb128 0x2d
 4389 11a6 F0000000 		.4byte	0xf0
 4390 11aa B6110000 		.4byte	0x11b6
 4391 11ae 3D       		.uleb128 0x3d
 4392 11af D7000000 		.4byte	0xd7
 4393 11b3 FF08     		.2byte	0x8ff
 4394 11b5 00       		.byte	0
ARM GAS  C:\Users\kuzni\AppData\Local\Temp\ccqUPoDe.s 			page 96


 4395 11b6 23       		.uleb128 0x23
 4396 11b7 01020000 		.4byte	.LASF109
 4397 11bb 01       		.byte	0x1
 4398 11bc 2E       		.byte	0x2e
 4399 11bd A5110000 		.4byte	0x11a5
 4400 11c1 05       		.uleb128 0x5
 4401 11c2 03       		.byte	0x3
 4402 11c3 00000000 		.4byte	sbuf
 4403 11c7 2D       		.uleb128 0x2d
 4404 11c8 32010000 		.4byte	0x132
 4405 11cc D8110000 		.4byte	0x11d8
 4406 11d0 3D       		.uleb128 0x3d
 4407 11d1 D7000000 		.4byte	0xd7
 4408 11d5 E703     		.2byte	0x3e7
 4409 11d7 00       		.byte	0
 4410 11d8 23       		.uleb128 0x23
 4411 11d9 4A000000 		.4byte	.LASF110
 4412 11dd 01       		.byte	0x1
 4413 11de 39       		.byte	0x39
 4414 11df C7110000 		.4byte	0x11c7
 4415 11e3 05       		.uleb128 0x5
 4416 11e4 03       		.byte	0x3
 4417 11e5 00090000 		.4byte	sumscale
 4418 11e9 3E       		.uleb128 0x3e
 4419 11ea 84020000 		.4byte	.LASF115
 4420 11ee 07       		.byte	0x7
 4421 11ef 19       		.byte	0x19
 4422 11f0 D5000000 		.4byte	0xd5
 4423 11f4 08120000 		.4byte	0x1208
 4424 11f8 3F       		.uleb128 0x3f
 4425 11f9 D5000000 		.4byte	0xd5
 4426 11fd 3F       		.uleb128 0x3f
 4427 11fe 90000000 		.4byte	0x90
 4428 1202 3F       		.uleb128 0x3f
 4429 1203 CA000000 		.4byte	0xca
 4430 1207 00       		.byte	0
 4431 1208 40       		.uleb128 0x40
 4432 1209 1A000000 		.4byte	.LASF116
 4433 120d 08       		.byte	0x8
 4434 120e B2       		.byte	0xb2
 4435 120f 90000000 		.4byte	0x90
 4436 1213 3F       		.uleb128 0x3f
 4437 1214 E5000000 		.4byte	0xe5
 4438 1218 41       		.uleb128 0x41
 4439 1219 00       		.byte	0
 4440 121a 00       		.byte	0
 4441              		.section	.debug_abbrev,"",%progbits
 4442              	.Ldebug_abbrev0:
 4443 0000 01       		.uleb128 0x1
 4444 0001 11       		.uleb128 0x11
 4445 0002 01       		.byte	0x1
 4446 0003 25       		.uleb128 0x25
 4447 0004 0E       		.uleb128 0xe
 4448 0005 13       		.uleb128 0x13
 4449 0006 0B       		.uleb128 0xb
 4450 0007 03       		.uleb128 0x3
 4451 0008 0E       		.uleb128 0xe
ARM GAS  C:\Users\kuzni\AppData\Local\Temp\ccqUPoDe.s 			page 97


 4452 0009 1B       		.uleb128 0x1b
 4453 000a 0E       		.uleb128 0xe
 4454 000b 55       		.uleb128 0x55
 4455 000c 17       		.uleb128 0x17
 4456 000d 11       		.uleb128 0x11
 4457 000e 01       		.uleb128 0x1
 4458 000f 10       		.uleb128 0x10
 4459 0010 17       		.uleb128 0x17
 4460 0011 00       		.byte	0
 4461 0012 00       		.byte	0
 4462 0013 02       		.uleb128 0x2
 4463 0014 24       		.uleb128 0x24
 4464 0015 00       		.byte	0
 4465 0016 0B       		.uleb128 0xb
 4466 0017 0B       		.uleb128 0xb
 4467 0018 3E       		.uleb128 0x3e
 4468 0019 0B       		.uleb128 0xb
 4469 001a 03       		.uleb128 0x3
 4470 001b 0E       		.uleb128 0xe
 4471 001c 00       		.byte	0
 4472 001d 00       		.byte	0
 4473 001e 03       		.uleb128 0x3
 4474 001f 16       		.uleb128 0x16
 4475 0020 00       		.byte	0
 4476 0021 03       		.uleb128 0x3
 4477 0022 0E       		.uleb128 0xe
 4478 0023 3A       		.uleb128 0x3a
 4479 0024 0B       		.uleb128 0xb
 4480 0025 3B       		.uleb128 0x3b
 4481 0026 0B       		.uleb128 0xb
 4482 0027 49       		.uleb128 0x49
 4483 0028 13       		.uleb128 0x13
 4484 0029 00       		.byte	0
 4485 002a 00       		.byte	0
 4486 002b 04       		.uleb128 0x4
 4487 002c 24       		.uleb128 0x24
 4488 002d 00       		.byte	0
 4489 002e 0B       		.uleb128 0xb
 4490 002f 0B       		.uleb128 0xb
 4491 0030 3E       		.uleb128 0x3e
 4492 0031 0B       		.uleb128 0xb
 4493 0032 03       		.uleb128 0x3
 4494 0033 08       		.uleb128 0x8
 4495 0034 00       		.byte	0
 4496 0035 00       		.byte	0
 4497 0036 05       		.uleb128 0x5
 4498 0037 0F       		.uleb128 0xf
 4499 0038 00       		.byte	0
 4500 0039 0B       		.uleb128 0xb
 4501 003a 0B       		.uleb128 0xb
 4502 003b 00       		.byte	0
 4503 003c 00       		.byte	0
 4504 003d 06       		.uleb128 0x6
 4505 003e 0F       		.uleb128 0xf
 4506 003f 00       		.byte	0
 4507 0040 0B       		.uleb128 0xb
 4508 0041 0B       		.uleb128 0xb
ARM GAS  C:\Users\kuzni\AppData\Local\Temp\ccqUPoDe.s 			page 98


 4509 0042 49       		.uleb128 0x49
 4510 0043 13       		.uleb128 0x13
 4511 0044 00       		.byte	0
 4512 0045 00       		.byte	0
 4513 0046 07       		.uleb128 0x7
 4514 0047 26       		.uleb128 0x26
 4515 0048 00       		.byte	0
 4516 0049 49       		.uleb128 0x49
 4517 004a 13       		.uleb128 0x13
 4518 004b 00       		.byte	0
 4519 004c 00       		.byte	0
 4520 004d 08       		.uleb128 0x8
 4521 004e 04       		.uleb128 0x4
 4522 004f 01       		.byte	0x1
 4523 0050 0B       		.uleb128 0xb
 4524 0051 0B       		.uleb128 0xb
 4525 0052 3A       		.uleb128 0x3a
 4526 0053 0B       		.uleb128 0xb
 4527 0054 3B       		.uleb128 0x3b
 4528 0055 0B       		.uleb128 0xb
 4529 0056 01       		.uleb128 0x1
 4530 0057 13       		.uleb128 0x13
 4531 0058 00       		.byte	0
 4532 0059 00       		.byte	0
 4533 005a 09       		.uleb128 0x9
 4534 005b 28       		.uleb128 0x28
 4535 005c 00       		.byte	0
 4536 005d 03       		.uleb128 0x3
 4537 005e 0E       		.uleb128 0xe
 4538 005f 1C       		.uleb128 0x1c
 4539 0060 0D       		.uleb128 0xd
 4540 0061 00       		.byte	0
 4541 0062 00       		.byte	0
 4542 0063 0A       		.uleb128 0xa
 4543 0064 17       		.uleb128 0x17
 4544 0065 01       		.byte	0x1
 4545 0066 0B       		.uleb128 0xb
 4546 0067 0B       		.uleb128 0xb
 4547 0068 3A       		.uleb128 0x3a
 4548 0069 0B       		.uleb128 0xb
 4549 006a 3B       		.uleb128 0x3b
 4550 006b 0B       		.uleb128 0xb
 4551 006c 01       		.uleb128 0x1
 4552 006d 13       		.uleb128 0x13
 4553 006e 00       		.byte	0
 4554 006f 00       		.byte	0
 4555 0070 0B       		.uleb128 0xb
 4556 0071 0D       		.uleb128 0xd
 4557 0072 00       		.byte	0
 4558 0073 03       		.uleb128 0x3
 4559 0074 0E       		.uleb128 0xe
 4560 0075 3A       		.uleb128 0x3a
 4561 0076 0B       		.uleb128 0xb
 4562 0077 3B       		.uleb128 0x3b
 4563 0078 0B       		.uleb128 0xb
 4564 0079 49       		.uleb128 0x49
 4565 007a 13       		.uleb128 0x13
ARM GAS  C:\Users\kuzni\AppData\Local\Temp\ccqUPoDe.s 			page 99


 4566 007b 00       		.byte	0
 4567 007c 00       		.byte	0
 4568 007d 0C       		.uleb128 0xc
 4569 007e 13       		.uleb128 0x13
 4570 007f 01       		.byte	0x1
 4571 0080 0B       		.uleb128 0xb
 4572 0081 0B       		.uleb128 0xb
 4573 0082 3A       		.uleb128 0x3a
 4574 0083 0B       		.uleb128 0xb
 4575 0084 3B       		.uleb128 0x3b
 4576 0085 0B       		.uleb128 0xb
 4577 0086 01       		.uleb128 0x1
 4578 0087 13       		.uleb128 0x13
 4579 0088 00       		.byte	0
 4580 0089 00       		.byte	0
 4581 008a 0D       		.uleb128 0xd
 4582 008b 0D       		.uleb128 0xd
 4583 008c 00       		.byte	0
 4584 008d 03       		.uleb128 0x3
 4585 008e 0E       		.uleb128 0xe
 4586 008f 3A       		.uleb128 0x3a
 4587 0090 0B       		.uleb128 0xb
 4588 0091 3B       		.uleb128 0x3b
 4589 0092 0B       		.uleb128 0xb
 4590 0093 49       		.uleb128 0x49
 4591 0094 13       		.uleb128 0x13
 4592 0095 38       		.uleb128 0x38
 4593 0096 0B       		.uleb128 0xb
 4594 0097 00       		.byte	0
 4595 0098 00       		.byte	0
 4596 0099 0E       		.uleb128 0xe
 4597 009a 0D       		.uleb128 0xd
 4598 009b 00       		.byte	0
 4599 009c 03       		.uleb128 0x3
 4600 009d 08       		.uleb128 0x8
 4601 009e 3A       		.uleb128 0x3a
 4602 009f 0B       		.uleb128 0xb
 4603 00a0 3B       		.uleb128 0x3b
 4604 00a1 0B       		.uleb128 0xb
 4605 00a2 49       		.uleb128 0x49
 4606 00a3 13       		.uleb128 0x13
 4607 00a4 38       		.uleb128 0x38
 4608 00a5 0B       		.uleb128 0xb
 4609 00a6 00       		.byte	0
 4610 00a7 00       		.byte	0
 4611 00a8 0F       		.uleb128 0xf
 4612 00a9 0D       		.uleb128 0xd
 4613 00aa 00       		.byte	0
 4614 00ab 49       		.uleb128 0x49
 4615 00ac 13       		.uleb128 0x13
 4616 00ad 38       		.uleb128 0x38
 4617 00ae 0B       		.uleb128 0xb
 4618 00af 00       		.byte	0
 4619 00b0 00       		.byte	0
 4620 00b1 10       		.uleb128 0x10
 4621 00b2 2E       		.uleb128 0x2e
 4622 00b3 01       		.byte	0x1
ARM GAS  C:\Users\kuzni\AppData\Local\Temp\ccqUPoDe.s 			page 100


 4623 00b4 03       		.uleb128 0x3
 4624 00b5 0E       		.uleb128 0xe
 4625 00b6 3A       		.uleb128 0x3a
 4626 00b7 0B       		.uleb128 0xb
 4627 00b8 3B       		.uleb128 0x3b
 4628 00b9 0B       		.uleb128 0xb
 4629 00ba 27       		.uleb128 0x27
 4630 00bb 19       		.uleb128 0x19
 4631 00bc 20       		.uleb128 0x20
 4632 00bd 0B       		.uleb128 0xb
 4633 00be 01       		.uleb128 0x1
 4634 00bf 13       		.uleb128 0x13
 4635 00c0 00       		.byte	0
 4636 00c1 00       		.byte	0
 4637 00c2 11       		.uleb128 0x11
 4638 00c3 05       		.uleb128 0x5
 4639 00c4 00       		.byte	0
 4640 00c5 03       		.uleb128 0x3
 4641 00c6 0E       		.uleb128 0xe
 4642 00c7 3A       		.uleb128 0x3a
 4643 00c8 0B       		.uleb128 0xb
 4644 00c9 3B       		.uleb128 0x3b
 4645 00ca 0B       		.uleb128 0xb
 4646 00cb 49       		.uleb128 0x49
 4647 00cc 13       		.uleb128 0x13
 4648 00cd 00       		.byte	0
 4649 00ce 00       		.byte	0
 4650 00cf 12       		.uleb128 0x12
 4651 00d0 34       		.uleb128 0x34
 4652 00d1 00       		.byte	0
 4653 00d2 03       		.uleb128 0x3
 4654 00d3 0E       		.uleb128 0xe
 4655 00d4 3A       		.uleb128 0x3a
 4656 00d5 0B       		.uleb128 0xb
 4657 00d6 3B       		.uleb128 0x3b
 4658 00d7 0B       		.uleb128 0xb
 4659 00d8 49       		.uleb128 0x49
 4660 00d9 13       		.uleb128 0x13
 4661 00da 00       		.byte	0
 4662 00db 00       		.byte	0
 4663 00dc 13       		.uleb128 0x13
 4664 00dd 34       		.uleb128 0x34
 4665 00de 00       		.byte	0
 4666 00df 03       		.uleb128 0x3
 4667 00e0 08       		.uleb128 0x8
 4668 00e1 3A       		.uleb128 0x3a
 4669 00e2 0B       		.uleb128 0xb
 4670 00e3 3B       		.uleb128 0x3b
 4671 00e4 0B       		.uleb128 0xb
 4672 00e5 49       		.uleb128 0x49
 4673 00e6 13       		.uleb128 0x13
 4674 00e7 00       		.byte	0
 4675 00e8 00       		.byte	0
 4676 00e9 14       		.uleb128 0x14
 4677 00ea 05       		.uleb128 0x5
 4678 00eb 00       		.byte	0
 4679 00ec 03       		.uleb128 0x3
ARM GAS  C:\Users\kuzni\AppData\Local\Temp\ccqUPoDe.s 			page 101


 4680 00ed 08       		.uleb128 0x8
 4681 00ee 3A       		.uleb128 0x3a
 4682 00ef 0B       		.uleb128 0xb
 4683 00f0 3B       		.uleb128 0x3b
 4684 00f1 0B       		.uleb128 0xb
 4685 00f2 49       		.uleb128 0x49
 4686 00f3 13       		.uleb128 0x13
 4687 00f4 00       		.byte	0
 4688 00f5 00       		.byte	0
 4689 00f6 15       		.uleb128 0x15
 4690 00f7 0B       		.uleb128 0xb
 4691 00f8 01       		.byte	0x1
 4692 00f9 00       		.byte	0
 4693 00fa 00       		.byte	0
 4694 00fb 16       		.uleb128 0x16
 4695 00fc 2E       		.uleb128 0x2e
 4696 00fd 01       		.byte	0x1
 4697 00fe 03       		.uleb128 0x3
 4698 00ff 0E       		.uleb128 0xe
 4699 0100 3A       		.uleb128 0x3a
 4700 0101 0B       		.uleb128 0xb
 4701 0102 3B       		.uleb128 0x3b
 4702 0103 05       		.uleb128 0x5
 4703 0104 27       		.uleb128 0x27
 4704 0105 19       		.uleb128 0x19
 4705 0106 49       		.uleb128 0x49
 4706 0107 13       		.uleb128 0x13
 4707 0108 20       		.uleb128 0x20
 4708 0109 0B       		.uleb128 0xb
 4709 010a 01       		.uleb128 0x1
 4710 010b 13       		.uleb128 0x13
 4711 010c 00       		.byte	0
 4712 010d 00       		.byte	0
 4713 010e 17       		.uleb128 0x17
 4714 010f 05       		.uleb128 0x5
 4715 0110 00       		.byte	0
 4716 0111 03       		.uleb128 0x3
 4717 0112 08       		.uleb128 0x8
 4718 0113 3A       		.uleb128 0x3a
 4719 0114 0B       		.uleb128 0xb
 4720 0115 3B       		.uleb128 0x3b
 4721 0116 05       		.uleb128 0x5
 4722 0117 49       		.uleb128 0x49
 4723 0118 13       		.uleb128 0x13
 4724 0119 00       		.byte	0
 4725 011a 00       		.byte	0
 4726 011b 18       		.uleb128 0x18
 4727 011c 34       		.uleb128 0x34
 4728 011d 00       		.byte	0
 4729 011e 03       		.uleb128 0x3
 4730 011f 08       		.uleb128 0x8
 4731 0120 3A       		.uleb128 0x3a
 4732 0121 0B       		.uleb128 0xb
 4733 0122 3B       		.uleb128 0x3b
 4734 0123 05       		.uleb128 0x5
 4735 0124 49       		.uleb128 0x49
 4736 0125 13       		.uleb128 0x13
ARM GAS  C:\Users\kuzni\AppData\Local\Temp\ccqUPoDe.s 			page 102


 4737 0126 00       		.byte	0
 4738 0127 00       		.byte	0
 4739 0128 19       		.uleb128 0x19
 4740 0129 34       		.uleb128 0x34
 4741 012a 00       		.byte	0
 4742 012b 03       		.uleb128 0x3
 4743 012c 0E       		.uleb128 0xe
 4744 012d 3A       		.uleb128 0x3a
 4745 012e 0B       		.uleb128 0xb
 4746 012f 3B       		.uleb128 0x3b
 4747 0130 05       		.uleb128 0x5
 4748 0131 49       		.uleb128 0x49
 4749 0132 13       		.uleb128 0x13
 4750 0133 00       		.byte	0
 4751 0134 00       		.byte	0
 4752 0135 1A       		.uleb128 0x1a
 4753 0136 17       		.uleb128 0x17
 4754 0137 01       		.byte	0x1
 4755 0138 0B       		.uleb128 0xb
 4756 0139 0B       		.uleb128 0xb
 4757 013a 3A       		.uleb128 0x3a
 4758 013b 0B       		.uleb128 0xb
 4759 013c 3B       		.uleb128 0x3b
 4760 013d 05       		.uleb128 0x5
 4761 013e 01       		.uleb128 0x1
 4762 013f 13       		.uleb128 0x13
 4763 0140 00       		.byte	0
 4764 0141 00       		.byte	0
 4765 0142 1B       		.uleb128 0x1b
 4766 0143 0D       		.uleb128 0xd
 4767 0144 00       		.byte	0
 4768 0145 03       		.uleb128 0x3
 4769 0146 08       		.uleb128 0x8
 4770 0147 3A       		.uleb128 0x3a
 4771 0148 0B       		.uleb128 0xb
 4772 0149 3B       		.uleb128 0x3b
 4773 014a 05       		.uleb128 0x5
 4774 014b 49       		.uleb128 0x49
 4775 014c 13       		.uleb128 0x13
 4776 014d 00       		.byte	0
 4777 014e 00       		.byte	0
 4778 014f 1C       		.uleb128 0x1c
 4779 0150 2E       		.uleb128 0x2e
 4780 0151 01       		.byte	0x1
 4781 0152 3F       		.uleb128 0x3f
 4782 0153 19       		.uleb128 0x19
 4783 0154 03       		.uleb128 0x3
 4784 0155 0E       		.uleb128 0xe
 4785 0156 3A       		.uleb128 0x3a
 4786 0157 0B       		.uleb128 0xb
 4787 0158 3B       		.uleb128 0x3b
 4788 0159 0B       		.uleb128 0xb
 4789 015a 27       		.uleb128 0x27
 4790 015b 19       		.uleb128 0x19
 4791 015c 49       		.uleb128 0x49
 4792 015d 13       		.uleb128 0x13
 4793 015e 11       		.uleb128 0x11
ARM GAS  C:\Users\kuzni\AppData\Local\Temp\ccqUPoDe.s 			page 103


 4794 015f 01       		.uleb128 0x1
 4795 0160 12       		.uleb128 0x12
 4796 0161 06       		.uleb128 0x6
 4797 0162 40       		.uleb128 0x40
 4798 0163 18       		.uleb128 0x18
 4799 0164 9642     		.uleb128 0x2116
 4800 0166 19       		.uleb128 0x19
 4801 0167 01       		.uleb128 0x1
 4802 0168 13       		.uleb128 0x13
 4803 0169 00       		.byte	0
 4804 016a 00       		.byte	0
 4805 016b 1D       		.uleb128 0x1d
 4806 016c 05       		.uleb128 0x5
 4807 016d 00       		.byte	0
 4808 016e 03       		.uleb128 0x3
 4809 016f 08       		.uleb128 0x8
 4810 0170 3A       		.uleb128 0x3a
 4811 0171 0B       		.uleb128 0xb
 4812 0172 3B       		.uleb128 0x3b
 4813 0173 0B       		.uleb128 0xb
 4814 0174 49       		.uleb128 0x49
 4815 0175 13       		.uleb128 0x13
 4816 0176 02       		.uleb128 0x2
 4817 0177 17       		.uleb128 0x17
 4818 0178 00       		.byte	0
 4819 0179 00       		.byte	0
 4820 017a 1E       		.uleb128 0x1e
 4821 017b 05       		.uleb128 0x5
 4822 017c 00       		.byte	0
 4823 017d 03       		.uleb128 0x3
 4824 017e 0E       		.uleb128 0xe
 4825 017f 3A       		.uleb128 0x3a
 4826 0180 0B       		.uleb128 0xb
 4827 0181 3B       		.uleb128 0x3b
 4828 0182 0B       		.uleb128 0xb
 4829 0183 49       		.uleb128 0x49
 4830 0184 13       		.uleb128 0x13
 4831 0185 02       		.uleb128 0x2
 4832 0186 17       		.uleb128 0x17
 4833 0187 00       		.byte	0
 4834 0188 00       		.byte	0
 4835 0189 1F       		.uleb128 0x1f
 4836 018a 34       		.uleb128 0x34
 4837 018b 00       		.byte	0
 4838 018c 03       		.uleb128 0x3
 4839 018d 0E       		.uleb128 0xe
 4840 018e 3A       		.uleb128 0x3a
 4841 018f 0B       		.uleb128 0xb
 4842 0190 3B       		.uleb128 0x3b
 4843 0191 0B       		.uleb128 0xb
 4844 0192 49       		.uleb128 0x49
 4845 0193 13       		.uleb128 0x13
 4846 0194 02       		.uleb128 0x2
 4847 0195 17       		.uleb128 0x17
 4848 0196 00       		.byte	0
 4849 0197 00       		.byte	0
 4850 0198 20       		.uleb128 0x20
ARM GAS  C:\Users\kuzni\AppData\Local\Temp\ccqUPoDe.s 			page 104


 4851 0199 34       		.uleb128 0x34
 4852 019a 00       		.byte	0
 4853 019b 03       		.uleb128 0x3
 4854 019c 08       		.uleb128 0x8
 4855 019d 3A       		.uleb128 0x3a
 4856 019e 0B       		.uleb128 0xb
 4857 019f 3B       		.uleb128 0x3b
 4858 01a0 0B       		.uleb128 0xb
 4859 01a1 49       		.uleb128 0x49
 4860 01a2 13       		.uleb128 0x13
 4861 01a3 02       		.uleb128 0x2
 4862 01a4 17       		.uleb128 0x17
 4863 01a5 00       		.byte	0
 4864 01a6 00       		.byte	0
 4865 01a7 21       		.uleb128 0x21
 4866 01a8 34       		.uleb128 0x34
 4867 01a9 00       		.byte	0
 4868 01aa 03       		.uleb128 0x3
 4869 01ab 08       		.uleb128 0x8
 4870 01ac 3A       		.uleb128 0x3a
 4871 01ad 0B       		.uleb128 0xb
 4872 01ae 3B       		.uleb128 0x3b
 4873 01af 0B       		.uleb128 0xb
 4874 01b0 49       		.uleb128 0x49
 4875 01b1 13       		.uleb128 0x13
 4876 01b2 02       		.uleb128 0x2
 4877 01b3 18       		.uleb128 0x18
 4878 01b4 00       		.byte	0
 4879 01b5 00       		.byte	0
 4880 01b6 22       		.uleb128 0x22
 4881 01b7 0B       		.uleb128 0xb
 4882 01b8 01       		.byte	0x1
 4883 01b9 11       		.uleb128 0x11
 4884 01ba 01       		.uleb128 0x1
 4885 01bb 12       		.uleb128 0x12
 4886 01bc 06       		.uleb128 0x6
 4887 01bd 01       		.uleb128 0x1
 4888 01be 13       		.uleb128 0x13
 4889 01bf 00       		.byte	0
 4890 01c0 00       		.byte	0
 4891 01c1 23       		.uleb128 0x23
 4892 01c2 34       		.uleb128 0x34
 4893 01c3 00       		.byte	0
 4894 01c4 03       		.uleb128 0x3
 4895 01c5 0E       		.uleb128 0xe
 4896 01c6 3A       		.uleb128 0x3a
 4897 01c7 0B       		.uleb128 0xb
 4898 01c8 3B       		.uleb128 0x3b
 4899 01c9 0B       		.uleb128 0xb
 4900 01ca 49       		.uleb128 0x49
 4901 01cb 13       		.uleb128 0x13
 4902 01cc 02       		.uleb128 0x2
 4903 01cd 18       		.uleb128 0x18
 4904 01ce 00       		.byte	0
 4905 01cf 00       		.byte	0
 4906 01d0 24       		.uleb128 0x24
 4907 01d1 0B       		.uleb128 0xb
ARM GAS  C:\Users\kuzni\AppData\Local\Temp\ccqUPoDe.s 			page 105


 4908 01d2 01       		.byte	0x1
 4909 01d3 55       		.uleb128 0x55
 4910 01d4 17       		.uleb128 0x17
 4911 01d5 01       		.uleb128 0x1
 4912 01d6 13       		.uleb128 0x13
 4913 01d7 00       		.byte	0
 4914 01d8 00       		.byte	0
 4915 01d9 25       		.uleb128 0x25
 4916 01da 1D       		.uleb128 0x1d
 4917 01db 01       		.byte	0x1
 4918 01dc 31       		.uleb128 0x31
 4919 01dd 13       		.uleb128 0x13
 4920 01de 11       		.uleb128 0x11
 4921 01df 01       		.uleb128 0x1
 4922 01e0 12       		.uleb128 0x12
 4923 01e1 06       		.uleb128 0x6
 4924 01e2 58       		.uleb128 0x58
 4925 01e3 0B       		.uleb128 0xb
 4926 01e4 59       		.uleb128 0x59
 4927 01e5 0B       		.uleb128 0xb
 4928 01e6 01       		.uleb128 0x1
 4929 01e7 13       		.uleb128 0x13
 4930 01e8 00       		.byte	0
 4931 01e9 00       		.byte	0
 4932 01ea 26       		.uleb128 0x26
 4933 01eb 05       		.uleb128 0x5
 4934 01ec 00       		.byte	0
 4935 01ed 31       		.uleb128 0x31
 4936 01ee 13       		.uleb128 0x13
 4937 01ef 02       		.uleb128 0x2
 4938 01f0 17       		.uleb128 0x17
 4939 01f1 00       		.byte	0
 4940 01f2 00       		.byte	0
 4941 01f3 27       		.uleb128 0x27
 4942 01f4 0B       		.uleb128 0xb
 4943 01f5 01       		.byte	0x1
 4944 01f6 11       		.uleb128 0x11
 4945 01f7 01       		.uleb128 0x1
 4946 01f8 12       		.uleb128 0x12
 4947 01f9 06       		.uleb128 0x6
 4948 01fa 00       		.byte	0
 4949 01fb 00       		.byte	0
 4950 01fc 28       		.uleb128 0x28
 4951 01fd 34       		.uleb128 0x34
 4952 01fe 00       		.byte	0
 4953 01ff 31       		.uleb128 0x31
 4954 0200 13       		.uleb128 0x13
 4955 0201 02       		.uleb128 0x2
 4956 0202 17       		.uleb128 0x17
 4957 0203 00       		.byte	0
 4958 0204 00       		.byte	0
 4959 0205 29       		.uleb128 0x29
 4960 0206 1D       		.uleb128 0x1d
 4961 0207 01       		.byte	0x1
 4962 0208 31       		.uleb128 0x31
 4963 0209 13       		.uleb128 0x13
 4964 020a 11       		.uleb128 0x11
ARM GAS  C:\Users\kuzni\AppData\Local\Temp\ccqUPoDe.s 			page 106


 4965 020b 01       		.uleb128 0x1
 4966 020c 12       		.uleb128 0x12
 4967 020d 06       		.uleb128 0x6
 4968 020e 58       		.uleb128 0x58
 4969 020f 0B       		.uleb128 0xb
 4970 0210 59       		.uleb128 0x59
 4971 0211 0B       		.uleb128 0xb
 4972 0212 00       		.byte	0
 4973 0213 00       		.byte	0
 4974 0214 2A       		.uleb128 0x2a
 4975 0215 0B       		.uleb128 0xb
 4976 0216 01       		.byte	0x1
 4977 0217 55       		.uleb128 0x55
 4978 0218 17       		.uleb128 0x17
 4979 0219 00       		.byte	0
 4980 021a 00       		.byte	0
 4981 021b 2B       		.uleb128 0x2b
 4982 021c 898201   		.uleb128 0x4109
 4983 021f 01       		.byte	0x1
 4984 0220 11       		.uleb128 0x11
 4985 0221 01       		.uleb128 0x1
 4986 0222 31       		.uleb128 0x31
 4987 0223 13       		.uleb128 0x13
 4988 0224 00       		.byte	0
 4989 0225 00       		.byte	0
 4990 0226 2C       		.uleb128 0x2c
 4991 0227 8A8201   		.uleb128 0x410a
 4992 022a 00       		.byte	0
 4993 022b 02       		.uleb128 0x2
 4994 022c 18       		.uleb128 0x18
 4995 022d 9142     		.uleb128 0x2111
 4996 022f 18       		.uleb128 0x18
 4997 0230 00       		.byte	0
 4998 0231 00       		.byte	0
 4999 0232 2D       		.uleb128 0x2d
 5000 0233 01       		.uleb128 0x1
 5001 0234 01       		.byte	0x1
 5002 0235 49       		.uleb128 0x49
 5003 0236 13       		.uleb128 0x13
 5004 0237 01       		.uleb128 0x1
 5005 0238 13       		.uleb128 0x13
 5006 0239 00       		.byte	0
 5007 023a 00       		.byte	0
 5008 023b 2E       		.uleb128 0x2e
 5009 023c 21       		.uleb128 0x21
 5010 023d 00       		.byte	0
 5011 023e 49       		.uleb128 0x49
 5012 023f 13       		.uleb128 0x13
 5013 0240 2F       		.uleb128 0x2f
 5014 0241 0B       		.uleb128 0xb
 5015 0242 00       		.byte	0
 5016 0243 00       		.byte	0
 5017 0244 2F       		.uleb128 0x2f
 5018 0245 05       		.uleb128 0x5
 5019 0246 00       		.byte	0
 5020 0247 03       		.uleb128 0x3
 5021 0248 0E       		.uleb128 0xe
ARM GAS  C:\Users\kuzni\AppData\Local\Temp\ccqUPoDe.s 			page 107


 5022 0249 3A       		.uleb128 0x3a
 5023 024a 0B       		.uleb128 0xb
 5024 024b 3B       		.uleb128 0x3b
 5025 024c 0B       		.uleb128 0xb
 5026 024d 49       		.uleb128 0x49
 5027 024e 13       		.uleb128 0x13
 5028 024f 02       		.uleb128 0x2
 5029 0250 18       		.uleb128 0x18
 5030 0251 00       		.byte	0
 5031 0252 00       		.byte	0
 5032 0253 30       		.uleb128 0x30
 5033 0254 05       		.uleb128 0x5
 5034 0255 00       		.byte	0
 5035 0256 03       		.uleb128 0x3
 5036 0257 08       		.uleb128 0x8
 5037 0258 3A       		.uleb128 0x3a
 5038 0259 0B       		.uleb128 0xb
 5039 025a 3B       		.uleb128 0x3b
 5040 025b 0B       		.uleb128 0xb
 5041 025c 49       		.uleb128 0x49
 5042 025d 13       		.uleb128 0x13
 5043 025e 02       		.uleb128 0x2
 5044 025f 18       		.uleb128 0x18
 5045 0260 00       		.byte	0
 5046 0261 00       		.byte	0
 5047 0262 31       		.uleb128 0x31
 5048 0263 2E       		.uleb128 0x2e
 5049 0264 01       		.byte	0x1
 5050 0265 3F       		.uleb128 0x3f
 5051 0266 19       		.uleb128 0x19
 5052 0267 03       		.uleb128 0x3
 5053 0268 0E       		.uleb128 0xe
 5054 0269 3A       		.uleb128 0x3a
 5055 026a 0B       		.uleb128 0xb
 5056 026b 3B       		.uleb128 0x3b
 5057 026c 05       		.uleb128 0x5
 5058 026d 27       		.uleb128 0x27
 5059 026e 19       		.uleb128 0x19
 5060 026f 49       		.uleb128 0x49
 5061 0270 13       		.uleb128 0x13
 5062 0271 11       		.uleb128 0x11
 5063 0272 01       		.uleb128 0x1
 5064 0273 12       		.uleb128 0x12
 5065 0274 06       		.uleb128 0x6
 5066 0275 40       		.uleb128 0x40
 5067 0276 18       		.uleb128 0x18
 5068 0277 9642     		.uleb128 0x2116
 5069 0279 19       		.uleb128 0x19
 5070 027a 01       		.uleb128 0x1
 5071 027b 13       		.uleb128 0x13
 5072 027c 00       		.byte	0
 5073 027d 00       		.byte	0
 5074 027e 32       		.uleb128 0x32
 5075 027f 05       		.uleb128 0x5
 5076 0280 00       		.byte	0
 5077 0281 03       		.uleb128 0x3
 5078 0282 08       		.uleb128 0x8
ARM GAS  C:\Users\kuzni\AppData\Local\Temp\ccqUPoDe.s 			page 108


 5079 0283 3A       		.uleb128 0x3a
 5080 0284 0B       		.uleb128 0xb
 5081 0285 3B       		.uleb128 0x3b
 5082 0286 05       		.uleb128 0x5
 5083 0287 49       		.uleb128 0x49
 5084 0288 13       		.uleb128 0x13
 5085 0289 02       		.uleb128 0x2
 5086 028a 17       		.uleb128 0x17
 5087 028b 00       		.byte	0
 5088 028c 00       		.byte	0
 5089 028d 33       		.uleb128 0x33
 5090 028e 05       		.uleb128 0x5
 5091 028f 00       		.byte	0
 5092 0290 03       		.uleb128 0x3
 5093 0291 0E       		.uleb128 0xe
 5094 0292 3A       		.uleb128 0x3a
 5095 0293 0B       		.uleb128 0xb
 5096 0294 3B       		.uleb128 0x3b
 5097 0295 05       		.uleb128 0x5
 5098 0296 49       		.uleb128 0x49
 5099 0297 13       		.uleb128 0x13
 5100 0298 02       		.uleb128 0x2
 5101 0299 17       		.uleb128 0x17
 5102 029a 00       		.byte	0
 5103 029b 00       		.byte	0
 5104 029c 34       		.uleb128 0x34
 5105 029d 13       		.uleb128 0x13
 5106 029e 01       		.byte	0x1
 5107 029f 0B       		.uleb128 0xb
 5108 02a0 0B       		.uleb128 0xb
 5109 02a1 3A       		.uleb128 0x3a
 5110 02a2 0B       		.uleb128 0xb
 5111 02a3 3B       		.uleb128 0x3b
 5112 02a4 05       		.uleb128 0x5
 5113 02a5 01       		.uleb128 0x1
 5114 02a6 13       		.uleb128 0x13
 5115 02a7 00       		.byte	0
 5116 02a8 00       		.byte	0
 5117 02a9 35       		.uleb128 0x35
 5118 02aa 0D       		.uleb128 0xd
 5119 02ab 00       		.byte	0
 5120 02ac 03       		.uleb128 0x3
 5121 02ad 0E       		.uleb128 0xe
 5122 02ae 3A       		.uleb128 0x3a
 5123 02af 0B       		.uleb128 0xb
 5124 02b0 3B       		.uleb128 0x3b
 5125 02b1 05       		.uleb128 0x5
 5126 02b2 49       		.uleb128 0x49
 5127 02b3 13       		.uleb128 0x13
 5128 02b4 38       		.uleb128 0x38
 5129 02b5 0B       		.uleb128 0xb
 5130 02b6 00       		.byte	0
 5131 02b7 00       		.byte	0
 5132 02b8 36       		.uleb128 0x36
 5133 02b9 34       		.uleb128 0x34
 5134 02ba 00       		.byte	0
 5135 02bb 03       		.uleb128 0x3
ARM GAS  C:\Users\kuzni\AppData\Local\Temp\ccqUPoDe.s 			page 109


 5136 02bc 08       		.uleb128 0x8
 5137 02bd 3A       		.uleb128 0x3a
 5138 02be 0B       		.uleb128 0xb
 5139 02bf 3B       		.uleb128 0x3b
 5140 02c0 05       		.uleb128 0x5
 5141 02c1 49       		.uleb128 0x49
 5142 02c2 13       		.uleb128 0x13
 5143 02c3 02       		.uleb128 0x2
 5144 02c4 17       		.uleb128 0x17
 5145 02c5 00       		.byte	0
 5146 02c6 00       		.byte	0
 5147 02c7 37       		.uleb128 0x37
 5148 02c8 34       		.uleb128 0x34
 5149 02c9 00       		.byte	0
 5150 02ca 03       		.uleb128 0x3
 5151 02cb 0E       		.uleb128 0xe
 5152 02cc 3A       		.uleb128 0x3a
 5153 02cd 0B       		.uleb128 0xb
 5154 02ce 3B       		.uleb128 0x3b
 5155 02cf 05       		.uleb128 0x5
 5156 02d0 49       		.uleb128 0x49
 5157 02d1 13       		.uleb128 0x13
 5158 02d2 02       		.uleb128 0x2
 5159 02d3 17       		.uleb128 0x17
 5160 02d4 00       		.byte	0
 5161 02d5 00       		.byte	0
 5162 02d6 38       		.uleb128 0x38
 5163 02d7 1D       		.uleb128 0x1d
 5164 02d8 01       		.byte	0x1
 5165 02d9 31       		.uleb128 0x31
 5166 02da 13       		.uleb128 0x13
 5167 02db 11       		.uleb128 0x11
 5168 02dc 01       		.uleb128 0x1
 5169 02dd 12       		.uleb128 0x12
 5170 02de 06       		.uleb128 0x6
 5171 02df 58       		.uleb128 0x58
 5172 02e0 0B       		.uleb128 0xb
 5173 02e1 59       		.uleb128 0x59
 5174 02e2 05       		.uleb128 0x5
 5175 02e3 00       		.byte	0
 5176 02e4 00       		.byte	0
 5177 02e5 39       		.uleb128 0x39
 5178 02e6 34       		.uleb128 0x34
 5179 02e7 00       		.byte	0
 5180 02e8 31       		.uleb128 0x31
 5181 02e9 13       		.uleb128 0x13
 5182 02ea 00       		.byte	0
 5183 02eb 00       		.byte	0
 5184 02ec 3A       		.uleb128 0x3a
 5185 02ed 2E       		.uleb128 0x2e
 5186 02ee 01       		.byte	0x1
 5187 02ef 3F       		.uleb128 0x3f
 5188 02f0 19       		.uleb128 0x19
 5189 02f1 03       		.uleb128 0x3
 5190 02f2 0E       		.uleb128 0xe
 5191 02f3 3A       		.uleb128 0x3a
 5192 02f4 0B       		.uleb128 0xb
ARM GAS  C:\Users\kuzni\AppData\Local\Temp\ccqUPoDe.s 			page 110


 5193 02f5 3B       		.uleb128 0x3b
 5194 02f6 05       		.uleb128 0x5
 5195 02f7 27       		.uleb128 0x27
 5196 02f8 19       		.uleb128 0x19
 5197 02f9 49       		.uleb128 0x49
 5198 02fa 13       		.uleb128 0x13
 5199 02fb 11       		.uleb128 0x11
 5200 02fc 01       		.uleb128 0x1
 5201 02fd 12       		.uleb128 0x12
 5202 02fe 06       		.uleb128 0x6
 5203 02ff 40       		.uleb128 0x40
 5204 0300 18       		.uleb128 0x18
 5205 0301 9742     		.uleb128 0x2117
 5206 0303 19       		.uleb128 0x19
 5207 0304 01       		.uleb128 0x1
 5208 0305 13       		.uleb128 0x13
 5209 0306 00       		.byte	0
 5210 0307 00       		.byte	0
 5211 0308 3B       		.uleb128 0x3b
 5212 0309 05       		.uleb128 0x5
 5213 030a 00       		.byte	0
 5214 030b 03       		.uleb128 0x3
 5215 030c 08       		.uleb128 0x8
 5216 030d 3A       		.uleb128 0x3a
 5217 030e 0B       		.uleb128 0xb
 5218 030f 3B       		.uleb128 0x3b
 5219 0310 05       		.uleb128 0x5
 5220 0311 49       		.uleb128 0x49
 5221 0312 13       		.uleb128 0x13
 5222 0313 02       		.uleb128 0x2
 5223 0314 18       		.uleb128 0x18
 5224 0315 00       		.byte	0
 5225 0316 00       		.byte	0
 5226 0317 3C       		.uleb128 0x3c
 5227 0318 05       		.uleb128 0x5
 5228 0319 00       		.byte	0
 5229 031a 03       		.uleb128 0x3
 5230 031b 0E       		.uleb128 0xe
 5231 031c 3A       		.uleb128 0x3a
 5232 031d 0B       		.uleb128 0xb
 5233 031e 3B       		.uleb128 0x3b
 5234 031f 05       		.uleb128 0x5
 5235 0320 49       		.uleb128 0x49
 5236 0321 13       		.uleb128 0x13
 5237 0322 02       		.uleb128 0x2
 5238 0323 18       		.uleb128 0x18
 5239 0324 00       		.byte	0
 5240 0325 00       		.byte	0
 5241 0326 3D       		.uleb128 0x3d
 5242 0327 21       		.uleb128 0x21
 5243 0328 00       		.byte	0
 5244 0329 49       		.uleb128 0x49
 5245 032a 13       		.uleb128 0x13
 5246 032b 2F       		.uleb128 0x2f
 5247 032c 05       		.uleb128 0x5
 5248 032d 00       		.byte	0
 5249 032e 00       		.byte	0
ARM GAS  C:\Users\kuzni\AppData\Local\Temp\ccqUPoDe.s 			page 111


 5250 032f 3E       		.uleb128 0x3e
 5251 0330 2E       		.uleb128 0x2e
 5252 0331 01       		.byte	0x1
 5253 0332 3F       		.uleb128 0x3f
 5254 0333 19       		.uleb128 0x19
 5255 0334 03       		.uleb128 0x3
 5256 0335 0E       		.uleb128 0xe
 5257 0336 3A       		.uleb128 0x3a
 5258 0337 0B       		.uleb128 0xb
 5259 0338 3B       		.uleb128 0x3b
 5260 0339 0B       		.uleb128 0xb
 5261 033a 27       		.uleb128 0x27
 5262 033b 19       		.uleb128 0x19
 5263 033c 49       		.uleb128 0x49
 5264 033d 13       		.uleb128 0x13
 5265 033e 3C       		.uleb128 0x3c
 5266 033f 19       		.uleb128 0x19
 5267 0340 01       		.uleb128 0x1
 5268 0341 13       		.uleb128 0x13
 5269 0342 00       		.byte	0
 5270 0343 00       		.byte	0
 5271 0344 3F       		.uleb128 0x3f
 5272 0345 05       		.uleb128 0x5
 5273 0346 00       		.byte	0
 5274 0347 49       		.uleb128 0x49
 5275 0348 13       		.uleb128 0x13
 5276 0349 00       		.byte	0
 5277 034a 00       		.byte	0
 5278 034b 40       		.uleb128 0x40
 5279 034c 2E       		.uleb128 0x2e
 5280 034d 01       		.byte	0x1
 5281 034e 3F       		.uleb128 0x3f
 5282 034f 19       		.uleb128 0x19
 5283 0350 03       		.uleb128 0x3
 5284 0351 0E       		.uleb128 0xe
 5285 0352 3A       		.uleb128 0x3a
 5286 0353 0B       		.uleb128 0xb
 5287 0354 3B       		.uleb128 0x3b
 5288 0355 0B       		.uleb128 0xb
 5289 0356 27       		.uleb128 0x27
 5290 0357 19       		.uleb128 0x19
 5291 0358 49       		.uleb128 0x49
 5292 0359 13       		.uleb128 0x13
 5293 035a 3C       		.uleb128 0x3c
 5294 035b 19       		.uleb128 0x19
 5295 035c 00       		.byte	0
 5296 035d 00       		.byte	0
 5297 035e 41       		.uleb128 0x41
 5298 035f 18       		.uleb128 0x18
 5299 0360 00       		.byte	0
 5300 0361 00       		.byte	0
 5301 0362 00       		.byte	0
 5302 0363 00       		.byte	0
 5303              		.section	.debug_loc,"",%progbits
 5304              	.Ldebug_loc0:
 5305              	.LLST0:
 5306 0000 00000000 		.4byte	.LVL0
ARM GAS  C:\Users\kuzni\AppData\Local\Temp\ccqUPoDe.s 			page 112


 5307 0004 88000000 		.4byte	.LVL17
 5308 0008 0100     		.2byte	0x1
 5309 000a 50       		.byte	0x50
 5310 000b 88000000 		.4byte	.LVL17
 5311 000f CA000000 		.4byte	.LVL29
 5312 0013 0300     		.2byte	0x3
 5313 0015 91       		.byte	0x91
 5314 0016 AC7F     		.sleb128 -84
 5315 0018 CA000000 		.4byte	.LVL29
 5316 001c 9C030000 		.4byte	.LVL154
 5317 0020 0400     		.2byte	0x4
 5318 0022 F3       		.byte	0xf3
 5319 0023 01       		.uleb128 0x1
 5320 0024 50       		.byte	0x50
 5321 0025 9F       		.byte	0x9f
 5322 0026 9C030000 		.4byte	.LVL154
 5323 002a 08080000 		.4byte	.LVL311
 5324 002e 0300     		.2byte	0x3
 5325 0030 91       		.byte	0x91
 5326 0031 AC7F     		.sleb128 -84
 5327 0033 08080000 		.4byte	.LVL311
 5328 0037 0A080000 		.4byte	.LVL312
 5329 003b 0100     		.2byte	0x1
 5330 003d 50       		.byte	0x50
 5331 003e 0A080000 		.4byte	.LVL312
 5332 0042 0C080000 		.4byte	.LVL313
 5333 0046 0300     		.2byte	0x3
 5334 0048 91       		.byte	0x91
 5335 0049 AC7F     		.sleb128 -84
 5336 004b 0C080000 		.4byte	.LVL313
 5337 004f 0E080000 		.4byte	.LVL314
 5338 0053 0100     		.2byte	0x1
 5339 0055 50       		.byte	0x50
 5340 0056 0E080000 		.4byte	.LVL314
 5341 005a 10080000 		.4byte	.LVL315
 5342 005e 0300     		.2byte	0x3
 5343 0060 91       		.byte	0x91
 5344 0061 AC7F     		.sleb128 -84
 5345 0063 10080000 		.4byte	.LVL315
 5346 0067 12080000 		.4byte	.LVL316
 5347 006b 0100     		.2byte	0x1
 5348 006d 50       		.byte	0x50
 5349 006e 12080000 		.4byte	.LVL316
 5350 0072 14080000 		.4byte	.LVL317
 5351 0076 0300     		.2byte	0x3
 5352 0078 91       		.byte	0x91
 5353 0079 AC7F     		.sleb128 -84
 5354 007b 14080000 		.4byte	.LVL317
 5355 007f 16080000 		.4byte	.LVL318
 5356 0083 0100     		.2byte	0x1
 5357 0085 50       		.byte	0x50
 5358 0086 16080000 		.4byte	.LVL318
 5359 008a 18080000 		.4byte	.LVL319
 5360 008e 0300     		.2byte	0x3
 5361 0090 91       		.byte	0x91
 5362 0091 AC7F     		.sleb128 -84
 5363 0093 18080000 		.4byte	.LVL319
ARM GAS  C:\Users\kuzni\AppData\Local\Temp\ccqUPoDe.s 			page 113


 5364 0097 1A080000 		.4byte	.LVL320
 5365 009b 0100     		.2byte	0x1
 5366 009d 50       		.byte	0x50
 5367 009e 1A080000 		.4byte	.LVL320
 5368 00a2 1C080000 		.4byte	.LVL321
 5369 00a6 0300     		.2byte	0x3
 5370 00a8 91       		.byte	0x91
 5371 00a9 AC7F     		.sleb128 -84
 5372 00ab 1C080000 		.4byte	.LVL321
 5373 00af 1E080000 		.4byte	.LVL322
 5374 00b3 0100     		.2byte	0x1
 5375 00b5 50       		.byte	0x50
 5376 00b6 1E080000 		.4byte	.LVL322
 5377 00ba 2C080000 		.4byte	.LFE6
 5378 00be 0400     		.2byte	0x4
 5379 00c0 F3       		.byte	0xf3
 5380 00c1 01       		.uleb128 0x1
 5381 00c2 50       		.byte	0x50
 5382 00c3 9F       		.byte	0x9f
 5383 00c4 00000000 		.4byte	0
 5384 00c8 00000000 		.4byte	0
 5385              	.LLST1:
 5386 00cc 00000000 		.4byte	.LVL0
 5387 00d0 8A000000 		.4byte	.LVL18
 5388 00d4 0100     		.2byte	0x1
 5389 00d6 51       		.byte	0x51
 5390 00d7 8A000000 		.4byte	.LVL18
 5391 00db 08080000 		.4byte	.LVL311
 5392 00df 0200     		.2byte	0x2
 5393 00e1 7D       		.byte	0x7d
 5394 00e2 00       		.sleb128 0
 5395 00e3 08080000 		.4byte	.LVL311
 5396 00e7 1E080000 		.4byte	.LVL322
 5397 00eb 0100     		.2byte	0x1
 5398 00ed 51       		.byte	0x51
 5399 00ee 1E080000 		.4byte	.LVL322
 5400 00f2 20080000 		.4byte	.LVL323
 5401 00f6 0200     		.2byte	0x2
 5402 00f8 7D       		.byte	0x7d
 5403 00f9 00       		.sleb128 0
 5404 00fa 20080000 		.4byte	.LVL323
 5405 00fe 24080000 		.4byte	.LVL324
 5406 0102 0300     		.2byte	0x3
 5407 0104 91       		.byte	0x91
 5408 0105 987F     		.sleb128 -104
 5409 0107 24080000 		.4byte	.LVL324
 5410 010b 2C080000 		.4byte	.LFE6
 5411 010f 0300     		.2byte	0x3
 5412 0111 7D       		.byte	0x7d
 5413 0112 987F     		.sleb128 -104
 5414 0114 00000000 		.4byte	0
 5415 0118 00000000 		.4byte	0
 5416              	.LLST2:
 5417 011c 00000000 		.4byte	.LVL0
 5418 0120 22000000 		.4byte	.LVL2
 5419 0124 0100     		.2byte	0x1
 5420 0126 52       		.byte	0x52
ARM GAS  C:\Users\kuzni\AppData\Local\Temp\ccqUPoDe.s 			page 114


 5421 0127 22000000 		.4byte	.LVL2
 5422 012b 24000000 		.4byte	.LVL3
 5423 012f 0300     		.2byte	0x3
 5424 0131 91       		.byte	0x91
 5425 0132 9C7F     		.sleb128 -100
 5426 0134 24000000 		.4byte	.LVL3
 5427 0138 26000000 		.4byte	.LVL4
 5428 013c 0100     		.2byte	0x1
 5429 013e 52       		.byte	0x52
 5430 013f 26000000 		.4byte	.LVL4
 5431 0143 28000000 		.4byte	.LVL5
 5432 0147 0300     		.2byte	0x3
 5433 0149 91       		.byte	0x91
 5434 014a 9C7F     		.sleb128 -100
 5435 014c 28000000 		.4byte	.LVL5
 5436 0150 2A000000 		.4byte	.LVL6
 5437 0154 0100     		.2byte	0x1
 5438 0156 52       		.byte	0x52
 5439 0157 2A000000 		.4byte	.LVL6
 5440 015b 2C000000 		.4byte	.LVL7
 5441 015f 0300     		.2byte	0x3
 5442 0161 91       		.byte	0x91
 5443 0162 9C7F     		.sleb128 -100
 5444 0164 2C000000 		.4byte	.LVL7
 5445 0168 2E000000 		.4byte	.LVL8
 5446 016c 0100     		.2byte	0x1
 5447 016e 52       		.byte	0x52
 5448 016f 2E000000 		.4byte	.LVL8
 5449 0173 30000000 		.4byte	.LVL9
 5450 0177 0300     		.2byte	0x3
 5451 0179 91       		.byte	0x91
 5452 017a 9C7F     		.sleb128 -100
 5453 017c 30000000 		.4byte	.LVL9
 5454 0180 32000000 		.4byte	.LVL10
 5455 0184 0100     		.2byte	0x1
 5456 0186 52       		.byte	0x52
 5457 0187 32000000 		.4byte	.LVL10
 5458 018b CA000000 		.4byte	.LVL29
 5459 018f 0300     		.2byte	0x3
 5460 0191 91       		.byte	0x91
 5461 0192 9C7F     		.sleb128 -100
 5462 0194 CA000000 		.4byte	.LVL29
 5463 0198 9C030000 		.4byte	.LVL154
 5464 019c 0400     		.2byte	0x4
 5465 019e F3       		.byte	0xf3
 5466 019f 01       		.uleb128 0x1
 5467 01a0 52       		.byte	0x52
 5468 01a1 9F       		.byte	0x9f
 5469 01a2 9C030000 		.4byte	.LVL154
 5470 01a6 1E080000 		.4byte	.LVL322
 5471 01aa 0300     		.2byte	0x3
 5472 01ac 91       		.byte	0x91
 5473 01ad 9C7F     		.sleb128 -100
 5474 01af 1E080000 		.4byte	.LVL322
 5475 01b3 2C080000 		.4byte	.LFE6
 5476 01b7 0400     		.2byte	0x4
 5477 01b9 F3       		.byte	0xf3
ARM GAS  C:\Users\kuzni\AppData\Local\Temp\ccqUPoDe.s 			page 115


 5478 01ba 01       		.uleb128 0x1
 5479 01bb 52       		.byte	0x52
 5480 01bc 9F       		.byte	0x9f
 5481 01bd 00000000 		.4byte	0
 5482 01c1 00000000 		.4byte	0
 5483              	.LLST3:
 5484 01c5 00000000 		.4byte	.LVL0
 5485 01c9 12000000 		.4byte	.LVL1
 5486 01cd 0100     		.2byte	0x1
 5487 01cf 53       		.byte	0x53
 5488 01d0 12000000 		.4byte	.LVL1
 5489 01d4 24080000 		.4byte	.LVL324
 5490 01d8 0300     		.2byte	0x3
 5491 01da 91       		.byte	0x91
 5492 01db A47F     		.sleb128 -92
 5493 01dd 24080000 		.4byte	.LVL324
 5494 01e1 2C080000 		.4byte	.LFE6
 5495 01e5 0300     		.2byte	0x3
 5496 01e7 7D       		.byte	0x7d
 5497 01e8 A47F     		.sleb128 -92
 5498 01ea 00000000 		.4byte	0
 5499 01ee 00000000 		.4byte	0
 5500              	.LLST4:
 5501 01f2 00000000 		.4byte	.LVL0
 5502 01f6 24080000 		.4byte	.LVL324
 5503 01fa 0200     		.2byte	0x2
 5504 01fc 91       		.byte	0x91
 5505 01fd 00       		.sleb128 0
 5506 01fe 24080000 		.4byte	.LVL324
 5507 0202 2C080000 		.4byte	.LFE6
 5508 0206 0200     		.2byte	0x2
 5509 0208 7D       		.byte	0x7d
 5510 0209 00       		.sleb128 0
 5511 020a 00000000 		.4byte	0
 5512 020e 00000000 		.4byte	0
 5513              	.LLST5:
 5514 0212 00000000 		.4byte	.LVL0
 5515 0216 24080000 		.4byte	.LVL324
 5516 021a 0200     		.2byte	0x2
 5517 021c 91       		.byte	0x91
 5518 021d 04       		.sleb128 4
 5519 021e 24080000 		.4byte	.LVL324
 5520 0222 2C080000 		.4byte	.LFE6
 5521 0226 0200     		.2byte	0x2
 5522 0228 7D       		.byte	0x7d
 5523 0229 04       		.sleb128 4
 5524 022a 00000000 		.4byte	0
 5525 022e 00000000 		.4byte	0
 5526              	.LLST6:
 5527 0232 00000000 		.4byte	.LVL0
 5528 0236 24080000 		.4byte	.LVL324
 5529 023a 0200     		.2byte	0x2
 5530 023c 91       		.byte	0x91
 5531 023d 08       		.sleb128 8
 5532 023e 24080000 		.4byte	.LVL324
 5533 0242 2C080000 		.4byte	.LFE6
 5534 0246 0200     		.2byte	0x2
ARM GAS  C:\Users\kuzni\AppData\Local\Temp\ccqUPoDe.s 			page 116


 5535 0248 7D       		.byte	0x7d
 5536 0249 08       		.sleb128 8
 5537 024a 00000000 		.4byte	0
 5538 024e 00000000 		.4byte	0
 5539              	.LLST7:
 5540 0252 00000000 		.4byte	.LVL0
 5541 0256 24080000 		.4byte	.LVL324
 5542 025a 0200     		.2byte	0x2
 5543 025c 91       		.byte	0x91
 5544 025d 0C       		.sleb128 12
 5545 025e 24080000 		.4byte	.LVL324
 5546 0262 2C080000 		.4byte	.LFE6
 5547 0266 0200     		.2byte	0x2
 5548 0268 7D       		.byte	0x7d
 5549 0269 0C       		.sleb128 12
 5550 026a 00000000 		.4byte	0
 5551 026e 00000000 		.4byte	0
 5552              	.LLST8:
 5553 0272 00000000 		.4byte	.LVL0
 5554 0276 24080000 		.4byte	.LVL324
 5555 027a 0200     		.2byte	0x2
 5556 027c 91       		.byte	0x91
 5557 027d 10       		.sleb128 16
 5558 027e 24080000 		.4byte	.LVL324
 5559 0282 2C080000 		.4byte	.LFE6
 5560 0286 0200     		.2byte	0x2
 5561 0288 7D       		.byte	0x7d
 5562 0289 10       		.sleb128 16
 5563 028a 00000000 		.4byte	0
 5564 028e 00000000 		.4byte	0
 5565              	.LLST9:
 5566 0292 00000000 		.4byte	.LVL0
 5567 0296 24080000 		.4byte	.LVL324
 5568 029a 0200     		.2byte	0x2
 5569 029c 91       		.byte	0x91
 5570 029d 14       		.sleb128 20
 5571 029e 24080000 		.4byte	.LVL324
 5572 02a2 2C080000 		.4byte	.LFE6
 5573 02a6 0200     		.2byte	0x2
 5574 02a8 7D       		.byte	0x7d
 5575 02a9 14       		.sleb128 20
 5576 02aa 00000000 		.4byte	0
 5577 02ae 00000000 		.4byte	0
 5578              	.LLST10:
 5579 02b2 00000000 		.4byte	.LVL0
 5580 02b6 24080000 		.4byte	.LVL324
 5581 02ba 0200     		.2byte	0x2
 5582 02bc 91       		.byte	0x91
 5583 02bd 18       		.sleb128 24
 5584 02be 24080000 		.4byte	.LVL324
 5585 02c2 2C080000 		.4byte	.LFE6
 5586 02c6 0200     		.2byte	0x2
 5587 02c8 7D       		.byte	0x7d
 5588 02c9 18       		.sleb128 24
 5589 02ca 00000000 		.4byte	0
 5590 02ce 00000000 		.4byte	0
 5591              	.LLST11:
ARM GAS  C:\Users\kuzni\AppData\Local\Temp\ccqUPoDe.s 			page 117


 5592 02d2 00000000 		.4byte	.LVL0
 5593 02d6 24080000 		.4byte	.LVL324
 5594 02da 0200     		.2byte	0x2
 5595 02dc 91       		.byte	0x91
 5596 02dd 1C       		.sleb128 28
 5597 02de 24080000 		.4byte	.LVL324
 5598 02e2 2C080000 		.4byte	.LFE6
 5599 02e6 0200     		.2byte	0x2
 5600 02e8 7D       		.byte	0x7d
 5601 02e9 1C       		.sleb128 28
 5602 02ea 00000000 		.4byte	0
 5603 02ee 00000000 		.4byte	0
 5604              	.LLST12:
 5605 02f2 00000000 		.4byte	.LVL0
 5606 02f6 24080000 		.4byte	.LVL324
 5607 02fa 0200     		.2byte	0x2
 5608 02fc 91       		.byte	0x91
 5609 02fd 20       		.sleb128 32
 5610 02fe 24080000 		.4byte	.LVL324
 5611 0302 2C080000 		.4byte	.LFE6
 5612 0306 0200     		.2byte	0x2
 5613 0308 7D       		.byte	0x7d
 5614 0309 20       		.sleb128 32
 5615 030a 00000000 		.4byte	0
 5616 030e 00000000 		.4byte	0
 5617              	.LLST13:
 5618 0312 00000000 		.4byte	.LVL0
 5619 0316 24080000 		.4byte	.LVL324
 5620 031a 0200     		.2byte	0x2
 5621 031c 91       		.byte	0x91
 5622 031d 24       		.sleb128 36
 5623 031e 24080000 		.4byte	.LVL324
 5624 0322 2C080000 		.4byte	.LFE6
 5625 0326 0200     		.2byte	0x2
 5626 0328 7D       		.byte	0x7d
 5627 0329 24       		.sleb128 36
 5628 032a 00000000 		.4byte	0
 5629 032e 00000000 		.4byte	0
 5630              	.LLST14:
 5631 0332 00000000 		.4byte	.LVL0
 5632 0336 24080000 		.4byte	.LVL324
 5633 033a 0200     		.2byte	0x2
 5634 033c 91       		.byte	0x91
 5635 033d 28       		.sleb128 40
 5636 033e 24080000 		.4byte	.LVL324
 5637 0342 2C080000 		.4byte	.LFE6
 5638 0346 0200     		.2byte	0x2
 5639 0348 7D       		.byte	0x7d
 5640 0349 28       		.sleb128 40
 5641 034a 00000000 		.4byte	0
 5642 034e 00000000 		.4byte	0
 5643              	.LLST15:
 5644 0352 00000000 		.4byte	.LVL0
 5645 0356 24080000 		.4byte	.LVL324
 5646 035a 0200     		.2byte	0x2
 5647 035c 91       		.byte	0x91
 5648 035d 2C       		.sleb128 44
ARM GAS  C:\Users\kuzni\AppData\Local\Temp\ccqUPoDe.s 			page 118


 5649 035e 24080000 		.4byte	.LVL324
 5650 0362 2C080000 		.4byte	.LFE6
 5651 0366 0200     		.2byte	0x2
 5652 0368 7D       		.byte	0x7d
 5653 0369 2C       		.sleb128 44
 5654 036a 00000000 		.4byte	0
 5655 036e 00000000 		.4byte	0
 5656              	.LLST16:
 5657 0372 00000000 		.4byte	.LVL0
 5658 0376 24080000 		.4byte	.LVL324
 5659 037a 0200     		.2byte	0x2
 5660 037c 91       		.byte	0x91
 5661 037d 30       		.sleb128 48
 5662 037e 24080000 		.4byte	.LVL324
 5663 0382 2C080000 		.4byte	.LFE6
 5664 0386 0200     		.2byte	0x2
 5665 0388 7D       		.byte	0x7d
 5666 0389 30       		.sleb128 48
 5667 038a 00000000 		.4byte	0
 5668 038e 00000000 		.4byte	0
 5669              	.LLST17:
 5670 0392 00000000 		.4byte	.LVL0
 5671 0396 24080000 		.4byte	.LVL324
 5672 039a 0200     		.2byte	0x2
 5673 039c 91       		.byte	0x91
 5674 039d 34       		.sleb128 52
 5675 039e 24080000 		.4byte	.LVL324
 5676 03a2 2C080000 		.4byte	.LFE6
 5677 03a6 0200     		.2byte	0x2
 5678 03a8 7D       		.byte	0x7d
 5679 03a9 34       		.sleb128 52
 5680 03aa 00000000 		.4byte	0
 5681 03ae 00000000 		.4byte	0
 5682              	.LLST18:
 5683 03b2 00000000 		.4byte	.LVL0
 5684 03b6 24080000 		.4byte	.LVL324
 5685 03ba 0200     		.2byte	0x2
 5686 03bc 91       		.byte	0x91
 5687 03bd 38       		.sleb128 56
 5688 03be 24080000 		.4byte	.LVL324
 5689 03c2 2C080000 		.4byte	.LFE6
 5690 03c6 0200     		.2byte	0x2
 5691 03c8 7D       		.byte	0x7d
 5692 03c9 38       		.sleb128 56
 5693 03ca 00000000 		.4byte	0
 5694 03ce 00000000 		.4byte	0
 5695              	.LLST19:
 5696 03d2 00000000 		.4byte	.LVL0
 5697 03d6 24080000 		.4byte	.LVL324
 5698 03da 0200     		.2byte	0x2
 5699 03dc 91       		.byte	0x91
 5700 03dd 3C       		.sleb128 60
 5701 03de 24080000 		.4byte	.LVL324
 5702 03e2 2C080000 		.4byte	.LFE6
 5703 03e6 0200     		.2byte	0x2
 5704 03e8 7D       		.byte	0x7d
 5705 03e9 3C       		.sleb128 60
ARM GAS  C:\Users\kuzni\AppData\Local\Temp\ccqUPoDe.s 			page 119


 5706 03ea 00000000 		.4byte	0
 5707 03ee 00000000 		.4byte	0
 5708              	.LLST20:
 5709 03f2 00000000 		.4byte	.LVL0
 5710 03f6 24080000 		.4byte	.LVL324
 5711 03fa 0300     		.2byte	0x3
 5712 03fc 91       		.byte	0x91
 5713 03fd C000     		.sleb128 64
 5714 03ff 24080000 		.4byte	.LVL324
 5715 0403 2C080000 		.4byte	.LFE6
 5716 0407 0300     		.2byte	0x3
 5717 0409 7D       		.byte	0x7d
 5718 040a C000     		.sleb128 64
 5719 040c 00000000 		.4byte	0
 5720 0410 00000000 		.4byte	0
 5721              	.LLST21:
 5722 0414 32000000 		.4byte	.LVL10
 5723 0418 78000000 		.4byte	.LVL13
 5724 041c 0100     		.2byte	0x1
 5725 041e 52       		.byte	0x52
 5726 041f 08080000 		.4byte	.LVL311
 5727 0423 1E080000 		.4byte	.LVL322
 5728 0427 0100     		.2byte	0x1
 5729 0429 52       		.byte	0x52
 5730 042a 00000000 		.4byte	0
 5731 042e 00000000 		.4byte	0
 5732              	.LLST22:
 5733 0432 50000000 		.4byte	.LVL11
 5734 0436 C4000000 		.4byte	.LVL26
 5735 043a 0100     		.2byte	0x1
 5736 043c 5B       		.byte	0x5b
 5737 043d C4000000 		.4byte	.LVL26
 5738 0441 C6000000 		.4byte	.LVL27
 5739 0445 0700     		.2byte	0x7
 5740 0447 91       		.byte	0x91
 5741 0448 04       		.sleb128 4
 5742 0449 06       		.byte	0x6
 5743 044a 77       		.byte	0x77
 5744 044b 00       		.sleb128 0
 5745 044c 1E       		.byte	0x1e
 5746 044d 9F       		.byte	0x9f
 5747 044e C6000000 		.4byte	.LVL27
 5748 0452 9C030000 		.4byte	.LVL154
 5749 0456 0800     		.2byte	0x8
 5750 0458 91       		.byte	0x91
 5751 0459 04       		.sleb128 4
 5752 045a 06       		.byte	0x6
 5753 045b 91       		.byte	0x91
 5754 045c 00       		.sleb128 0
 5755 045d 06       		.byte	0x6
 5756 045e 1E       		.byte	0x1e
 5757 045f 9F       		.byte	0x9f
 5758 0460 9C030000 		.4byte	.LVL154
 5759 0464 E8030000 		.4byte	.LVL167
 5760 0468 0100     		.2byte	0x1
 5761 046a 5B       		.byte	0x5b
 5762 046b E8030000 		.4byte	.LVL167
ARM GAS  C:\Users\kuzni\AppData\Local\Temp\ccqUPoDe.s 			page 120


 5763 046f 08080000 		.4byte	.LVL311
 5764 0473 0100     		.2byte	0x1
 5765 0475 59       		.byte	0x59
 5766 0476 14080000 		.4byte	.LVL317
 5767 047a 1E080000 		.4byte	.LVL322
 5768 047e 0100     		.2byte	0x1
 5769 0480 5B       		.byte	0x5b
 5770 0481 00000000 		.4byte	0
 5771 0485 00000000 		.4byte	0
 5772              	.LLST23:
 5773 0489 76000000 		.4byte	.LVL12
 5774 048d 7E020000 		.4byte	.LVL102
 5775 0491 0100     		.2byte	0x1
 5776 0493 59       		.byte	0x59
 5777 0494 7E020000 		.4byte	.LVL102
 5778 0498 FC020000 		.4byte	.LVL128
 5779 049c 0100     		.2byte	0x1
 5780 049e 56       		.byte	0x56
 5781 049f FC020000 		.4byte	.LVL128
 5782 04a3 E0030000 		.4byte	.LVL166
 5783 04a7 0100     		.2byte	0x1
 5784 04a9 59       		.byte	0x59
 5785 04aa E0030000 		.4byte	.LVL166
 5786 04ae 08080000 		.4byte	.LVL311
 5787 04b2 0300     		.2byte	0x3
 5788 04b4 91       		.byte	0x91
 5789 04b5 A07F     		.sleb128 -96
 5790 04b7 00000000 		.4byte	0
 5791 04bb 00000000 		.4byte	0
 5792              	.LLST24:
 5793 04bf 7C000000 		.4byte	.LVL14
 5794 04c3 82000000 		.4byte	.LVL15
 5795 04c7 0100     		.2byte	0x1
 5796 04c9 53       		.byte	0x53
 5797 04ca 82000000 		.4byte	.LVL15
 5798 04ce CA000000 		.4byte	.LVL29
 5799 04d2 0300     		.2byte	0x3
 5800 04d4 91       		.byte	0x91
 5801 04d5 B87F     		.sleb128 -72
 5802 04d7 9C030000 		.4byte	.LVL154
 5803 04db 08080000 		.4byte	.LVL311
 5804 04df 0300     		.2byte	0x3
 5805 04e1 91       		.byte	0x91
 5806 04e2 B87F     		.sleb128 -72
 5807 04e4 00000000 		.4byte	0
 5808 04e8 00000000 		.4byte	0
 5809              	.LLST25:
 5810 04ec 84000000 		.4byte	.LVL16
 5811 04f0 8D000000 		.4byte	.LVL19-1
 5812 04f4 0100     		.2byte	0x1
 5813 04f6 53       		.byte	0x53
 5814 04f7 8D000000 		.4byte	.LVL19-1
 5815 04fb 56020000 		.4byte	.LVL95
 5816 04ff 0300     		.2byte	0x3
 5817 0501 91       		.byte	0x91
 5818 0502 A87F     		.sleb128 -88
 5819 0504 56020000 		.4byte	.LVL95
ARM GAS  C:\Users\kuzni\AppData\Local\Temp\ccqUPoDe.s 			page 121


 5820 0508 58020000 		.4byte	.LVL96
 5821 050c 0100     		.2byte	0x1
 5822 050e 53       		.byte	0x53
 5823 050f 58020000 		.4byte	.LVL96
 5824 0513 7E030000 		.4byte	.LVL151
 5825 0517 0300     		.2byte	0x3
 5826 0519 91       		.byte	0x91
 5827 051a A87F     		.sleb128 -88
 5828 051c 7E030000 		.4byte	.LVL151
 5829 0520 84030000 		.4byte	.LVL153
 5830 0524 0100     		.2byte	0x1
 5831 0526 53       		.byte	0x53
 5832 0527 84030000 		.4byte	.LVL153
 5833 052b 78060000 		.4byte	.LVL245
 5834 052f 0300     		.2byte	0x3
 5835 0531 91       		.byte	0x91
 5836 0532 A87F     		.sleb128 -88
 5837 0534 78060000 		.4byte	.LVL245
 5838 0538 80060000 		.4byte	.LVL248
 5839 053c 0100     		.2byte	0x1
 5840 053e 53       		.byte	0x53
 5841 053f 80060000 		.4byte	.LVL248
 5842 0543 94060000 		.4byte	.LVL250
 5843 0547 0300     		.2byte	0x3
 5844 0549 91       		.byte	0x91
 5845 054a A87F     		.sleb128 -88
 5846 054c 94060000 		.4byte	.LVL250
 5847 0550 C8070000 		.4byte	.LVL306
 5848 0554 0100     		.2byte	0x1
 5849 0556 57       		.byte	0x57
 5850 0557 C8070000 		.4byte	.LVL306
 5851 055b D2070000 		.4byte	.LVL307
 5852 055f 0300     		.2byte	0x3
 5853 0561 91       		.byte	0x91
 5854 0562 A87F     		.sleb128 -88
 5855 0564 D2070000 		.4byte	.LVL307
 5856 0568 E0070000 		.4byte	.LVL308
 5857 056c 0100     		.2byte	0x1
 5858 056e 57       		.byte	0x57
 5859 056f E0070000 		.4byte	.LVL308
 5860 0573 08080000 		.4byte	.LVL311
 5861 0577 0300     		.2byte	0x3
 5862 0579 91       		.byte	0x91
 5863 057a A87F     		.sleb128 -88
 5864 057c 00000000 		.4byte	0
 5865 0580 00000000 		.4byte	0
 5866              	.LLST26:
 5867 0584 84000000 		.4byte	.LVL16
 5868 0588 08080000 		.4byte	.LVL311
 5869 058c 0200     		.2byte	0x2
 5870 058e 91       		.byte	0x91
 5871 058f 3C       		.sleb128 60
 5872 0590 00000000 		.4byte	0
 5873 0594 00000000 		.4byte	0
 5874              	.LLST27:
 5875 0598 90000000 		.4byte	.LVL20
 5876 059c 92000000 		.4byte	.LVL21
ARM GAS  C:\Users\kuzni\AppData\Local\Temp\ccqUPoDe.s 			page 122


 5877 05a0 0100     		.2byte	0x1
 5878 05a2 50       		.byte	0x50
 5879 05a3 92000000 		.4byte	.LVL21
 5880 05a7 08080000 		.4byte	.LVL311
 5881 05ab 0300     		.2byte	0x3
 5882 05ad 91       		.byte	0x91
 5883 05ae B07F     		.sleb128 -80
 5884 05b0 00000000 		.4byte	0
 5885 05b4 00000000 		.4byte	0
 5886              	.LLST28:
 5887 05b8 90000000 		.4byte	.LVL20
 5888 05bc 92000000 		.4byte	.LVL21
 5889 05c0 0200     		.2byte	0x2
 5890 05c2 30       		.byte	0x30
 5891 05c3 9F       		.byte	0x9f
 5892 05c4 92000000 		.4byte	.LVL21
 5893 05c8 CA000000 		.4byte	.LVL29
 5894 05cc 0100     		.2byte	0x1
 5895 05ce 54       		.byte	0x54
 5896 05cf C2030000 		.4byte	.LVL162
 5897 05d3 C4030000 		.4byte	.LVL163
 5898 05d7 0100     		.2byte	0x1
 5899 05d9 54       		.byte	0x54
 5900 05da 00000000 		.4byte	0
 5901 05de 00000000 		.4byte	0
 5902              	.LLST29:
 5903 05e2 9C030000 		.4byte	.LVL154
 5904 05e6 C2030000 		.4byte	.LVL162
 5905 05ea 0100     		.2byte	0x1
 5906 05ec 53       		.byte	0x53
 5907 05ed CA030000 		.4byte	.LVL164
 5908 05f1 D2030000 		.4byte	.LVL165
 5909 05f5 0100     		.2byte	0x1
 5910 05f7 53       		.byte	0x53
 5911 05f8 00000000 		.4byte	0
 5912 05fc 00000000 		.4byte	0
 5913              	.LLST30:
 5914 0600 9C030000 		.4byte	.LVL154
 5915 0604 C2030000 		.4byte	.LVL162
 5916 0608 0100     		.2byte	0x1
 5917 060a 51       		.byte	0x51
 5918 060b CA030000 		.4byte	.LVL164
 5919 060f E8030000 		.4byte	.LVL167
 5920 0613 0100     		.2byte	0x1
 5921 0615 51       		.byte	0x51
 5922 0616 00000000 		.4byte	0
 5923 061a 00000000 		.4byte	0
 5924              	.LLST31:
 5925 061e 9C030000 		.4byte	.LVL154
 5926 0622 C2030000 		.4byte	.LVL162
 5927 0626 0100     		.2byte	0x1
 5928 0628 54       		.byte	0x54
 5929 0629 CA030000 		.4byte	.LVL164
 5930 062d E0030000 		.4byte	.LVL166
 5931 0631 0100     		.2byte	0x1
 5932 0633 54       		.byte	0x54
 5933 0634 E0030000 		.4byte	.LVL166
ARM GAS  C:\Users\kuzni\AppData\Local\Temp\ccqUPoDe.s 			page 123


 5934 0638 E8030000 		.4byte	.LVL167
 5935 063c 0200     		.2byte	0x2
 5936 063e 30       		.byte	0x30
 5937 063f 9F       		.byte	0x9f
 5938 0640 E8030000 		.4byte	.LVL167
 5939 0644 EC030000 		.4byte	.LVL168
 5940 0648 0100     		.2byte	0x1
 5941 064a 52       		.byte	0x52
 5942 064b EC030000 		.4byte	.LVL168
 5943 064f 08080000 		.4byte	.LVL311
 5944 0653 0200     		.2byte	0x2
 5945 0655 91       		.byte	0x91
 5946 0656 40       		.sleb128 -64
 5947 0657 00000000 		.4byte	0
 5948 065b 00000000 		.4byte	0
 5949              	.LLST32:
 5950 065f 9C030000 		.4byte	.LVL154
 5951 0663 AE030000 		.4byte	.LVL158
 5952 0667 0100     		.2byte	0x1
 5953 0669 50       		.byte	0x50
 5954 066a B0030000 		.4byte	.LVL159
 5955 066e C2030000 		.4byte	.LVL162
 5956 0672 0100     		.2byte	0x1
 5957 0674 50       		.byte	0x50
 5958 0675 F6030000 		.4byte	.LVL169
 5959 0679 FC030000 		.4byte	.LVL171
 5960 067d 0200     		.2byte	0x2
 5961 067f 30       		.byte	0x30
 5962 0680 9F       		.byte	0x9f
 5963 0681 FC030000 		.4byte	.LVL171
 5964 0685 00040000 		.4byte	.LVL172
 5965 0689 0100     		.2byte	0x1
 5966 068b 52       		.byte	0x52
 5967 068c 00040000 		.4byte	.LVL172
 5968 0690 F8070000 		.4byte	.LVL310
 5969 0694 0200     		.2byte	0x2
 5970 0696 91       		.byte	0x91
 5971 0697 44       		.sleb128 -60
 5972 0698 00000000 		.4byte	0
 5973 069c 00000000 		.4byte	0
 5974              	.LLST33:
 5975 06a0 E0030000 		.4byte	.LVL166
 5976 06a4 E8030000 		.4byte	.LVL167
 5977 06a8 0200     		.2byte	0x2
 5978 06aa 30       		.byte	0x30
 5979 06ab 9F       		.byte	0x9f
 5980 06ac 2C040000 		.4byte	.LVL174
 5981 06b0 30040000 		.4byte	.LVL175
 5982 06b4 0100     		.2byte	0x1
 5983 06b6 51       		.byte	0x51
 5984 06b7 30040000 		.4byte	.LVL175
 5985 06bb 32040000 		.4byte	.LVL176
 5986 06bf 1E00     		.2byte	0x1e
 5987 06c1 91       		.byte	0x91
 5988 06c2 BC7F     		.sleb128 -68
 5989 06c4 06       		.byte	0x6
 5990 06c5 4F       		.byte	0x4f
ARM GAS  C:\Users\kuzni\AppData\Local\Temp\ccqUPoDe.s 			page 124


 5991 06c6 25       		.byte	0x25
 5992 06c7 73       		.byte	0x73
 5993 06c8 00       		.sleb128 0
 5994 06c9 4F       		.byte	0x4f
 5995 06ca 25       		.byte	0x25
 5996 06cb 22       		.byte	0x22
 5997 06cc 74       		.byte	0x74
 5998 06cd 00       		.sleb128 0
 5999 06ce 72       		.byte	0x72
 6000 06cf 00       		.sleb128 0
 6001 06d0 2B       		.byte	0x2b
 6002 06d1 22       		.byte	0x22
 6003 06d2 91       		.byte	0x91
 6004 06d3 BC7F     		.sleb128 -68
 6005 06d5 06       		.byte	0x6
 6006 06d6 91       		.byte	0x91
 6007 06d7 04       		.sleb128 4
 6008 06d8 06       		.byte	0x6
 6009 06d9 22       		.byte	0x22
 6010 06da 70       		.byte	0x70
 6011 06db 00       		.sleb128 0
 6012 06dc 2B       		.byte	0x2b
 6013 06dd 22       		.byte	0x22
 6014 06de 9F       		.byte	0x9f
 6015 06df 32040000 		.4byte	.LVL176
 6016 06e3 36040000 		.4byte	.LVL177
 6017 06e7 2100     		.2byte	0x21
 6018 06e9 91       		.byte	0x91
 6019 06ea BC7F     		.sleb128 -68
 6020 06ec 06       		.byte	0x6
 6021 06ed 4F       		.byte	0x4f
 6022 06ee 25       		.byte	0x25
 6023 06ef 73       		.byte	0x73
 6024 06f0 00       		.sleb128 0
 6025 06f1 4F       		.byte	0x4f
 6026 06f2 25       		.byte	0x25
 6027 06f3 22       		.byte	0x22
 6028 06f4 73       		.byte	0x73
 6029 06f5 00       		.sleb128 0
 6030 06f6 77       		.byte	0x77
 6031 06f7 00       		.sleb128 0
 6032 06f8 22       		.byte	0x22
 6033 06f9 72       		.byte	0x72
 6034 06fa 00       		.sleb128 0
 6035 06fb 2B       		.byte	0x2b
 6036 06fc 22       		.byte	0x22
 6037 06fd 91       		.byte	0x91
 6038 06fe BC7F     		.sleb128 -68
 6039 0700 06       		.byte	0x6
 6040 0701 91       		.byte	0x91
 6041 0702 04       		.sleb128 4
 6042 0703 06       		.byte	0x6
 6043 0704 22       		.byte	0x22
 6044 0705 70       		.byte	0x70
 6045 0706 00       		.sleb128 0
 6046 0707 2B       		.byte	0x2b
 6047 0708 22       		.byte	0x22
ARM GAS  C:\Users\kuzni\AppData\Local\Temp\ccqUPoDe.s 			page 125


 6048 0709 9F       		.byte	0x9f
 6049 070a 36040000 		.4byte	.LVL177
 6050 070e 48040000 		.4byte	.LVL179
 6051 0712 3300     		.2byte	0x33
 6052 0714 91       		.byte	0x91
 6053 0715 BC7F     		.sleb128 -68
 6054 0717 06       		.byte	0x6
 6055 0718 4F       		.byte	0x4f
 6056 0719 25       		.byte	0x25
 6057 071a 91       		.byte	0x91
 6058 071b 44       		.sleb128 -60
 6059 071c 06       		.byte	0x6
 6060 071d 91       		.byte	0x91
 6061 071e 08       		.sleb128 8
 6062 071f 06       		.byte	0x6
 6063 0720 1E       		.byte	0x1e
 6064 0721 91       		.byte	0x91
 6065 0722 24       		.sleb128 36
 6066 0723 06       		.byte	0x6
 6067 0724 1C       		.byte	0x1c
 6068 0725 4F       		.byte	0x4f
 6069 0726 25       		.byte	0x25
 6070 0727 22       		.byte	0x22
 6071 0728 91       		.byte	0x91
 6072 0729 44       		.sleb128 -60
 6073 072a 06       		.byte	0x6
 6074 072b 91       		.byte	0x91
 6075 072c 08       		.sleb128 8
 6076 072d 06       		.byte	0x6
 6077 072e 1E       		.byte	0x1e
 6078 072f 91       		.byte	0x91
 6079 0730 24       		.sleb128 36
 6080 0731 06       		.byte	0x6
 6081 0732 1C       		.byte	0x1c
 6082 0733 77       		.byte	0x77
 6083 0734 00       		.sleb128 0
 6084 0735 22       		.byte	0x22
 6085 0736 72       		.byte	0x72
 6086 0737 00       		.sleb128 0
 6087 0738 2B       		.byte	0x2b
 6088 0739 22       		.byte	0x22
 6089 073a 91       		.byte	0x91
 6090 073b BC7F     		.sleb128 -68
 6091 073d 06       		.byte	0x6
 6092 073e 91       		.byte	0x91
 6093 073f 04       		.sleb128 4
 6094 0740 06       		.byte	0x6
 6095 0741 22       		.byte	0x22
 6096 0742 70       		.byte	0x70
 6097 0743 00       		.sleb128 0
 6098 0744 2B       		.byte	0x2b
 6099 0745 22       		.byte	0x22
 6100 0746 9F       		.byte	0x9f
 6101 0747 48040000 		.4byte	.LVL179
 6102 074b 4A040000 		.4byte	.LVL180
 6103 074f 3300     		.2byte	0x33
 6104 0751 91       		.byte	0x91
ARM GAS  C:\Users\kuzni\AppData\Local\Temp\ccqUPoDe.s 			page 126


 6105 0752 BC7F     		.sleb128 -68
 6106 0754 06       		.byte	0x6
 6107 0755 4F       		.byte	0x4f
 6108 0756 25       		.byte	0x25
 6109 0757 91       		.byte	0x91
 6110 0758 44       		.sleb128 -60
 6111 0759 06       		.byte	0x6
 6112 075a 91       		.byte	0x91
 6113 075b 08       		.sleb128 8
 6114 075c 06       		.byte	0x6
 6115 075d 1E       		.byte	0x1e
 6116 075e 91       		.byte	0x91
 6117 075f 24       		.sleb128 36
 6118 0760 06       		.byte	0x6
 6119 0761 1C       		.byte	0x1c
 6120 0762 4F       		.byte	0x4f
 6121 0763 25       		.byte	0x25
 6122 0764 22       		.byte	0x22
 6123 0765 91       		.byte	0x91
 6124 0766 44       		.sleb128 -60
 6125 0767 06       		.byte	0x6
 6126 0768 91       		.byte	0x91
 6127 0769 08       		.sleb128 8
 6128 076a 06       		.byte	0x6
 6129 076b 1E       		.byte	0x1e
 6130 076c 91       		.byte	0x91
 6131 076d 24       		.sleb128 36
 6132 076e 06       		.byte	0x6
 6133 076f 1C       		.byte	0x1c
 6134 0770 7C       		.byte	0x7c
 6135 0771 00       		.sleb128 0
 6136 0772 22       		.byte	0x22
 6137 0773 72       		.byte	0x72
 6138 0774 00       		.sleb128 0
 6139 0775 2B       		.byte	0x2b
 6140 0776 22       		.byte	0x22
 6141 0777 91       		.byte	0x91
 6142 0778 BC7F     		.sleb128 -68
 6143 077a 06       		.byte	0x6
 6144 077b 91       		.byte	0x91
 6145 077c 04       		.sleb128 4
 6146 077d 06       		.byte	0x6
 6147 077e 22       		.byte	0x22
 6148 077f 70       		.byte	0x70
 6149 0780 00       		.sleb128 0
 6150 0781 2B       		.byte	0x2b
 6151 0782 22       		.byte	0x22
 6152 0783 9F       		.byte	0x9f
 6153 0784 88040000 		.4byte	.LVL190
 6154 0788 8A040000 		.4byte	.LVL191
 6155 078c 0100     		.2byte	0x1
 6156 078e 51       		.byte	0x51
 6157 078f 8A040000 		.4byte	.LVL191
 6158 0793 AA040000 		.4byte	.LVL194
 6159 0797 1E00     		.2byte	0x1e
 6160 0799 91       		.byte	0x91
 6161 079a BC7F     		.sleb128 -68
ARM GAS  C:\Users\kuzni\AppData\Local\Temp\ccqUPoDe.s 			page 127


 6162 079c 06       		.byte	0x6
 6163 079d 4F       		.byte	0x4f
 6164 079e 25       		.byte	0x25
 6165 079f 73       		.byte	0x73
 6166 07a0 00       		.sleb128 0
 6167 07a1 4F       		.byte	0x4f
 6168 07a2 25       		.byte	0x25
 6169 07a3 22       		.byte	0x22
 6170 07a4 74       		.byte	0x74
 6171 07a5 00       		.sleb128 0
 6172 07a6 72       		.byte	0x72
 6173 07a7 00       		.sleb128 0
 6174 07a8 2B       		.byte	0x2b
 6175 07a9 22       		.byte	0x22
 6176 07aa 91       		.byte	0x91
 6177 07ab BC7F     		.sleb128 -68
 6178 07ad 06       		.byte	0x6
 6179 07ae 91       		.byte	0x91
 6180 07af 04       		.sleb128 4
 6181 07b0 06       		.byte	0x6
 6182 07b1 22       		.byte	0x22
 6183 07b2 70       		.byte	0x70
 6184 07b3 00       		.sleb128 0
 6185 07b4 2B       		.byte	0x2b
 6186 07b5 22       		.byte	0x22
 6187 07b6 9F       		.byte	0x9f
 6188 07b7 AA040000 		.4byte	.LVL194
 6189 07bb B4040000 		.4byte	.LVL195
 6190 07bf 2400     		.2byte	0x24
 6191 07c1 91       		.byte	0x91
 6192 07c2 BC7F     		.sleb128 -68
 6193 07c4 06       		.byte	0x6
 6194 07c5 4F       		.byte	0x4f
 6195 07c6 25       		.byte	0x25
 6196 07c7 73       		.byte	0x73
 6197 07c8 00       		.sleb128 0
 6198 07c9 4F       		.byte	0x4f
 6199 07ca 25       		.byte	0x25
 6200 07cb 22       		.byte	0x22
 6201 07cc 74       		.byte	0x74
 6202 07cd 00       		.sleb128 0
 6203 07ce 72       		.byte	0x72
 6204 07cf 00       		.sleb128 0
 6205 07d0 2B       		.byte	0x2b
 6206 07d1 22       		.byte	0x22
 6207 07d2 91       		.byte	0x91
 6208 07d3 BC7F     		.sleb128 -68
 6209 07d5 06       		.byte	0x6
 6210 07d6 91       		.byte	0x91
 6211 07d7 04       		.sleb128 4
 6212 07d8 06       		.byte	0x6
 6213 07d9 22       		.byte	0x22
 6214 07da 75       		.byte	0x75
 6215 07db 02       		.sleb128 2
 6216 07dc 94       		.byte	0x94
 6217 07dd 02       		.byte	0x2
 6218 07de 0A       		.byte	0xa
ARM GAS  C:\Users\kuzni\AppData\Local\Temp\ccqUPoDe.s 			page 128


 6219 07df FFFF     		.2byte	0xffff
 6220 07e1 1A       		.byte	0x1a
 6221 07e2 2B       		.byte	0x2b
 6222 07e3 22       		.byte	0x22
 6223 07e4 9F       		.byte	0x9f
 6224 07e5 B4040000 		.4byte	.LVL195
 6225 07e9 B6040000 		.4byte	.LVL196
 6226 07ed 2800     		.2byte	0x28
 6227 07ef 91       		.byte	0x91
 6228 07f0 BC7F     		.sleb128 -68
 6229 07f2 06       		.byte	0x6
 6230 07f3 4F       		.byte	0x4f
 6231 07f4 25       		.byte	0x25
 6232 07f5 73       		.byte	0x73
 6233 07f6 00       		.sleb128 0
 6234 07f7 4F       		.byte	0x4f
 6235 07f8 25       		.byte	0x25
 6236 07f9 22       		.byte	0x22
 6237 07fa 74       		.byte	0x74
 6238 07fb 00       		.sleb128 0
 6239 07fc 72       		.byte	0x72
 6240 07fd 00       		.sleb128 0
 6241 07fe 2B       		.byte	0x2b
 6242 07ff 22       		.byte	0x22
 6243 0800 91       		.byte	0x91
 6244 0801 BC7F     		.sleb128 -68
 6245 0803 06       		.byte	0x6
 6246 0804 91       		.byte	0x91
 6247 0805 04       		.sleb128 4
 6248 0806 06       		.byte	0x6
 6249 0807 22       		.byte	0x22
 6250 0808 91       		.byte	0x91
 6251 0809 AC7F     		.sleb128 -84
 6252 080b 06       		.byte	0x6
 6253 080c 23       		.byte	0x23
 6254 080d 02       		.uleb128 0x2
 6255 080e 94       		.byte	0x94
 6256 080f 02       		.byte	0x2
 6257 0810 0A       		.byte	0xa
 6258 0811 FFFF     		.2byte	0xffff
 6259 0813 1A       		.byte	0x1a
 6260 0814 2B       		.byte	0x2b
 6261 0815 22       		.byte	0x22
 6262 0816 9F       		.byte	0x9f
 6263 0817 B6040000 		.4byte	.LVL196
 6264 081b C4040000 		.4byte	.LVL199
 6265 081f 2B00     		.2byte	0x2b
 6266 0821 91       		.byte	0x91
 6267 0822 BC7F     		.sleb128 -68
 6268 0824 06       		.byte	0x6
 6269 0825 4F       		.byte	0x4f
 6270 0826 25       		.byte	0x25
 6271 0827 73       		.byte	0x73
 6272 0828 00       		.sleb128 0
 6273 0829 4F       		.byte	0x4f
 6274 082a 25       		.byte	0x25
 6275 082b 22       		.byte	0x22
ARM GAS  C:\Users\kuzni\AppData\Local\Temp\ccqUPoDe.s 			page 129


 6276 082c 73       		.byte	0x73
 6277 082d 00       		.sleb128 0
 6278 082e 77       		.byte	0x77
 6279 082f 00       		.sleb128 0
 6280 0830 22       		.byte	0x22
 6281 0831 72       		.byte	0x72
 6282 0832 00       		.sleb128 0
 6283 0833 2B       		.byte	0x2b
 6284 0834 22       		.byte	0x22
 6285 0835 91       		.byte	0x91
 6286 0836 BC7F     		.sleb128 -68
 6287 0838 06       		.byte	0x6
 6288 0839 91       		.byte	0x91
 6289 083a 04       		.sleb128 4
 6290 083b 06       		.byte	0x6
 6291 083c 22       		.byte	0x22
 6292 083d 91       		.byte	0x91
 6293 083e AC7F     		.sleb128 -84
 6294 0840 06       		.byte	0x6
 6295 0841 23       		.byte	0x23
 6296 0842 02       		.uleb128 0x2
 6297 0843 94       		.byte	0x94
 6298 0844 02       		.byte	0x2
 6299 0845 0A       		.byte	0xa
 6300 0846 FFFF     		.2byte	0xffff
 6301 0848 1A       		.byte	0x1a
 6302 0849 2B       		.byte	0x2b
 6303 084a 22       		.byte	0x22
 6304 084b 9F       		.byte	0x9f
 6305 084c C4040000 		.4byte	.LVL199
 6306 0850 C6040000 		.4byte	.LVL200
 6307 0854 3D00     		.2byte	0x3d
 6308 0856 91       		.byte	0x91
 6309 0857 BC7F     		.sleb128 -68
 6310 0859 06       		.byte	0x6
 6311 085a 4F       		.byte	0x4f
 6312 085b 25       		.byte	0x25
 6313 085c 91       		.byte	0x91
 6314 085d 44       		.sleb128 -60
 6315 085e 06       		.byte	0x6
 6316 085f 91       		.byte	0x91
 6317 0860 08       		.sleb128 8
 6318 0861 06       		.byte	0x6
 6319 0862 1E       		.byte	0x1e
 6320 0863 91       		.byte	0x91
 6321 0864 24       		.sleb128 36
 6322 0865 06       		.byte	0x6
 6323 0866 1C       		.byte	0x1c
 6324 0867 4F       		.byte	0x4f
 6325 0868 25       		.byte	0x25
 6326 0869 22       		.byte	0x22
 6327 086a 91       		.byte	0x91
 6328 086b 44       		.sleb128 -60
 6329 086c 06       		.byte	0x6
 6330 086d 91       		.byte	0x91
 6331 086e 08       		.sleb128 8
 6332 086f 06       		.byte	0x6
ARM GAS  C:\Users\kuzni\AppData\Local\Temp\ccqUPoDe.s 			page 130


 6333 0870 1E       		.byte	0x1e
 6334 0871 91       		.byte	0x91
 6335 0872 24       		.sleb128 36
 6336 0873 06       		.byte	0x6
 6337 0874 1C       		.byte	0x1c
 6338 0875 77       		.byte	0x77
 6339 0876 00       		.sleb128 0
 6340 0877 22       		.byte	0x22
 6341 0878 72       		.byte	0x72
 6342 0879 00       		.sleb128 0
 6343 087a 2B       		.byte	0x2b
 6344 087b 22       		.byte	0x22
 6345 087c 91       		.byte	0x91
 6346 087d BC7F     		.sleb128 -68
 6347 087f 06       		.byte	0x6
 6348 0880 91       		.byte	0x91
 6349 0881 04       		.sleb128 4
 6350 0882 06       		.byte	0x6
 6351 0883 22       		.byte	0x22
 6352 0884 91       		.byte	0x91
 6353 0885 AC7F     		.sleb128 -84
 6354 0887 06       		.byte	0x6
 6355 0888 23       		.byte	0x23
 6356 0889 02       		.uleb128 0x2
 6357 088a 94       		.byte	0x94
 6358 088b 02       		.byte	0x2
 6359 088c 0A       		.byte	0xa
 6360 088d FFFF     		.2byte	0xffff
 6361 088f 1A       		.byte	0x1a
 6362 0890 2B       		.byte	0x2b
 6363 0891 22       		.byte	0x22
 6364 0892 9F       		.byte	0x9f
 6365 0893 C6040000 		.4byte	.LVL200
 6366 0897 E7040000 		.4byte	.LVL202-1
 6367 089b 4700     		.2byte	0x47
 6368 089d 91       		.byte	0x91
 6369 089e BC7F     		.sleb128 -68
 6370 08a0 06       		.byte	0x6
 6371 08a1 4F       		.byte	0x4f
 6372 08a2 25       		.byte	0x25
 6373 08a3 91       		.byte	0x91
 6374 08a4 44       		.sleb128 -60
 6375 08a5 06       		.byte	0x6
 6376 08a6 91       		.byte	0x91
 6377 08a7 08       		.sleb128 8
 6378 08a8 06       		.byte	0x6
 6379 08a9 1E       		.byte	0x1e
 6380 08aa 91       		.byte	0x91
 6381 08ab 24       		.sleb128 36
 6382 08ac 06       		.byte	0x6
 6383 08ad 1C       		.byte	0x1c
 6384 08ae 4F       		.byte	0x4f
 6385 08af 25       		.byte	0x25
 6386 08b0 22       		.byte	0x22
 6387 08b1 91       		.byte	0x91
 6388 08b2 44       		.sleb128 -60
 6389 08b3 06       		.byte	0x6
ARM GAS  C:\Users\kuzni\AppData\Local\Temp\ccqUPoDe.s 			page 131


 6390 08b4 91       		.byte	0x91
 6391 08b5 08       		.sleb128 8
 6392 08b6 06       		.byte	0x6
 6393 08b7 1E       		.byte	0x1e
 6394 08b8 91       		.byte	0x91
 6395 08b9 24       		.sleb128 36
 6396 08ba 06       		.byte	0x6
 6397 08bb 1C       		.byte	0x1c
 6398 08bc 77       		.byte	0x77
 6399 08bd 00       		.sleb128 0
 6400 08be 22       		.byte	0x22
 6401 08bf 91       		.byte	0x91
 6402 08c0 AC7F     		.sleb128 -84
 6403 08c2 06       		.byte	0x6
 6404 08c3 23       		.byte	0x23
 6405 08c4 04       		.uleb128 0x4
 6406 08c5 94       		.byte	0x94
 6407 08c6 02       		.byte	0x2
 6408 08c7 0A       		.byte	0xa
 6409 08c8 FFFF     		.2byte	0xffff
 6410 08ca 1A       		.byte	0x1a
 6411 08cb 2B       		.byte	0x2b
 6412 08cc 22       		.byte	0x22
 6413 08cd 91       		.byte	0x91
 6414 08ce BC7F     		.sleb128 -68
 6415 08d0 06       		.byte	0x6
 6416 08d1 91       		.byte	0x91
 6417 08d2 04       		.sleb128 4
 6418 08d3 06       		.byte	0x6
 6419 08d4 22       		.byte	0x22
 6420 08d5 91       		.byte	0x91
 6421 08d6 AC7F     		.sleb128 -84
 6422 08d8 06       		.byte	0x6
 6423 08d9 23       		.byte	0x23
 6424 08da 02       		.uleb128 0x2
 6425 08db 94       		.byte	0x94
 6426 08dc 02       		.byte	0x2
 6427 08dd 0A       		.byte	0xa
 6428 08de FFFF     		.2byte	0xffff
 6429 08e0 1A       		.byte	0x1a
 6430 08e1 2B       		.byte	0x2b
 6431 08e2 22       		.byte	0x22
 6432 08e3 9F       		.byte	0x9f
 6433 08e4 00000000 		.4byte	0
 6434 08e8 00000000 		.4byte	0
 6435              	.LLST34:
 6436 08ec BA000000 		.4byte	.LVL24
 6437 08f0 CA000000 		.4byte	.LVL29
 6438 08f4 0200     		.2byte	0x2
 6439 08f6 30       		.byte	0x30
 6440 08f7 9F       		.byte	0x9f
 6441 08f8 CA000000 		.4byte	.LVL29
 6442 08fc B2010000 		.4byte	.LVL69
 6443 0900 0300     		.2byte	0x3
 6444 0902 91       		.byte	0x91
 6445 0903 BC7F     		.sleb128 -68
 6446 0905 B2010000 		.4byte	.LVL69
ARM GAS  C:\Users\kuzni\AppData\Local\Temp\ccqUPoDe.s 			page 132


 6447 0909 BA010000 		.4byte	.LVL70
 6448 090d 0100     		.2byte	0x1
 6449 090f 58       		.byte	0x58
 6450 0910 BA010000 		.4byte	.LVL70
 6451 0914 50020000 		.4byte	.LVL94
 6452 0918 0300     		.2byte	0x3
 6453 091a 91       		.byte	0x91
 6454 091b BC7F     		.sleb128 -68
 6455 091d 50020000 		.4byte	.LVL94
 6456 0921 6E020000 		.4byte	.LVL98
 6457 0925 0100     		.2byte	0x1
 6458 0927 58       		.byte	0x58
 6459 0928 6E020000 		.4byte	.LVL98
 6460 092c 9C030000 		.4byte	.LVL154
 6461 0930 0100     		.2byte	0x1
 6462 0932 5B       		.byte	0x5b
 6463 0933 00000000 		.4byte	0
 6464 0937 00000000 		.4byte	0
 6465              	.LLST35:
 6466 093b C0000000 		.4byte	.LVL25
 6467 093f C8000000 		.4byte	.LVL28
 6468 0943 0100     		.2byte	0x1
 6469 0945 58       		.byte	0x58
 6470 0946 C8000000 		.4byte	.LVL28
 6471 094a 72020000 		.4byte	.LVL99
 6472 094e 0100     		.2byte	0x1
 6473 0950 57       		.byte	0x57
 6474 0951 72020000 		.4byte	.LVL99
 6475 0955 9C030000 		.4byte	.LVL154
 6476 0959 0100     		.2byte	0x1
 6477 095b 58       		.byte	0x58
 6478 095c 00000000 		.4byte	0
 6479 0960 00000000 		.4byte	0
 6480              	.LLST36:
 6481 0964 C0000000 		.4byte	.LVL25
 6482 0968 72020000 		.4byte	.LVL99
 6483 096c 0300     		.2byte	0x3
 6484 096e 91       		.byte	0x91
 6485 096f 9C7F     		.sleb128 -100
 6486 0971 72020000 		.4byte	.LVL99
 6487 0975 9C030000 		.4byte	.LVL154
 6488 0979 0100     		.2byte	0x1
 6489 097b 54       		.byte	0x54
 6490 097c 00000000 		.4byte	0
 6491 0980 00000000 		.4byte	0
 6492              	.LLST37:
 6493 0984 CA000000 		.4byte	.LVL29
 6494 0988 B2010000 		.4byte	.LVL69
 6495 098c 0100     		.2byte	0x1
 6496 098e 5C       		.byte	0x5c
 6497 098f BA010000 		.4byte	.LVL70
 6498 0993 D0010000 		.4byte	.LVL72
 6499 0997 0100     		.2byte	0x1
 6500 0999 5C       		.byte	0x5c
 6501 099a 00000000 		.4byte	0
 6502 099e 00000000 		.4byte	0
 6503              	.LLST38:
ARM GAS  C:\Users\kuzni\AppData\Local\Temp\ccqUPoDe.s 			page 133


 6504 09a2 E4000000 		.4byte	.LVL30
 6505 09a6 EC000000 		.4byte	.LVL32
 6506 09aa 0100     		.2byte	0x1
 6507 09ac 53       		.byte	0x53
 6508 09ad EC000000 		.4byte	.LVL32
 6509 09b1 B2010000 		.4byte	.LVL69
 6510 09b5 0300     		.2byte	0x3
 6511 09b7 91       		.byte	0x91
 6512 09b8 B47F     		.sleb128 -76
 6513 09ba 00000000 		.4byte	0
 6514 09be 00000000 		.4byte	0
 6515              	.LLST39:
 6516 09c2 E4000000 		.4byte	.LVL30
 6517 09c6 F6000000 		.4byte	.LVL34
 6518 09ca 0300     		.2byte	0x3
 6519 09cc 91       		.byte	0x91
 6520 09cd AC7F     		.sleb128 -84
 6521 09cf F6000000 		.4byte	.LVL34
 6522 09d3 B2010000 		.4byte	.LVL69
 6523 09d7 0100     		.2byte	0x1
 6524 09d9 59       		.byte	0x59
 6525 09da 00000000 		.4byte	0
 6526 09de 00000000 		.4byte	0
 6527              	.LLST40:
 6528 09e2 E4000000 		.4byte	.LVL30
 6529 09e6 B2010000 		.4byte	.LVL69
 6530 09ea 0100     		.2byte	0x1
 6531 09ec 54       		.byte	0x54
 6532 09ed 00000000 		.4byte	0
 6533 09f1 00000000 		.4byte	0
 6534              	.LLST41:
 6535 09f5 E4000000 		.4byte	.LVL30
 6536 09f9 B2010000 		.4byte	.LVL69
 6537 09fd 0100     		.2byte	0x1
 6538 09ff 57       		.byte	0x57
 6539 0a00 00000000 		.4byte	0
 6540 0a04 00000000 		.4byte	0
 6541              	.LLST42:
 6542 0a08 E4000000 		.4byte	.LVL30
 6543 0a0c F6000000 		.4byte	.LVL34
 6544 0a10 0200     		.2byte	0x2
 6545 0a12 30       		.byte	0x30
 6546 0a13 9F       		.byte	0x9f
 6547 0a14 F6000000 		.4byte	.LVL34
 6548 0a18 FE000000 		.4byte	.LVL35
 6549 0a1c 0100     		.2byte	0x1
 6550 0a1e 5A       		.byte	0x5a
 6551 0a1f FE000000 		.4byte	.LVL35
 6552 0a23 14010000 		.4byte	.LVL38
 6553 0a27 0100     		.2byte	0x1
 6554 0a29 56       		.byte	0x56
 6555 0a2a 14010000 		.4byte	.LVL38
 6556 0a2e 7C010000 		.4byte	.LVL61
 6557 0a32 0100     		.2byte	0x1
 6558 0a34 5B       		.byte	0x5b
 6559 0a35 7C010000 		.4byte	.LVL61
 6560 0a39 B2010000 		.4byte	.LVL69
ARM GAS  C:\Users\kuzni\AppData\Local\Temp\ccqUPoDe.s 			page 134


 6561 0a3d 0100     		.2byte	0x1
 6562 0a3f 5A       		.byte	0x5a
 6563 0a40 00000000 		.4byte	0
 6564 0a44 00000000 		.4byte	0
 6565              	.LLST43:
 6566 0a48 E4000000 		.4byte	.LVL30
 6567 0a4c F6000000 		.4byte	.LVL34
 6568 0a50 0200     		.2byte	0x2
 6569 0a52 30       		.byte	0x30
 6570 0a53 9F       		.byte	0x9f
 6571 0a54 F6000000 		.4byte	.LVL34
 6572 0a58 B2010000 		.4byte	.LVL69
 6573 0a5c 0100     		.2byte	0x1
 6574 0a5e 51       		.byte	0x51
 6575 0a5f 00000000 		.4byte	0
 6576 0a63 00000000 		.4byte	0
 6577              	.LLST45:
 6578 0a67 E8000000 		.4byte	.LVL31
 6579 0a6b B2010000 		.4byte	.LVL69
 6580 0a6f 0100     		.2byte	0x1
 6581 0a71 55       		.byte	0x55
 6582 0a72 00000000 		.4byte	0
 6583 0a76 00000000 		.4byte	0
 6584              	.LLST46:
 6585 0a7a E8000000 		.4byte	.LVL31
 6586 0a7e F6000000 		.4byte	.LVL34
 6587 0a82 0200     		.2byte	0x2
 6588 0a84 30       		.byte	0x30
 6589 0a85 9F       		.byte	0x9f
 6590 0a86 F6000000 		.4byte	.LVL34
 6591 0a8a 08010000 		.4byte	.LVL37
 6592 0a8e 0100     		.2byte	0x1
 6593 0a90 50       		.byte	0x50
 6594 0a91 08010000 		.4byte	.LVL37
 6595 0a95 16010000 		.4byte	.LVL39
 6596 0a99 0100     		.2byte	0x1
 6597 0a9b 52       		.byte	0x52
 6598 0a9c 16010000 		.4byte	.LVL39
 6599 0aa0 1C010000 		.4byte	.LVL41
 6600 0aa4 0300     		.2byte	0x3
 6601 0aa6 70       		.byte	0x70
 6602 0aa7 01       		.sleb128 1
 6603 0aa8 9F       		.byte	0x9f
 6604 0aa9 1C010000 		.4byte	.LVL41
 6605 0aad 28010000 		.4byte	.LVL43
 6606 0ab1 0100     		.2byte	0x1
 6607 0ab3 56       		.byte	0x56
 6608 0ab4 28010000 		.4byte	.LVL43
 6609 0ab8 2E010000 		.4byte	.LVL45
 6610 0abc 0300     		.2byte	0x3
 6611 0abe 70       		.byte	0x70
 6612 0abf 02       		.sleb128 2
 6613 0ac0 9F       		.byte	0x9f
 6614 0ac1 2E010000 		.4byte	.LVL45
 6615 0ac5 3A010000 		.4byte	.LVL47
 6616 0ac9 0100     		.2byte	0x1
 6617 0acb 52       		.byte	0x52
ARM GAS  C:\Users\kuzni\AppData\Local\Temp\ccqUPoDe.s 			page 135


 6618 0acc 3A010000 		.4byte	.LVL47
 6619 0ad0 40010000 		.4byte	.LVL49
 6620 0ad4 0300     		.2byte	0x3
 6621 0ad6 70       		.byte	0x70
 6622 0ad7 03       		.sleb128 3
 6623 0ad8 9F       		.byte	0x9f
 6624 0ad9 40010000 		.4byte	.LVL49
 6625 0add 4C010000 		.4byte	.LVL51
 6626 0ae1 0100     		.2byte	0x1
 6627 0ae3 56       		.byte	0x56
 6628 0ae4 4C010000 		.4byte	.LVL51
 6629 0ae8 52010000 		.4byte	.LVL53
 6630 0aec 0300     		.2byte	0x3
 6631 0aee 70       		.byte	0x70
 6632 0aef 04       		.sleb128 4
 6633 0af0 9F       		.byte	0x9f
 6634 0af1 52010000 		.4byte	.LVL53
 6635 0af5 5E010000 		.4byte	.LVL55
 6636 0af9 0100     		.2byte	0x1
 6637 0afb 52       		.byte	0x52
 6638 0afc 5E010000 		.4byte	.LVL55
 6639 0b00 64010000 		.4byte	.LVL57
 6640 0b04 0300     		.2byte	0x3
 6641 0b06 70       		.byte	0x70
 6642 0b07 05       		.sleb128 5
 6643 0b08 9F       		.byte	0x9f
 6644 0b09 64010000 		.4byte	.LVL57
 6645 0b0d 70010000 		.4byte	.LVL59
 6646 0b11 0100     		.2byte	0x1
 6647 0b13 56       		.byte	0x56
 6648 0b14 70010000 		.4byte	.LVL59
 6649 0b18 74010000 		.4byte	.LVL60
 6650 0b1c 0300     		.2byte	0x3
 6651 0b1e 70       		.byte	0x70
 6652 0b1f 06       		.sleb128 6
 6653 0b20 9F       		.byte	0x9f
 6654 0b21 74010000 		.4byte	.LVL60
 6655 0b25 7E010000 		.4byte	.LVL62
 6656 0b29 0100     		.2byte	0x1
 6657 0b2b 53       		.byte	0x53
 6658 0b2c 7E010000 		.4byte	.LVL62
 6659 0b30 84010000 		.4byte	.LVL64
 6660 0b34 0300     		.2byte	0x3
 6661 0b36 70       		.byte	0x70
 6662 0b37 07       		.sleb128 7
 6663 0b38 9F       		.byte	0x9f
 6664 0b39 84010000 		.4byte	.LVL64
 6665 0b3d B2010000 		.4byte	.LVL69
 6666 0b41 0100     		.2byte	0x1
 6667 0b43 50       		.byte	0x50
 6668 0b44 00000000 		.4byte	0
 6669 0b48 00000000 		.4byte	0
 6670              	.LLST47:
 6671 0b4c EE000000 		.4byte	.LVL33
 6672 0b50 F6000000 		.4byte	.LVL34
 6673 0b54 0100     		.2byte	0x1
 6674 0b56 53       		.byte	0x53
ARM GAS  C:\Users\kuzni\AppData\Local\Temp\ccqUPoDe.s 			page 136


 6675 0b57 F6000000 		.4byte	.LVL34
 6676 0b5b B2010000 		.4byte	.LVL69
 6677 0b5f 0300     		.2byte	0x3
 6678 0b61 91       		.byte	0x91
 6679 0b62 B87F     		.sleb128 -72
 6680 0b64 00000000 		.4byte	0
 6681 0b68 00000000 		.4byte	0
 6682              	.LLST48:
 6683 0b6c C8010000 		.4byte	.LVL71
 6684 0b70 60020000 		.4byte	.LVL97
 6685 0b74 0300     		.2byte	0x3
 6686 0b76 91       		.byte	0x91
 6687 0b77 C000     		.sleb128 64
 6688 0b79 00000000 		.4byte	0
 6689 0b7d 00000000 		.4byte	0
 6690              	.LLST49:
 6691 0b81 C8010000 		.4byte	.LVL71
 6692 0b85 60020000 		.4byte	.LVL97
 6693 0b89 0300     		.2byte	0x3
 6694 0b8b 91       		.byte	0x91
 6695 0b8c B07F     		.sleb128 -80
 6696 0b8e 00000000 		.4byte	0
 6697 0b92 00000000 		.4byte	0
 6698              	.LLST50:
 6699 0b96 C8010000 		.4byte	.LVL71
 6700 0b9a 60020000 		.4byte	.LVL97
 6701 0b9e 0900     		.2byte	0x9
 6702 0ba0 76       		.byte	0x76
 6703 0ba1 00       		.sleb128 0
 6704 0ba2 03       		.byte	0x3
 6705 0ba3 00090000 		.4byte	sumscale
 6706 0ba7 22       		.byte	0x22
 6707 0ba8 9F       		.byte	0x9f
 6708 0ba9 00000000 		.4byte	0
 6709 0bad 00000000 		.4byte	0
 6710              	.LLST51:
 6711 0bb1 C8010000 		.4byte	.LVL71
 6712 0bb5 56020000 		.4byte	.LVL95
 6713 0bb9 0300     		.2byte	0x3
 6714 0bbb 91       		.byte	0x91
 6715 0bbc A87F     		.sleb128 -88
 6716 0bbe 00000000 		.4byte	0
 6717 0bc2 00000000 		.4byte	0
 6718              	.LLST52:
 6719 0bc6 C8010000 		.4byte	.LVL71
 6720 0bca 48020000 		.4byte	.LVL93
 6721 0bce 0200     		.2byte	0x2
 6722 0bd0 91       		.byte	0x91
 6723 0bd1 18       		.sleb128 24
 6724 0bd2 48020000 		.4byte	.LVL93
 6725 0bd6 60020000 		.4byte	.LVL97
 6726 0bda 0100     		.2byte	0x1
 6727 0bdc 5A       		.byte	0x5a
 6728 0bdd 00000000 		.4byte	0
 6729 0be1 00000000 		.4byte	0
 6730              	.LLST53:
 6731 0be5 C8010000 		.4byte	.LVL71
ARM GAS  C:\Users\kuzni\AppData\Local\Temp\ccqUPoDe.s 			page 137


 6732 0be9 60020000 		.4byte	.LVL97
 6733 0bed 0800     		.2byte	0x8
 6734 0bef 91       		.byte	0x91
 6735 0bf0 A47F     		.sleb128 -92
 6736 0bf2 06       		.byte	0x6
 6737 0bf3 76       		.byte	0x76
 6738 0bf4 00       		.sleb128 0
 6739 0bf5 22       		.byte	0x22
 6740 0bf6 9F       		.byte	0x9f
 6741 0bf7 00000000 		.4byte	0
 6742 0bfb 00000000 		.4byte	0
 6743              	.LLST54:
 6744 0bff C8010000 		.4byte	.LVL71
 6745 0c03 D4010000 		.4byte	.LVL73
 6746 0c07 0300     		.2byte	0x3
 6747 0c09 91       		.byte	0x91
 6748 0c0a 4C       		.sleb128 -52
 6749 0c0b 9F       		.byte	0x9f
 6750 0c0c D4010000 		.4byte	.LVL73
 6751 0c10 DE010000 		.4byte	.LVL75
 6752 0c14 0100     		.2byte	0x1
 6753 0c16 53       		.byte	0x53
 6754 0c17 DE010000 		.4byte	.LVL75
 6755 0c1b 60020000 		.4byte	.LVL97
 6756 0c1f 0300     		.2byte	0x3
 6757 0c21 91       		.byte	0x91
 6758 0c22 4C       		.sleb128 -52
 6759 0c23 9F       		.byte	0x9f
 6760 0c24 00000000 		.4byte	0
 6761 0c28 00000000 		.4byte	0
 6762              	.LLST55:
 6763 0c2c C8010000 		.4byte	.LVL71
 6764 0c30 60020000 		.4byte	.LVL97
 6765 0c34 0200     		.2byte	0x2
 6766 0c36 32       		.byte	0x32
 6767 0c37 9F       		.byte	0x9f
 6768 0c38 00000000 		.4byte	0
 6769 0c3c 00000000 		.4byte	0
 6770              	.LLST56:
 6771 0c40 C8010000 		.4byte	.LVL71
 6772 0c44 D0010000 		.4byte	.LVL72
 6773 0c48 0200     		.2byte	0x2
 6774 0c4a 30       		.byte	0x30
 6775 0c4b 9F       		.byte	0x9f
 6776 0c4c D0010000 		.4byte	.LVL72
 6777 0c50 60020000 		.4byte	.LVL97
 6778 0c54 0100     		.2byte	0x1
 6779 0c56 55       		.byte	0x55
 6780 0c57 00000000 		.4byte	0
 6781 0c5b 00000000 		.4byte	0
 6782              	.LLST57:
 6783 0c5f D8010000 		.4byte	.LVL74
 6784 0c63 E0010000 		.4byte	.LVL76
 6785 0c67 0100     		.2byte	0x1
 6786 0c69 50       		.byte	0x50
 6787 0c6a E0010000 		.4byte	.LVL76
 6788 0c6e E2010000 		.4byte	.LVL77
ARM GAS  C:\Users\kuzni\AppData\Local\Temp\ccqUPoDe.s 			page 138


 6789 0c72 0600     		.2byte	0x6
 6790 0c74 70       		.byte	0x70
 6791 0c75 00       		.sleb128 0
 6792 0c76 73       		.byte	0x73
 6793 0c77 00       		.sleb128 0
 6794 0c78 22       		.byte	0x22
 6795 0c79 9F       		.byte	0x9f
 6796 0c7a E2010000 		.4byte	.LVL77
 6797 0c7e E5010000 		.4byte	.LVL78-1
 6798 0c82 0100     		.2byte	0x1
 6799 0c84 50       		.byte	0x50
 6800 0c85 00000000 		.4byte	0
 6801 0c89 00000000 		.4byte	0
 6802              	.LLST58:
 6803 0c8d F4010000 		.4byte	.LVL80
 6804 0c91 07020000 		.4byte	.LVL81-1
 6805 0c95 0100     		.2byte	0x1
 6806 0c97 50       		.byte	0x50
 6807 0c98 07020000 		.4byte	.LVL81-1
 6808 0c9c 0C020000 		.4byte	.LVL82
 6809 0ca0 0100     		.2byte	0x1
 6810 0ca2 54       		.byte	0x54
 6811 0ca3 0E020000 		.4byte	.LVL83
 6812 0ca7 13020000 		.4byte	.LVL84-1
 6813 0cab 0100     		.2byte	0x1
 6814 0cad 50       		.byte	0x50
 6815 0cae 13020000 		.4byte	.LVL84-1
 6816 0cb2 2E020000 		.4byte	.LVL89
 6817 0cb6 0100     		.2byte	0x1
 6818 0cb8 54       		.byte	0x54
 6819 0cb9 00000000 		.4byte	0
 6820 0cbd 00000000 		.4byte	0
 6821              	.LLST59:
 6822 0cc1 74020000 		.4byte	.LVL100
 6823 0cc5 02030000 		.4byte	.LVL130
 6824 0cc9 0300     		.2byte	0x3
 6825 0ccb 91       		.byte	0x91
 6826 0ccc 54       		.sleb128 -44
 6827 0ccd 9F       		.byte	0x9f
 6828 0cce 02030000 		.4byte	.LVL130
 6829 0cd2 0C030000 		.4byte	.LVL132
 6830 0cd6 0100     		.2byte	0x1
 6831 0cd8 53       		.byte	0x53
 6832 0cd9 0C030000 		.4byte	.LVL132
 6833 0cdd 84030000 		.4byte	.LVL153
 6834 0ce1 0300     		.2byte	0x3
 6835 0ce3 91       		.byte	0x91
 6836 0ce4 54       		.sleb128 -44
 6837 0ce5 9F       		.byte	0x9f
 6838 0ce6 00000000 		.4byte	0
 6839 0cea 00000000 		.4byte	0
 6840              	.LLST60:
 6841 0cee 74020000 		.4byte	.LVL100
 6842 0cf2 FC020000 		.4byte	.LVL128
 6843 0cf6 0100     		.2byte	0x1
 6844 0cf8 56       		.byte	0x56
 6845 0cf9 FC020000 		.4byte	.LVL128
ARM GAS  C:\Users\kuzni\AppData\Local\Temp\ccqUPoDe.s 			page 139


 6846 0cfd 84030000 		.4byte	.LVL153
 6847 0d01 0100     		.2byte	0x1
 6848 0d03 59       		.byte	0x59
 6849 0d04 00000000 		.4byte	0
 6850 0d08 00000000 		.4byte	0
 6851              	.LLST61:
 6852 0d0c 74020000 		.4byte	.LVL100
 6853 0d10 80030000 		.4byte	.LVL152
 6854 0d14 0100     		.2byte	0x1
 6855 0d16 54       		.byte	0x54
 6856 0d17 00000000 		.4byte	0
 6857 0d1b 00000000 		.4byte	0
 6858              	.LLST62:
 6859 0d1f 74020000 		.4byte	.LVL100
 6860 0d23 84030000 		.4byte	.LVL153
 6861 0d27 0100     		.2byte	0x1
 6862 0d29 58       		.byte	0x58
 6863 0d2a 00000000 		.4byte	0
 6864 0d2e 00000000 		.4byte	0
 6865              	.LLST63:
 6866 0d32 74020000 		.4byte	.LVL100
 6867 0d36 7E020000 		.4byte	.LVL102
 6868 0d3a 0200     		.2byte	0x2
 6869 0d3c 30       		.byte	0x30
 6870 0d3d 9F       		.byte	0x9f
 6871 0d3e 7E020000 		.4byte	.LVL102
 6872 0d42 FE020000 		.4byte	.LVL129
 6873 0d46 0100     		.2byte	0x1
 6874 0d48 53       		.byte	0x53
 6875 0d49 00000000 		.4byte	0
 6876 0d4d 00000000 		.4byte	0
 6877              	.LLST64:
 6878 0d51 74020000 		.4byte	.LVL100
 6879 0d55 7E020000 		.4byte	.LVL102
 6880 0d59 0200     		.2byte	0x2
 6881 0d5b 30       		.byte	0x30
 6882 0d5c 9F       		.byte	0x9f
 6883 0d5d 7E020000 		.4byte	.LVL102
 6884 0d61 8A020000 		.4byte	.LVL104
 6885 0d65 0100     		.2byte	0x1
 6886 0d67 50       		.byte	0x50
 6887 0d68 8A020000 		.4byte	.LVL104
 6888 0d6c 90020000 		.4byte	.LVL105
 6889 0d70 0100     		.2byte	0x1
 6890 0d72 55       		.byte	0x55
 6891 0d73 90020000 		.4byte	.LVL105
 6892 0d77 96020000 		.4byte	.LVL107
 6893 0d7b 0300     		.2byte	0x3
 6894 0d7d 70       		.byte	0x70
 6895 0d7e 01       		.sleb128 1
 6896 0d7f 9F       		.byte	0x9f
 6897 0d80 96020000 		.4byte	.LVL107
 6898 0d84 9C020000 		.4byte	.LVL108
 6899 0d88 0100     		.2byte	0x1
 6900 0d8a 55       		.byte	0x55
 6901 0d8b 9C020000 		.4byte	.LVL108
 6902 0d8f A2020000 		.4byte	.LVL110
ARM GAS  C:\Users\kuzni\AppData\Local\Temp\ccqUPoDe.s 			page 140


 6903 0d93 0300     		.2byte	0x3
 6904 0d95 70       		.byte	0x70
 6905 0d96 02       		.sleb128 2
 6906 0d97 9F       		.byte	0x9f
 6907 0d98 A2020000 		.4byte	.LVL110
 6908 0d9c A8020000 		.4byte	.LVL111
 6909 0da0 0100     		.2byte	0x1
 6910 0da2 55       		.byte	0x55
 6911 0da3 A8020000 		.4byte	.LVL111
 6912 0da7 AE020000 		.4byte	.LVL113
 6913 0dab 0300     		.2byte	0x3
 6914 0dad 70       		.byte	0x70
 6915 0dae 03       		.sleb128 3
 6916 0daf 9F       		.byte	0x9f
 6917 0db0 AE020000 		.4byte	.LVL113
 6918 0db4 B4020000 		.4byte	.LVL114
 6919 0db8 0100     		.2byte	0x1
 6920 0dba 55       		.byte	0x55
 6921 0dbb B4020000 		.4byte	.LVL114
 6922 0dbf BA020000 		.4byte	.LVL116
 6923 0dc3 0300     		.2byte	0x3
 6924 0dc5 70       		.byte	0x70
 6925 0dc6 04       		.sleb128 4
 6926 0dc7 9F       		.byte	0x9f
 6927 0dc8 BA020000 		.4byte	.LVL116
 6928 0dcc C0020000 		.4byte	.LVL117
 6929 0dd0 0100     		.2byte	0x1
 6930 0dd2 55       		.byte	0x55
 6931 0dd3 C0020000 		.4byte	.LVL117
 6932 0dd7 C6020000 		.4byte	.LVL119
 6933 0ddb 0300     		.2byte	0x3
 6934 0ddd 70       		.byte	0x70
 6935 0dde 05       		.sleb128 5
 6936 0ddf 9F       		.byte	0x9f
 6937 0de0 C6020000 		.4byte	.LVL119
 6938 0de4 CC020000 		.4byte	.LVL120
 6939 0de8 0100     		.2byte	0x1
 6940 0dea 55       		.byte	0x55
 6941 0deb CC020000 		.4byte	.LVL120
 6942 0def D0020000 		.4byte	.LVL121
 6943 0df3 0300     		.2byte	0x3
 6944 0df5 70       		.byte	0x70
 6945 0df6 06       		.sleb128 6
 6946 0df7 9F       		.byte	0x9f
 6947 0df8 D0020000 		.4byte	.LVL121
 6948 0dfc D6020000 		.4byte	.LVL122
 6949 0e00 0100     		.2byte	0x1
 6950 0e02 51       		.byte	0x51
 6951 0e03 D6020000 		.4byte	.LVL122
 6952 0e07 DC020000 		.4byte	.LVL124
 6953 0e0b 0300     		.2byte	0x3
 6954 0e0d 70       		.byte	0x70
 6955 0e0e 07       		.sleb128 7
 6956 0e0f 9F       		.byte	0x9f
 6957 0e10 DC020000 		.4byte	.LVL124
 6958 0e14 FE020000 		.4byte	.LVL129
 6959 0e18 0100     		.2byte	0x1
ARM GAS  C:\Users\kuzni\AppData\Local\Temp\ccqUPoDe.s 			page 141


 6960 0e1a 50       		.byte	0x50
 6961 0e1b 00000000 		.4byte	0
 6962 0e1f 00000000 		.4byte	0
 6963              	.LLST65:
 6964 0e23 78020000 		.4byte	.LVL101
 6965 0e27 FA020000 		.4byte	.LVL127
 6966 0e2b 0100     		.2byte	0x1
 6967 0e2d 57       		.byte	0x57
 6968 0e2e FA020000 		.4byte	.LVL127
 6969 0e32 FC020000 		.4byte	.LVL128
 6970 0e36 0600     		.2byte	0x6
 6971 0e38 76       		.byte	0x76
 6972 0e39 00       		.sleb128 0
 6973 0e3a 09       		.byte	0x9
 6974 0e3b F8       		.byte	0xf8
 6975 0e3c 1A       		.byte	0x1a
 6976 0e3d 9F       		.byte	0x9f
 6977 0e3e FC020000 		.4byte	.LVL128
 6978 0e42 84030000 		.4byte	.LVL153
 6979 0e46 0600     		.2byte	0x6
 6980 0e48 79       		.byte	0x79
 6981 0e49 00       		.sleb128 0
 6982 0e4a 09       		.byte	0x9
 6983 0e4b F8       		.byte	0xf8
 6984 0e4c 1A       		.byte	0x1a
 6985 0e4d 9F       		.byte	0x9f
 6986 0e4e 00000000 		.4byte	0
 6987 0e52 00000000 		.4byte	0
 6988              	.LLST66:
 6989 0e56 FA020000 		.4byte	.LVL127
 6990 0e5a 84030000 		.4byte	.LVL153
 6991 0e5e 0300     		.2byte	0x3
 6992 0e60 91       		.byte	0x91
 6993 0e61 C000     		.sleb128 64
 6994 0e63 00000000 		.4byte	0
 6995 0e67 00000000 		.4byte	0
 6996              	.LLST67:
 6997 0e6b FA020000 		.4byte	.LVL127
 6998 0e6f 84030000 		.4byte	.LVL153
 6999 0e73 0300     		.2byte	0x3
 7000 0e75 91       		.byte	0x91
 7001 0e76 B07F     		.sleb128 -80
 7002 0e78 00000000 		.4byte	0
 7003 0e7c 00000000 		.4byte	0
 7004              	.LLST68:
 7005 0e80 FA020000 		.4byte	.LVL127
 7006 0e84 84030000 		.4byte	.LVL153
 7007 0e88 0900     		.2byte	0x9
 7008 0e8a 77       		.byte	0x77
 7009 0e8b 00       		.sleb128 0
 7010 0e8c 03       		.byte	0x3
 7011 0e8d 00090000 		.4byte	sumscale
 7012 0e91 22       		.byte	0x22
 7013 0e92 9F       		.byte	0x9f
 7014 0e93 00000000 		.4byte	0
 7015 0e97 00000000 		.4byte	0
 7016              	.LLST69:
ARM GAS  C:\Users\kuzni\AppData\Local\Temp\ccqUPoDe.s 			page 142


 7017 0e9b FA020000 		.4byte	.LVL127
 7018 0e9f 7E030000 		.4byte	.LVL151
 7019 0ea3 0300     		.2byte	0x3
 7020 0ea5 91       		.byte	0x91
 7021 0ea6 A87F     		.sleb128 -88
 7022 0ea8 00000000 		.4byte	0
 7023 0eac 00000000 		.4byte	0
 7024              	.LLST70:
 7025 0eb0 FA020000 		.4byte	.LVL127
 7026 0eb4 84030000 		.4byte	.LVL153
 7027 0eb8 0200     		.2byte	0x2
 7028 0eba 91       		.byte	0x91
 7029 0ebb 18       		.sleb128 24
 7030 0ebc 00000000 		.4byte	0
 7031 0ec0 00000000 		.4byte	0
 7032              	.LLST71:
 7033 0ec4 FA020000 		.4byte	.LVL127
 7034 0ec8 84030000 		.4byte	.LVL153
 7035 0ecc 0800     		.2byte	0x8
 7036 0ece 91       		.byte	0x91
 7037 0ecf A47F     		.sleb128 -92
 7038 0ed1 06       		.byte	0x6
 7039 0ed2 77       		.byte	0x77
 7040 0ed3 00       		.sleb128 0
 7041 0ed4 22       		.byte	0x22
 7042 0ed5 9F       		.byte	0x9f
 7043 0ed6 00000000 		.4byte	0
 7044 0eda 00000000 		.4byte	0
 7045              	.LLST72:
 7046 0ede FA020000 		.4byte	.LVL127
 7047 0ee2 02030000 		.4byte	.LVL130
 7048 0ee6 0300     		.2byte	0x3
 7049 0ee8 91       		.byte	0x91
 7050 0ee9 54       		.sleb128 -44
 7051 0eea 9F       		.byte	0x9f
 7052 0eeb 02030000 		.4byte	.LVL130
 7053 0eef 0C030000 		.4byte	.LVL132
 7054 0ef3 0100     		.2byte	0x1
 7055 0ef5 53       		.byte	0x53
 7056 0ef6 0C030000 		.4byte	.LVL132
 7057 0efa 84030000 		.4byte	.LVL153
 7058 0efe 0300     		.2byte	0x3
 7059 0f00 91       		.byte	0x91
 7060 0f01 54       		.sleb128 -44
 7061 0f02 9F       		.byte	0x9f
 7062 0f03 00000000 		.4byte	0
 7063 0f07 00000000 		.4byte	0
 7064              	.LLST73:
 7065 0f0b FA020000 		.4byte	.LVL127
 7066 0f0f 84030000 		.4byte	.LVL153
 7067 0f13 0200     		.2byte	0x2
 7068 0f15 31       		.byte	0x31
 7069 0f16 9F       		.byte	0x9f
 7070 0f17 00000000 		.4byte	0
 7071 0f1b 00000000 		.4byte	0
 7072              	.LLST74:
 7073 0f1f FA020000 		.4byte	.LVL127
ARM GAS  C:\Users\kuzni\AppData\Local\Temp\ccqUPoDe.s 			page 143


 7074 0f23 FE020000 		.4byte	.LVL129
 7075 0f27 0200     		.2byte	0x2
 7076 0f29 30       		.byte	0x30
 7077 0f2a 9F       		.byte	0x9f
 7078 0f2b FE020000 		.4byte	.LVL129
 7079 0f2f 84030000 		.4byte	.LVL153
 7080 0f33 0100     		.2byte	0x1
 7081 0f35 56       		.byte	0x56
 7082 0f36 00000000 		.4byte	0
 7083 0f3a 00000000 		.4byte	0
 7084              	.LLST75:
 7085 0f3e 06030000 		.4byte	.LVL131
 7086 0f42 0E030000 		.4byte	.LVL133
 7087 0f46 0100     		.2byte	0x1
 7088 0f48 50       		.byte	0x50
 7089 0f49 0E030000 		.4byte	.LVL133
 7090 0f4d 10030000 		.4byte	.LVL134
 7091 0f51 0600     		.2byte	0x6
 7092 0f53 70       		.byte	0x70
 7093 0f54 00       		.sleb128 0
 7094 0f55 73       		.byte	0x73
 7095 0f56 00       		.sleb128 0
 7096 0f57 22       		.byte	0x22
 7097 0f58 9F       		.byte	0x9f
 7098 0f59 10030000 		.4byte	.LVL134
 7099 0f5d 13030000 		.4byte	.LVL135-1
 7100 0f61 0100     		.2byte	0x1
 7101 0f63 50       		.byte	0x50
 7102 0f64 00000000 		.4byte	0
 7103 0f68 00000000 		.4byte	0
 7104              	.LLST76:
 7105 0f6c 22030000 		.4byte	.LVL137
 7106 0f70 33030000 		.4byte	.LVL138-1
 7107 0f74 0100     		.2byte	0x1
 7108 0f76 50       		.byte	0x50
 7109 0f77 33030000 		.4byte	.LVL138-1
 7110 0f7b 38030000 		.4byte	.LVL139
 7111 0f7f 0100     		.2byte	0x1
 7112 0f81 55       		.byte	0x55
 7113 0f82 3A030000 		.4byte	.LVL140
 7114 0f86 3F030000 		.4byte	.LVL141-1
 7115 0f8a 0100     		.2byte	0x1
 7116 0f8c 50       		.byte	0x50
 7117 0f8d 3F030000 		.4byte	.LVL141-1
 7118 0f91 5A030000 		.4byte	.LVL146
 7119 0f95 0100     		.2byte	0x1
 7120 0f97 55       		.byte	0x55
 7121 0f98 00000000 		.4byte	0
 7122 0f9c 00000000 		.4byte	0
 7123              	.LLST77:
 7124 0fa0 F6030000 		.4byte	.LVL169
 7125 0fa4 F8030000 		.4byte	.LVL170
 7126 0fa8 0100     		.2byte	0x1
 7127 0faa 53       		.byte	0x53
 7128 0fab F8030000 		.4byte	.LVL170
 7129 0faf F8070000 		.4byte	.LVL310
 7130 0fb3 0300     		.2byte	0x3
ARM GAS  C:\Users\kuzni\AppData\Local\Temp\ccqUPoDe.s 			page 144


 7131 0fb5 91       		.byte	0x91
 7132 0fb6 BC7F     		.sleb128 -68
 7133 0fb8 00000000 		.4byte	0
 7134 0fbc 00000000 		.4byte	0
 7135              	.LLST78:
 7136 0fc0 08040000 		.4byte	.LVL173
 7137 0fc4 36040000 		.4byte	.LVL177
 7138 0fc8 0100     		.2byte	0x1
 7139 0fca 53       		.byte	0x53
 7140 0fcb 36040000 		.4byte	.LVL177
 7141 0fcf 88040000 		.4byte	.LVL190
 7142 0fd3 0C00     		.2byte	0xc
 7143 0fd5 91       		.byte	0x91
 7144 0fd6 44       		.sleb128 -60
 7145 0fd7 06       		.byte	0x6
 7146 0fd8 91       		.byte	0x91
 7147 0fd9 08       		.sleb128 8
 7148 0fda 06       		.byte	0x6
 7149 0fdb 1E       		.byte	0x1e
 7150 0fdc 91       		.byte	0x91
 7151 0fdd 24       		.sleb128 36
 7152 0fde 06       		.byte	0x6
 7153 0fdf 1C       		.byte	0x1c
 7154 0fe0 9F       		.byte	0x9f
 7155 0fe1 88040000 		.4byte	.LVL190
 7156 0fe5 C4040000 		.4byte	.LVL199
 7157 0fe9 0100     		.2byte	0x1
 7158 0feb 53       		.byte	0x53
 7159 0fec C4040000 		.4byte	.LVL199
 7160 0ff0 E6070000 		.4byte	.LVL309
 7161 0ff4 0C00     		.2byte	0xc
 7162 0ff6 91       		.byte	0x91
 7163 0ff7 44       		.sleb128 -60
 7164 0ff8 06       		.byte	0x6
 7165 0ff9 91       		.byte	0x91
 7166 0ffa 08       		.sleb128 8
 7167 0ffb 06       		.byte	0x6
 7168 0ffc 1E       		.byte	0x1e
 7169 0ffd 91       		.byte	0x91
 7170 0ffe 24       		.sleb128 36
 7171 0fff 06       		.byte	0x6
 7172 1000 1C       		.byte	0x1c
 7173 1001 9F       		.byte	0x9f
 7174 1002 00000000 		.4byte	0
 7175 1006 00000000 		.4byte	0
 7176              	.LLST79:
 7177 100a 48050000 		.4byte	.LVL218
 7178 100e 6A050000 		.4byte	.LVL219
 7179 1012 0600     		.2byte	0x6
 7180 1014 03       		.byte	0x3
 7181 1015 00000000 		.4byte	sbuf
 7182 1019 9F       		.byte	0x9f
 7183 101a 6A050000 		.4byte	.LVL219
 7184 101e 80060000 		.4byte	.LVL248
 7185 1022 0100     		.2byte	0x1
 7186 1024 5A       		.byte	0x5a
 7187 1025 80060000 		.4byte	.LVL248
ARM GAS  C:\Users\kuzni\AppData\Local\Temp\ccqUPoDe.s 			page 145


 7188 1029 88060000 		.4byte	.LVL249
 7189 102d 0600     		.2byte	0x6
 7190 102f 03       		.byte	0x3
 7191 1030 00000000 		.4byte	sbuf
 7192 1034 9F       		.byte	0x9f
 7193 1035 88060000 		.4byte	.LVL249
 7194 1039 94060000 		.4byte	.LVL250
 7195 103d 0100     		.2byte	0x1
 7196 103f 5A       		.byte	0x5a
 7197 1040 94060000 		.4byte	.LVL250
 7198 1044 C8070000 		.4byte	.LVL306
 7199 1048 0100     		.2byte	0x1
 7200 104a 54       		.byte	0x54
 7201 104b C8070000 		.4byte	.LVL306
 7202 104f D2070000 		.4byte	.LVL307
 7203 1053 0600     		.2byte	0x6
 7204 1055 03       		.byte	0x3
 7205 1056 00000000 		.4byte	sbuf
 7206 105a 9F       		.byte	0x9f
 7207 105b D2070000 		.4byte	.LVL307
 7208 105f E0070000 		.4byte	.LVL308
 7209 1063 0100     		.2byte	0x1
 7210 1065 54       		.byte	0x54
 7211 1066 00000000 		.4byte	0
 7212 106a 00000000 		.4byte	0
 7213              	.LLST80:
 7214 106e 3E040000 		.4byte	.LVL178
 7215 1072 88040000 		.4byte	.LVL190
 7216 1076 0100     		.2byte	0x1
 7217 1078 5E       		.byte	0x5e
 7218 1079 00000000 		.4byte	0
 7219 107d 00000000 		.4byte	0
 7220              	.LLST81:
 7221 1081 3E040000 		.4byte	.LVL178
 7222 1085 4A040000 		.4byte	.LVL180
 7223 1089 0100     		.2byte	0x1
 7224 108b 5E       		.byte	0x5e
 7225 108c 4A040000 		.4byte	.LVL180
 7226 1090 6C040000 		.4byte	.LVL185
 7227 1094 0100     		.2byte	0x1
 7228 1096 54       		.byte	0x54
 7229 1097 72040000 		.4byte	.LVL186
 7230 109b 74040000 		.4byte	.LVL187
 7231 109f 0100     		.2byte	0x1
 7232 10a1 54       		.byte	0x54
 7233 10a2 76040000 		.4byte	.LVL188
 7234 10a6 88040000 		.4byte	.LVL190
 7235 10aa 0100     		.2byte	0x1
 7236 10ac 54       		.byte	0x54
 7237 10ad 00000000 		.4byte	0
 7238 10b1 00000000 		.4byte	0
 7239              	.LLST82:
 7240 10b5 3E040000 		.4byte	.LVL178
 7241 10b9 4A040000 		.4byte	.LVL180
 7242 10bd 0200     		.2byte	0x2
 7243 10bf 30       		.byte	0x30
 7244 10c0 9F       		.byte	0x9f
ARM GAS  C:\Users\kuzni\AppData\Local\Temp\ccqUPoDe.s 			page 146


 7245 10c1 4A040000 		.4byte	.LVL180
 7246 10c5 88040000 		.4byte	.LVL190
 7247 10c9 0100     		.2byte	0x1
 7248 10cb 55       		.byte	0x55
 7249 10cc 00000000 		.4byte	0
 7250 10d0 00000000 		.4byte	0
 7251              	.LLST83:
 7252 10d4 3E040000 		.4byte	.LVL178
 7253 10d8 4A040000 		.4byte	.LVL180
 7254 10dc 0200     		.2byte	0x2
 7255 10de 30       		.byte	0x30
 7256 10df 9F       		.byte	0x9f
 7257 10e0 4A040000 		.4byte	.LVL180
 7258 10e4 88040000 		.4byte	.LVL190
 7259 10e8 0100     		.2byte	0x1
 7260 10ea 56       		.byte	0x56
 7261 10eb 00000000 		.4byte	0
 7262 10ef 00000000 		.4byte	0
 7263              	.LLST84:
 7264 10f3 4A040000 		.4byte	.LVL180
 7265 10f7 60040000 		.4byte	.LVL182
 7266 10fb 0100     		.2byte	0x1
 7267 10fd 53       		.byte	0x53
 7268 10fe 62040000 		.4byte	.LVL183
 7269 1102 78040000 		.4byte	.LVL189
 7270 1106 0100     		.2byte	0x1
 7271 1108 53       		.byte	0x53
 7272 1109 00000000 		.4byte	0
 7273 110d 00000000 		.4byte	0
 7274              	.LLST85:
 7275 1111 98040000 		.4byte	.LVL192
 7276 1115 48050000 		.4byte	.LVL218
 7277 1119 0300     		.2byte	0x3
 7278 111b 91       		.byte	0x91
 7279 111c B47F     		.sleb128 -76
 7280 111e 00000000 		.4byte	0
 7281 1122 00000000 		.4byte	0
 7282              	.LLST86:
 7283 1126 A6040000 		.4byte	.LVL193
 7284 112a 48050000 		.4byte	.LVL218
 7285 112e 0100     		.2byte	0x1
 7286 1130 5A       		.byte	0x5a
 7287 1131 00000000 		.4byte	0
 7288 1135 00000000 		.4byte	0
 7289              	.LLST87:
 7290 1139 B4040000 		.4byte	.LVL195
 7291 113d BE040000 		.4byte	.LVL198
 7292 1141 0100     		.2byte	0x1
 7293 1143 51       		.byte	0x51
 7294 1144 BE040000 		.4byte	.LVL198
 7295 1148 48050000 		.4byte	.LVL218
 7296 114c 0100     		.2byte	0x1
 7297 114e 55       		.byte	0x55
 7298 114f 00000000 		.4byte	0
 7299 1153 00000000 		.4byte	0
 7300              	.LLST88:
 7301 1157 BC040000 		.4byte	.LVL197
ARM GAS  C:\Users\kuzni\AppData\Local\Temp\ccqUPoDe.s 			page 147


 7302 115b 48050000 		.4byte	.LVL218
 7303 115f 0100     		.2byte	0x1
 7304 1161 54       		.byte	0x54
 7305 1162 00000000 		.4byte	0
 7306 1166 00000000 		.4byte	0
 7307              	.LLST89:
 7308 116a BC040000 		.4byte	.LVL197
 7309 116e F2040000 		.4byte	.LVL203
 7310 1172 0200     		.2byte	0x2
 7311 1174 30       		.byte	0x30
 7312 1175 9F       		.byte	0x9f
 7313 1176 F2040000 		.4byte	.LVL203
 7314 117a 48050000 		.4byte	.LVL218
 7315 117e 0100     		.2byte	0x1
 7316 1180 5C       		.byte	0x5c
 7317 1181 00000000 		.4byte	0
 7318 1185 00000000 		.4byte	0
 7319              	.LLST90:
 7320 1189 BC040000 		.4byte	.LVL197
 7321 118d BE040000 		.4byte	.LVL198
 7322 1191 0E00     		.2byte	0xe
 7323 1193 71       		.byte	0x71
 7324 1194 00       		.sleb128 0
 7325 1195 91       		.byte	0x91
 7326 1196 B47F     		.sleb128 -76
 7327 1198 06       		.byte	0x6
 7328 1199 1C       		.byte	0x1c
 7329 119a 74       		.byte	0x74
 7330 119b 00       		.sleb128 0
 7331 119c 7A       		.byte	0x7a
 7332 119d 00       		.sleb128 0
 7333 119e 1C       		.byte	0x1c
 7334 119f 1E       		.byte	0x1e
 7335 11a0 9F       		.byte	0x9f
 7336 11a1 BE040000 		.4byte	.LVL198
 7337 11a5 48050000 		.4byte	.LVL218
 7338 11a9 0E00     		.2byte	0xe
 7339 11ab 75       		.byte	0x75
 7340 11ac 00       		.sleb128 0
 7341 11ad 91       		.byte	0x91
 7342 11ae B47F     		.sleb128 -76
 7343 11b0 06       		.byte	0x6
 7344 11b1 1C       		.byte	0x1c
 7345 11b2 74       		.byte	0x74
 7346 11b3 00       		.sleb128 0
 7347 11b4 7A       		.byte	0x7a
 7348 11b5 00       		.sleb128 0
 7349 11b6 1C       		.byte	0x1c
 7350 11b7 1E       		.byte	0x1e
 7351 11b8 9F       		.byte	0x9f
 7352 11b9 00000000 		.4byte	0
 7353 11bd 00000000 		.4byte	0
 7354              	.LLST91:
 7355 11c1 CE040000 		.4byte	.LVL201
 7356 11c5 48050000 		.4byte	.LVL218
 7357 11c9 0100     		.2byte	0x1
 7358 11cb 5B       		.byte	0x5b
ARM GAS  C:\Users\kuzni\AppData\Local\Temp\ccqUPoDe.s 			page 148


 7359 11cc 00000000 		.4byte	0
 7360 11d0 00000000 		.4byte	0
 7361              	.LLST92:
 7362 11d4 CE040000 		.4byte	.LVL201
 7363 11d8 F2040000 		.4byte	.LVL203
 7364 11dc 0100     		.2byte	0x1
 7365 11de 5B       		.byte	0x5b
 7366 11df F2040000 		.4byte	.LVL203
 7367 11e3 2A050000 		.4byte	.LVL213
 7368 11e7 0100     		.2byte	0x1
 7369 11e9 5E       		.byte	0x5e
 7370 11ea 30050000 		.4byte	.LVL214
 7371 11ee 34050000 		.4byte	.LVL215
 7372 11f2 0100     		.2byte	0x1
 7373 11f4 5E       		.byte	0x5e
 7374 11f5 36050000 		.4byte	.LVL216
 7375 11f9 48050000 		.4byte	.LVL218
 7376 11fd 0100     		.2byte	0x1
 7377 11ff 5E       		.byte	0x5e
 7378 1200 00000000 		.4byte	0
 7379 1204 00000000 		.4byte	0
 7380              	.LLST93:
 7381 1208 E8040000 		.4byte	.LVL202
 7382 120c F2040000 		.4byte	.LVL203
 7383 1210 0200     		.2byte	0x2
 7384 1212 30       		.byte	0x30
 7385 1213 9F       		.byte	0x9f
 7386 1214 F2040000 		.4byte	.LVL203
 7387 1218 48050000 		.4byte	.LVL218
 7388 121c 0100     		.2byte	0x1
 7389 121e 58       		.byte	0x58
 7390 121f 00000000 		.4byte	0
 7391 1223 00000000 		.4byte	0
 7392              	.LLST94:
 7393 1227 F2040000 		.4byte	.LVL203
 7394 122b 1A050000 		.4byte	.LVL210
 7395 122f 0100     		.2byte	0x1
 7396 1231 56       		.byte	0x56
 7397 1232 1C050000 		.4byte	.LVL211
 7398 1236 3A050000 		.4byte	.LVL217
 7399 123a 0100     		.2byte	0x1
 7400 123c 56       		.byte	0x56
 7401 123d 00000000 		.4byte	0
 7402 1241 00000000 		.4byte	0
 7403              	.LLST95:
 7404 1245 F2040000 		.4byte	.LVL203
 7405 1249 10050000 		.4byte	.LVL207
 7406 124d 0100     		.2byte	0x1
 7407 124f 52       		.byte	0x52
 7408 1250 12050000 		.4byte	.LVL208
 7409 1254 1A050000 		.4byte	.LVL210
 7410 1258 0100     		.2byte	0x1
 7411 125a 52       		.byte	0x52
 7412 125b 00000000 		.4byte	0
 7413 125f 00000000 		.4byte	0
 7414              	.LLST96:
 7415 1263 F6040000 		.4byte	.LVL204
ARM GAS  C:\Users\kuzni\AppData\Local\Temp\ccqUPoDe.s 			page 149


 7416 1267 08050000 		.4byte	.LVL205
 7417 126b 0100     		.2byte	0x1
 7418 126d 50       		.byte	0x50
 7419 126e 08050000 		.4byte	.LVL205
 7420 1272 0E050000 		.4byte	.LVL206
 7421 1276 0900     		.2byte	0x9
 7422 1278 77       		.byte	0x77
 7423 1279 00       		.sleb128 0
 7424 127a 76       		.byte	0x76
 7425 127b 00       		.sleb128 0
 7426 127c 1E       		.byte	0x1e
 7427 127d 72       		.byte	0x72
 7428 127e 00       		.sleb128 0
 7429 127f 22       		.byte	0x22
 7430 1280 9F       		.byte	0x9f
 7431 1281 0E050000 		.4byte	.LVL206
 7432 1285 10050000 		.4byte	.LVL207
 7433 1289 0B00     		.2byte	0xb
 7434 128b 77       		.byte	0x77
 7435 128c 00       		.sleb128 0
 7436 128d 76       		.byte	0x76
 7437 128e 00       		.sleb128 0
 7438 128f 1E       		.byte	0x1e
 7439 1290 72       		.byte	0x72
 7440 1291 00       		.sleb128 0
 7441 1292 22       		.byte	0x22
 7442 1293 31       		.byte	0x31
 7443 1294 1C       		.byte	0x1c
 7444 1295 9F       		.byte	0x9f
 7445 1296 00000000 		.4byte	0
 7446 129a 00000000 		.4byte	0
 7447              	.LLST97:
 7448 129e 6A050000 		.4byte	.LVL219
 7449 12a2 80060000 		.4byte	.LVL248
 7450 12a6 0100     		.2byte	0x1
 7451 12a8 5B       		.byte	0x5b
 7452 12a9 88060000 		.4byte	.LVL249
 7453 12ad 94060000 		.4byte	.LVL250
 7454 12b1 0100     		.2byte	0x1
 7455 12b3 5B       		.byte	0x5b
 7456 12b4 00000000 		.4byte	0
 7457 12b8 00000000 		.4byte	0
 7458              	.LLST98:
 7459 12bc 7A050000 		.4byte	.LVL220
 7460 12c0 E0050000 		.4byte	.LVL221
 7461 12c4 0100     		.2byte	0x1
 7462 12c6 53       		.byte	0x53
 7463 12c7 E0050000 		.4byte	.LVL221
 7464 12cb 7E060000 		.4byte	.LVL247
 7465 12cf 1000     		.2byte	0x10
 7466 12d1 91       		.byte	0x91
 7467 12d2 A07F     		.sleb128 -96
 7468 12d4 06       		.byte	0x6
 7469 12d5 7B       		.byte	0x7b
 7470 12d6 00       		.sleb128 0
 7471 12d7 1E       		.byte	0x1e
 7472 12d8 79       		.byte	0x79
ARM GAS  C:\Users\kuzni\AppData\Local\Temp\ccqUPoDe.s 			page 150


 7473 12d9 00       		.sleb128 0
 7474 12da 1E       		.byte	0x1e
 7475 12db 91       		.byte	0x91
 7476 12dc 9C7F     		.sleb128 -100
 7477 12de 06       		.byte	0x6
 7478 12df 22       		.byte	0x22
 7479 12e0 9F       		.byte	0x9f
 7480 12e1 7E060000 		.4byte	.LVL247
 7481 12e5 80060000 		.4byte	.LVL248
 7482 12e9 1000     		.2byte	0x10
 7483 12eb 7B       		.byte	0x7b
 7484 12ec 7F       		.sleb128 -1
 7485 12ed 91       		.byte	0x91
 7486 12ee A07F     		.sleb128 -96
 7487 12f0 06       		.byte	0x6
 7488 12f1 1E       		.byte	0x1e
 7489 12f2 79       		.byte	0x79
 7490 12f3 00       		.sleb128 0
 7491 12f4 1E       		.byte	0x1e
 7492 12f5 91       		.byte	0x91
 7493 12f6 9C7F     		.sleb128 -100
 7494 12f8 06       		.byte	0x6
 7495 12f9 22       		.byte	0x22
 7496 12fa 9F       		.byte	0x9f
 7497 12fb 00000000 		.4byte	0
 7498 12ff 00000000 		.4byte	0
 7499              	.LLST99:
 7500 1303 7A050000 		.4byte	.LVL220
 7501 1307 F2050000 		.4byte	.LVL224
 7502 130b 0300     		.2byte	0x3
 7503 130d 91       		.byte	0x91
 7504 130e 4C       		.sleb128 -52
 7505 130f 9F       		.byte	0x9f
 7506 1310 F2050000 		.4byte	.LVL224
 7507 1314 FC050000 		.4byte	.LVL226
 7508 1318 0100     		.2byte	0x1
 7509 131a 53       		.byte	0x53
 7510 131b FC050000 		.4byte	.LVL226
 7511 131f 80060000 		.4byte	.LVL248
 7512 1323 0300     		.2byte	0x3
 7513 1325 91       		.byte	0x91
 7514 1326 4C       		.sleb128 -52
 7515 1327 9F       		.byte	0x9f
 7516 1328 00000000 		.4byte	0
 7517 132c 00000000 		.4byte	0
 7518              	.LLST101:
 7519 1330 7A050000 		.4byte	.LVL220
 7520 1334 7A060000 		.4byte	.LVL246
 7521 1338 0100     		.2byte	0x1
 7522 133a 5A       		.byte	0x5a
 7523 133b 00000000 		.4byte	0
 7524 133f 00000000 		.4byte	0
 7525              	.LLST102:
 7526 1343 EA050000 		.4byte	.LVL222
 7527 1347 80060000 		.4byte	.LVL248
 7528 134b 0300     		.2byte	0x3
 7529 134d 91       		.byte	0x91
ARM GAS  C:\Users\kuzni\AppData\Local\Temp\ccqUPoDe.s 			page 151


 7530 134e C000     		.sleb128 64
 7531 1350 00000000 		.4byte	0
 7532 1354 00000000 		.4byte	0
 7533              	.LLST103:
 7534 1358 EA050000 		.4byte	.LVL222
 7535 135c 80060000 		.4byte	.LVL248
 7536 1360 0300     		.2byte	0x3
 7537 1362 91       		.byte	0x91
 7538 1363 B07F     		.sleb128 -80
 7539 1365 00000000 		.4byte	0
 7540 1369 00000000 		.4byte	0
 7541              	.LLST104:
 7542 136d EA050000 		.4byte	.LVL222
 7543 1371 80060000 		.4byte	.LVL248
 7544 1375 0900     		.2byte	0x9
 7545 1377 76       		.byte	0x76
 7546 1378 00       		.sleb128 0
 7547 1379 03       		.byte	0x3
 7548 137a 00090000 		.4byte	sumscale
 7549 137e 22       		.byte	0x22
 7550 137f 9F       		.byte	0x9f
 7551 1380 00000000 		.4byte	0
 7552 1384 00000000 		.4byte	0
 7553              	.LLST105:
 7554 1388 EA050000 		.4byte	.LVL222
 7555 138c 78060000 		.4byte	.LVL245
 7556 1390 0300     		.2byte	0x3
 7557 1392 91       		.byte	0x91
 7558 1393 A87F     		.sleb128 -88
 7559 1395 00000000 		.4byte	0
 7560 1399 00000000 		.4byte	0
 7561              	.LLST106:
 7562 139d EA050000 		.4byte	.LVL222
 7563 13a1 80060000 		.4byte	.LVL248
 7564 13a5 0200     		.2byte	0x2
 7565 13a7 91       		.byte	0x91
 7566 13a8 18       		.sleb128 24
 7567 13a9 00000000 		.4byte	0
 7568 13ad 00000000 		.4byte	0
 7569              	.LLST107:
 7570 13b1 EA050000 		.4byte	.LVL222
 7571 13b5 80060000 		.4byte	.LVL248
 7572 13b9 0800     		.2byte	0x8
 7573 13bb 91       		.byte	0x91
 7574 13bc A47F     		.sleb128 -92
 7575 13be 06       		.byte	0x6
 7576 13bf 76       		.byte	0x76
 7577 13c0 00       		.sleb128 0
 7578 13c1 22       		.byte	0x22
 7579 13c2 9F       		.byte	0x9f
 7580 13c3 00000000 		.4byte	0
 7581 13c7 00000000 		.4byte	0
 7582              	.LLST108:
 7583 13cb EA050000 		.4byte	.LVL222
 7584 13cf F2050000 		.4byte	.LVL224
 7585 13d3 0300     		.2byte	0x3
 7586 13d5 91       		.byte	0x91
ARM GAS  C:\Users\kuzni\AppData\Local\Temp\ccqUPoDe.s 			page 152


 7587 13d6 4C       		.sleb128 -52
 7588 13d7 9F       		.byte	0x9f
 7589 13d8 F2050000 		.4byte	.LVL224
 7590 13dc FC050000 		.4byte	.LVL226
 7591 13e0 0100     		.2byte	0x1
 7592 13e2 53       		.byte	0x53
 7593 13e3 FC050000 		.4byte	.LVL226
 7594 13e7 80060000 		.4byte	.LVL248
 7595 13eb 0300     		.2byte	0x3
 7596 13ed 91       		.byte	0x91
 7597 13ee 4C       		.sleb128 -52
 7598 13ef 9F       		.byte	0x9f
 7599 13f0 00000000 		.4byte	0
 7600 13f4 00000000 		.4byte	0
 7601              	.LLST109:
 7602 13f8 EA050000 		.4byte	.LVL222
 7603 13fc 80060000 		.4byte	.LVL248
 7604 1400 0200     		.2byte	0x2
 7605 1402 31       		.byte	0x31
 7606 1403 9F       		.byte	0x9f
 7607 1404 00000000 		.4byte	0
 7608 1408 00000000 		.4byte	0
 7609              	.LLST110:
 7610 140c EA050000 		.4byte	.LVL222
 7611 1410 EE050000 		.4byte	.LVL223
 7612 1414 0200     		.2byte	0x2
 7613 1416 30       		.byte	0x30
 7614 1417 9F       		.byte	0x9f
 7615 1418 EE050000 		.4byte	.LVL223
 7616 141c 80060000 		.4byte	.LVL248
 7617 1420 0100     		.2byte	0x1
 7618 1422 55       		.byte	0x55
 7619 1423 00000000 		.4byte	0
 7620 1427 00000000 		.4byte	0
 7621              	.LLST111:
 7622 142b F6050000 		.4byte	.LVL225
 7623 142f FE050000 		.4byte	.LVL227
 7624 1433 0100     		.2byte	0x1
 7625 1435 50       		.byte	0x50
 7626 1436 FE050000 		.4byte	.LVL227
 7627 143a 00060000 		.4byte	.LVL228
 7628 143e 0600     		.2byte	0x6
 7629 1440 70       		.byte	0x70
 7630 1441 00       		.sleb128 0
 7631 1442 73       		.byte	0x73
 7632 1443 00       		.sleb128 0
 7633 1444 22       		.byte	0x22
 7634 1445 9F       		.byte	0x9f
 7635 1446 00060000 		.4byte	.LVL228
 7636 144a 03060000 		.4byte	.LVL229-1
 7637 144e 0100     		.2byte	0x1
 7638 1450 50       		.byte	0x50
 7639 1451 00000000 		.4byte	0
 7640 1455 00000000 		.4byte	0
 7641              	.LLST112:
 7642 1459 12060000 		.4byte	.LVL231
 7643 145d 23060000 		.4byte	.LVL232-1
ARM GAS  C:\Users\kuzni\AppData\Local\Temp\ccqUPoDe.s 			page 153


 7644 1461 0100     		.2byte	0x1
 7645 1463 50       		.byte	0x50
 7646 1464 23060000 		.4byte	.LVL232-1
 7647 1468 28060000 		.4byte	.LVL233
 7648 146c 0100     		.2byte	0x1
 7649 146e 54       		.byte	0x54
 7650 146f 34060000 		.4byte	.LVL234
 7651 1473 39060000 		.4byte	.LVL235-1
 7652 1477 0100     		.2byte	0x1
 7653 1479 50       		.byte	0x50
 7654 147a 39060000 		.4byte	.LVL235-1
 7655 147e 54060000 		.4byte	.LVL240
 7656 1482 0100     		.2byte	0x1
 7657 1484 54       		.byte	0x54
 7658 1485 00000000 		.4byte	0
 7659 1489 00000000 		.4byte	0
 7660              	.LLST113:
 7661 148d 94060000 		.4byte	.LVL250
 7662 1491 C8070000 		.4byte	.LVL306
 7663 1495 0100     		.2byte	0x1
 7664 1497 58       		.byte	0x58
 7665 1498 D2070000 		.4byte	.LVL307
 7666 149c E0070000 		.4byte	.LVL308
 7667 14a0 0100     		.2byte	0x1
 7668 14a2 58       		.byte	0x58
 7669 14a3 00000000 		.4byte	0
 7670 14a7 00000000 		.4byte	0
 7671              	.LLST114:
 7672 14ab A0060000 		.4byte	.LVL251
 7673 14af 42070000 		.4byte	.LVL281
 7674 14b3 0100     		.2byte	0x1
 7675 14b5 50       		.byte	0x50
 7676 14b6 42070000 		.4byte	.LVL281
 7677 14ba C6070000 		.4byte	.LVL305
 7678 14be 1000     		.2byte	0x10
 7679 14c0 91       		.byte	0x91
 7680 14c1 A07F     		.sleb128 -96
 7681 14c3 06       		.byte	0x6
 7682 14c4 78       		.byte	0x78
 7683 14c5 00       		.sleb128 0
 7684 14c6 1E       		.byte	0x1e
 7685 14c7 79       		.byte	0x79
 7686 14c8 00       		.sleb128 0
 7687 14c9 1E       		.byte	0x1e
 7688 14ca 91       		.byte	0x91
 7689 14cb 9C7F     		.sleb128 -100
 7690 14cd 06       		.byte	0x6
 7691 14ce 22       		.byte	0x22
 7692 14cf 9F       		.byte	0x9f
 7693 14d0 C6070000 		.4byte	.LVL305
 7694 14d4 C8070000 		.4byte	.LVL306
 7695 14d8 1000     		.2byte	0x10
 7696 14da 78       		.byte	0x78
 7697 14db 7F       		.sleb128 -1
 7698 14dc 91       		.byte	0x91
 7699 14dd A07F     		.sleb128 -96
 7700 14df 06       		.byte	0x6
ARM GAS  C:\Users\kuzni\AppData\Local\Temp\ccqUPoDe.s 			page 154


 7701 14e0 1E       		.byte	0x1e
 7702 14e1 79       		.byte	0x79
 7703 14e2 00       		.sleb128 0
 7704 14e3 1E       		.byte	0x1e
 7705 14e4 91       		.byte	0x91
 7706 14e5 9C7F     		.sleb128 -100
 7707 14e7 06       		.byte	0x6
 7708 14e8 22       		.byte	0x22
 7709 14e9 9F       		.byte	0x9f
 7710 14ea 00000000 		.4byte	0
 7711 14ee 00000000 		.4byte	0
 7712              	.LLST115:
 7713 14f2 A4060000 		.4byte	.LVL252
 7714 14f6 46070000 		.4byte	.LVL282
 7715 14fa 0300     		.2byte	0x3
 7716 14fc 91       		.byte	0x91
 7717 14fd 4C       		.sleb128 -52
 7718 14fe 9F       		.byte	0x9f
 7719 14ff 46070000 		.4byte	.LVL282
 7720 1503 50070000 		.4byte	.LVL284
 7721 1507 0100     		.2byte	0x1
 7722 1509 53       		.byte	0x53
 7723 150a 50070000 		.4byte	.LVL284
 7724 150e C8070000 		.4byte	.LVL306
 7725 1512 0300     		.2byte	0x3
 7726 1514 91       		.byte	0x91
 7727 1515 4C       		.sleb128 -52
 7728 1516 9F       		.byte	0x9f
 7729 1517 00000000 		.4byte	0
 7730 151b 00000000 		.4byte	0
 7731              	.LLST116:
 7732 151f A4060000 		.4byte	.LVL252
 7733 1523 AC060000 		.4byte	.LVL254
 7734 1527 0100     		.2byte	0x1
 7735 1529 53       		.byte	0x53
 7736 152a AC060000 		.4byte	.LVL254
 7737 152e 42070000 		.4byte	.LVL281
 7738 1532 0100     		.2byte	0x1
 7739 1534 56       		.byte	0x56
 7740 1535 42070000 		.4byte	.LVL281
 7741 1539 C8070000 		.4byte	.LVL306
 7742 153d 0300     		.2byte	0x3
 7743 153f 91       		.byte	0x91
 7744 1540 B47F     		.sleb128 -76
 7745 1542 00000000 		.4byte	0
 7746 1546 00000000 		.4byte	0
 7747              	.LLST117:
 7748 154a A4060000 		.4byte	.LVL252
 7749 154e 42070000 		.4byte	.LVL281
 7750 1552 0100     		.2byte	0x1
 7751 1554 50       		.byte	0x50
 7752 1555 42070000 		.4byte	.LVL281
 7753 1559 C6070000 		.4byte	.LVL305
 7754 155d 1000     		.2byte	0x10
 7755 155f 91       		.byte	0x91
 7756 1560 A07F     		.sleb128 -96
 7757 1562 06       		.byte	0x6
ARM GAS  C:\Users\kuzni\AppData\Local\Temp\ccqUPoDe.s 			page 155


 7758 1563 78       		.byte	0x78
 7759 1564 00       		.sleb128 0
 7760 1565 1E       		.byte	0x1e
 7761 1566 79       		.byte	0x79
 7762 1567 00       		.sleb128 0
 7763 1568 1E       		.byte	0x1e
 7764 1569 91       		.byte	0x91
 7765 156a 9C7F     		.sleb128 -100
 7766 156c 06       		.byte	0x6
 7767 156d 22       		.byte	0x22
 7768 156e 9F       		.byte	0x9f
 7769 156f C6070000 		.4byte	.LVL305
 7770 1573 C8070000 		.4byte	.LVL306
 7771 1577 1000     		.2byte	0x10
 7772 1579 78       		.byte	0x78
 7773 157a 7F       		.sleb128 -1
 7774 157b 91       		.byte	0x91
 7775 157c A07F     		.sleb128 -96
 7776 157e 06       		.byte	0x6
 7777 157f 1E       		.byte	0x1e
 7778 1580 79       		.byte	0x79
 7779 1581 00       		.sleb128 0
 7780 1582 1E       		.byte	0x1e
 7781 1583 91       		.byte	0x91
 7782 1584 9C7F     		.sleb128 -100
 7783 1586 06       		.byte	0x6
 7784 1587 22       		.byte	0x22
 7785 1588 9F       		.byte	0x9f
 7786 1589 00000000 		.4byte	0
 7787 158d 00000000 		.4byte	0
 7788              	.LLST118:
 7789 1591 A4060000 		.4byte	.LVL252
 7790 1595 C2070000 		.4byte	.LVL304
 7791 1599 0100     		.2byte	0x1
 7792 159b 54       		.byte	0x54
 7793 159c 00000000 		.4byte	0
 7794 15a0 00000000 		.4byte	0
 7795              	.LLST119:
 7796 15a4 A4060000 		.4byte	.LVL252
 7797 15a8 AE060000 		.4byte	.LVL255
 7798 15ac 0200     		.2byte	0x2
 7799 15ae 30       		.byte	0x30
 7800 15af 9F       		.byte	0x9f
 7801 15b0 AE060000 		.4byte	.LVL255
 7802 15b4 42070000 		.4byte	.LVL281
 7803 15b8 0100     		.2byte	0x1
 7804 15ba 53       		.byte	0x53
 7805 15bb 00000000 		.4byte	0
 7806 15bf 00000000 		.4byte	0
 7807              	.LLST120:
 7808 15c3 A4060000 		.4byte	.LVL252
 7809 15c7 AE060000 		.4byte	.LVL255
 7810 15cb 0200     		.2byte	0x2
 7811 15cd 30       		.byte	0x30
 7812 15ce 9F       		.byte	0x9f
 7813 15cf AE060000 		.4byte	.LVL255
 7814 15d3 BC060000 		.4byte	.LVL257
ARM GAS  C:\Users\kuzni\AppData\Local\Temp\ccqUPoDe.s 			page 156


 7815 15d7 0100     		.2byte	0x1
 7816 15d9 51       		.byte	0x51
 7817 15da BC060000 		.4byte	.LVL257
 7818 15de C4060000 		.4byte	.LVL258
 7819 15e2 0100     		.2byte	0x1
 7820 15e4 5C       		.byte	0x5c
 7821 15e5 C4060000 		.4byte	.LVL258
 7822 15e9 CC060000 		.4byte	.LVL260
 7823 15ed 0300     		.2byte	0x3
 7824 15ef 71       		.byte	0x71
 7825 15f0 01       		.sleb128 1
 7826 15f1 9F       		.byte	0x9f
 7827 15f2 CC060000 		.4byte	.LVL260
 7828 15f6 D4060000 		.4byte	.LVL261
 7829 15fa 0100     		.2byte	0x1
 7830 15fc 5C       		.byte	0x5c
 7831 15fd D4060000 		.4byte	.LVL261
 7832 1601 DC060000 		.4byte	.LVL263
 7833 1605 0300     		.2byte	0x3
 7834 1607 71       		.byte	0x71
 7835 1608 02       		.sleb128 2
 7836 1609 9F       		.byte	0x9f
 7837 160a DC060000 		.4byte	.LVL263
 7838 160e E4060000 		.4byte	.LVL264
 7839 1612 0100     		.2byte	0x1
 7840 1614 5C       		.byte	0x5c
 7841 1615 E4060000 		.4byte	.LVL264
 7842 1619 EC060000 		.4byte	.LVL266
 7843 161d 0300     		.2byte	0x3
 7844 161f 71       		.byte	0x71
 7845 1620 03       		.sleb128 3
 7846 1621 9F       		.byte	0x9f
 7847 1622 EC060000 		.4byte	.LVL266
 7848 1626 F4060000 		.4byte	.LVL267
 7849 162a 0100     		.2byte	0x1
 7850 162c 5C       		.byte	0x5c
 7851 162d F4060000 		.4byte	.LVL267
 7852 1631 FC060000 		.4byte	.LVL269
 7853 1635 0300     		.2byte	0x3
 7854 1637 71       		.byte	0x71
 7855 1638 04       		.sleb128 4
 7856 1639 9F       		.byte	0x9f
 7857 163a FC060000 		.4byte	.LVL269
 7858 163e 04070000 		.4byte	.LVL270
 7859 1642 0100     		.2byte	0x1
 7860 1644 5C       		.byte	0x5c
 7861 1645 04070000 		.4byte	.LVL270
 7862 1649 0C070000 		.4byte	.LVL272
 7863 164d 0300     		.2byte	0x3
 7864 164f 71       		.byte	0x71
 7865 1650 05       		.sleb128 5
 7866 1651 9F       		.byte	0x9f
 7867 1652 0C070000 		.4byte	.LVL272
 7868 1656 14070000 		.4byte	.LVL273
 7869 165a 0100     		.2byte	0x1
 7870 165c 5C       		.byte	0x5c
 7871 165d 14070000 		.4byte	.LVL273
ARM GAS  C:\Users\kuzni\AppData\Local\Temp\ccqUPoDe.s 			page 157


 7872 1661 18070000 		.4byte	.LVL274
 7873 1665 0300     		.2byte	0x3
 7874 1667 71       		.byte	0x71
 7875 1668 06       		.sleb128 6
 7876 1669 9F       		.byte	0x9f
 7877 166a 18070000 		.4byte	.LVL274
 7878 166e 1C070000 		.4byte	.LVL275
 7879 1672 0100     		.2byte	0x1
 7880 1674 52       		.byte	0x52
 7881 1675 1C070000 		.4byte	.LVL275
 7882 1679 22070000 		.4byte	.LVL277
 7883 167d 0300     		.2byte	0x3
 7884 167f 71       		.byte	0x71
 7885 1680 07       		.sleb128 7
 7886 1681 9F       		.byte	0x9f
 7887 1682 22070000 		.4byte	.LVL277
 7888 1686 42070000 		.4byte	.LVL281
 7889 168a 0100     		.2byte	0x1
 7890 168c 51       		.byte	0x51
 7891 168d 00000000 		.4byte	0
 7892 1691 00000000 		.4byte	0
 7893              	.LLST121:
 7894 1695 A8060000 		.4byte	.LVL253
 7895 1699 42070000 		.4byte	.LVL281
 7896 169d 0100     		.2byte	0x1
 7897 169f 5E       		.byte	0x5e
 7898 16a0 42070000 		.4byte	.LVL281
 7899 16a4 C8070000 		.4byte	.LVL306
 7900 16a8 0800     		.2byte	0x8
 7901 16aa 91       		.byte	0x91
 7902 16ab B47F     		.sleb128 -76
 7903 16ad 06       		.byte	0x6
 7904 16ae 09       		.byte	0x9
 7905 16af F8       		.byte	0xf8
 7906 16b0 1A       		.byte	0x1a
 7907 16b1 9F       		.byte	0x9f
 7908 16b2 00000000 		.4byte	0
 7909 16b6 00000000 		.4byte	0
 7910              	.LLST122:
 7911 16ba 3E070000 		.4byte	.LVL280
 7912 16be C8070000 		.4byte	.LVL306
 7913 16c2 0300     		.2byte	0x3
 7914 16c4 91       		.byte	0x91
 7915 16c5 C000     		.sleb128 64
 7916 16c7 00000000 		.4byte	0
 7917 16cb 00000000 		.4byte	0
 7918              	.LLST123:
 7919 16cf 3E070000 		.4byte	.LVL280
 7920 16d3 C8070000 		.4byte	.LVL306
 7921 16d7 0300     		.2byte	0x3
 7922 16d9 91       		.byte	0x91
 7923 16da B07F     		.sleb128 -80
 7924 16dc 00000000 		.4byte	0
 7925 16e0 00000000 		.4byte	0
 7926              	.LLST124:
 7927 16e4 3E070000 		.4byte	.LVL280
 7928 16e8 C8070000 		.4byte	.LVL306
ARM GAS  C:\Users\kuzni\AppData\Local\Temp\ccqUPoDe.s 			page 158


 7929 16ec 0900     		.2byte	0x9
 7930 16ee 7A       		.byte	0x7a
 7931 16ef 00       		.sleb128 0
 7932 16f0 03       		.byte	0x3
 7933 16f1 00090000 		.4byte	sumscale
 7934 16f5 22       		.byte	0x22
 7935 16f6 9F       		.byte	0x9f
 7936 16f7 00000000 		.4byte	0
 7937 16fb 00000000 		.4byte	0
 7938              	.LLST125:
 7939 16ff 3E070000 		.4byte	.LVL280
 7940 1703 BC070000 		.4byte	.LVL303
 7941 1707 0100     		.2byte	0x1
 7942 1709 57       		.byte	0x57
 7943 170a BC070000 		.4byte	.LVL303
 7944 170e C8070000 		.4byte	.LVL306
 7945 1712 0300     		.2byte	0x3
 7946 1714 77       		.byte	0x77
 7947 1715 7F       		.sleb128 -1
 7948 1716 9F       		.byte	0x9f
 7949 1717 00000000 		.4byte	0
 7950 171b 00000000 		.4byte	0
 7951              	.LLST126:
 7952 171f 3E070000 		.4byte	.LVL280
 7953 1723 C8070000 		.4byte	.LVL306
 7954 1727 0200     		.2byte	0x2
 7955 1729 91       		.byte	0x91
 7956 172a 18       		.sleb128 24
 7957 172b 00000000 		.4byte	0
 7958 172f 00000000 		.4byte	0
 7959              	.LLST127:
 7960 1733 3E070000 		.4byte	.LVL280
 7961 1737 C8070000 		.4byte	.LVL306
 7962 173b 0800     		.2byte	0x8
 7963 173d 91       		.byte	0x91
 7964 173e A47F     		.sleb128 -92
 7965 1740 06       		.byte	0x6
 7966 1741 7A       		.byte	0x7a
 7967 1742 00       		.sleb128 0
 7968 1743 22       		.byte	0x22
 7969 1744 9F       		.byte	0x9f
 7970 1745 00000000 		.4byte	0
 7971 1749 00000000 		.4byte	0
 7972              	.LLST128:
 7973 174d 3E070000 		.4byte	.LVL280
 7974 1751 46070000 		.4byte	.LVL282
 7975 1755 0300     		.2byte	0x3
 7976 1757 91       		.byte	0x91
 7977 1758 4C       		.sleb128 -52
 7978 1759 9F       		.byte	0x9f
 7979 175a 46070000 		.4byte	.LVL282
 7980 175e 50070000 		.4byte	.LVL284
 7981 1762 0100     		.2byte	0x1
 7982 1764 53       		.byte	0x53
 7983 1765 50070000 		.4byte	.LVL284
 7984 1769 C8070000 		.4byte	.LVL306
 7985 176d 0300     		.2byte	0x3
ARM GAS  C:\Users\kuzni\AppData\Local\Temp\ccqUPoDe.s 			page 159


 7986 176f 91       		.byte	0x91
 7987 1770 4C       		.sleb128 -52
 7988 1771 9F       		.byte	0x9f
 7989 1772 00000000 		.4byte	0
 7990 1776 00000000 		.4byte	0
 7991              	.LLST129:
 7992 177a 3E070000 		.4byte	.LVL280
 7993 177e C8070000 		.4byte	.LVL306
 7994 1782 0200     		.2byte	0x2
 7995 1784 31       		.byte	0x31
 7996 1785 9F       		.byte	0x9f
 7997 1786 00000000 		.4byte	0
 7998 178a 00000000 		.4byte	0
 7999              	.LLST130:
 8000 178e 3E070000 		.4byte	.LVL280
 8001 1792 42070000 		.4byte	.LVL281
 8002 1796 0200     		.2byte	0x2
 8003 1798 30       		.byte	0x30
 8004 1799 9F       		.byte	0x9f
 8005 179a 42070000 		.4byte	.LVL281
 8006 179e C8070000 		.4byte	.LVL306
 8007 17a2 0100     		.2byte	0x1
 8008 17a4 55       		.byte	0x55
 8009 17a5 00000000 		.4byte	0
 8010 17a9 00000000 		.4byte	0
 8011              	.LLST131:
 8012 17ad 4A070000 		.4byte	.LVL283
 8013 17b1 52070000 		.4byte	.LVL285
 8014 17b5 0100     		.2byte	0x1
 8015 17b7 50       		.byte	0x50
 8016 17b8 52070000 		.4byte	.LVL285
 8017 17bc 54070000 		.4byte	.LVL286
 8018 17c0 0600     		.2byte	0x6
 8019 17c2 70       		.byte	0x70
 8020 17c3 00       		.sleb128 0
 8021 17c4 73       		.byte	0x73
 8022 17c5 00       		.sleb128 0
 8023 17c6 22       		.byte	0x22
 8024 17c7 9F       		.byte	0x9f
 8025 17c8 54070000 		.4byte	.LVL286
 8026 17cc 57070000 		.4byte	.LVL287-1
 8027 17d0 0100     		.2byte	0x1
 8028 17d2 50       		.byte	0x50
 8029 17d3 00000000 		.4byte	0
 8030 17d7 00000000 		.4byte	0
 8031              	.LLST132:
 8032 17db 66070000 		.4byte	.LVL289
 8033 17df 77070000 		.4byte	.LVL290-1
 8034 17e3 0100     		.2byte	0x1
 8035 17e5 50       		.byte	0x50
 8036 17e6 77070000 		.4byte	.LVL290-1
 8037 17ea 7C070000 		.4byte	.LVL291
 8038 17ee 0100     		.2byte	0x1
 8039 17f0 56       		.byte	0x56
 8040 17f1 7E070000 		.4byte	.LVL292
 8041 17f5 83070000 		.4byte	.LVL293-1
 8042 17f9 0100     		.2byte	0x1
ARM GAS  C:\Users\kuzni\AppData\Local\Temp\ccqUPoDe.s 			page 160


 8043 17fb 50       		.byte	0x50
 8044 17fc 83070000 		.4byte	.LVL293-1
 8045 1800 9E070000 		.4byte	.LVL298
 8046 1804 0100     		.2byte	0x1
 8047 1806 56       		.byte	0x56
 8048 1807 00000000 		.4byte	0
 8049 180b 00000000 		.4byte	0
 8050              	.LLST133:
 8051 180f 00000000 		.4byte	.LVL325
 8052 1813 10000000 		.4byte	.LVL327
 8053 1817 0100     		.2byte	0x1
 8054 1819 50       		.byte	0x50
 8055 181a 10000000 		.4byte	.LVL327
 8056 181e 86000000 		.4byte	.LFE7
 8057 1822 0100     		.2byte	0x1
 8058 1824 54       		.byte	0x54
 8059 1825 00000000 		.4byte	0
 8060 1829 00000000 		.4byte	0
 8061              	.LLST134:
 8062 182d 00000000 		.4byte	.LVL325
 8063 1831 10000000 		.4byte	.LVL327
 8064 1835 0100     		.2byte	0x1
 8065 1837 51       		.byte	0x51
 8066 1838 10000000 		.4byte	.LVL327
 8067 183c 86000000 		.4byte	.LFE7
 8068 1840 0100     		.2byte	0x1
 8069 1842 56       		.byte	0x56
 8070 1843 00000000 		.4byte	0
 8071 1847 00000000 		.4byte	0
 8072              	.LLST135:
 8073 184b 00000000 		.4byte	.LVL325
 8074 184f 10000000 		.4byte	.LVL327
 8075 1853 0100     		.2byte	0x1
 8076 1855 52       		.byte	0x52
 8077 1856 10000000 		.4byte	.LVL327
 8078 185a 86000000 		.4byte	.LFE7
 8079 185e 0100     		.2byte	0x1
 8080 1860 59       		.byte	0x59
 8081 1861 00000000 		.4byte	0
 8082 1865 00000000 		.4byte	0
 8083              	.LLST136:
 8084 1869 00000000 		.4byte	.LVL325
 8085 186d 10000000 		.4byte	.LVL327
 8086 1871 0100     		.2byte	0x1
 8087 1873 53       		.byte	0x53
 8088 1874 10000000 		.4byte	.LVL327
 8089 1878 86000000 		.4byte	.LFE7
 8090 187c 0100     		.2byte	0x1
 8091 187e 58       		.byte	0x58
 8092 187f 00000000 		.4byte	0
 8093 1883 00000000 		.4byte	0
 8094              	.LLST137:
 8095 1887 16000000 		.4byte	.LVL328
 8096 188b 42000000 		.4byte	.LVL336
 8097 188f 0100     		.2byte	0x1
 8098 1891 52       		.byte	0x52
 8099 1892 00000000 		.4byte	0
ARM GAS  C:\Users\kuzni\AppData\Local\Temp\ccqUPoDe.s 			page 161


 8100 1896 00000000 		.4byte	0
 8101              	.LLST138:
 8102 189a 0C000000 		.4byte	.LVL326
 8103 189e 10000000 		.4byte	.LVL327
 8104 18a2 0200     		.2byte	0x2
 8105 18a4 30       		.byte	0x30
 8106 18a5 9F       		.byte	0x9f
 8107 18a6 10000000 		.4byte	.LVL327
 8108 18aa 86000000 		.4byte	.LFE7
 8109 18ae 0100     		.2byte	0x1
 8110 18b0 55       		.byte	0x55
 8111 18b1 00000000 		.4byte	0
 8112 18b5 00000000 		.4byte	0
 8113              	.LLST139:
 8114 18b9 10000000 		.4byte	.LVL327
 8115 18bd 1E000000 		.4byte	.LVL329
 8116 18c1 0200     		.2byte	0x2
 8117 18c3 30       		.byte	0x30
 8118 18c4 9F       		.byte	0x9f
 8119 18c5 1E000000 		.4byte	.LVL329
 8120 18c9 4A000000 		.4byte	.LVL337
 8121 18cd 0100     		.2byte	0x1
 8122 18cf 50       		.byte	0x50
 8123 18d0 00000000 		.4byte	0
 8124 18d4 00000000 		.4byte	0
 8125              	.LLST140:
 8126 18d8 16000000 		.4byte	.LVL328
 8127 18dc 1E000000 		.4byte	.LVL329
 8128 18e0 0200     		.2byte	0x2
 8129 18e2 30       		.byte	0x30
 8130 18e3 9F       		.byte	0x9f
 8131 18e4 1E000000 		.4byte	.LVL329
 8132 18e8 51000000 		.4byte	.LVL338-1
 8133 18ec 0100     		.2byte	0x1
 8134 18ee 5C       		.byte	0x5c
 8135 18ef 00000000 		.4byte	0
 8136 18f3 00000000 		.4byte	0
 8137              	.LLST141:
 8138 18f7 16000000 		.4byte	.LVL328
 8139 18fb 1E000000 		.4byte	.LVL329
 8140 18ff 0200     		.2byte	0x2
 8141 1901 30       		.byte	0x30
 8142 1902 9F       		.byte	0x9f
 8143 1903 1E000000 		.4byte	.LVL329
 8144 1907 2A000000 		.4byte	.LVL333
 8145 190b 0100     		.2byte	0x1
 8146 190d 53       		.byte	0x53
 8147 190e 2C000000 		.4byte	.LVL334
 8148 1912 36000000 		.4byte	.LVL335
 8149 1916 0100     		.2byte	0x1
 8150 1918 53       		.byte	0x53
 8151 1919 00000000 		.4byte	0
 8152 191d 00000000 		.4byte	0
 8153              	.LLST142:
 8154 1921 00000000 		.4byte	.LVL345
 8155 1925 12000000 		.4byte	.LVL347
 8156 1929 0100     		.2byte	0x1
ARM GAS  C:\Users\kuzni\AppData\Local\Temp\ccqUPoDe.s 			page 162


 8157 192b 50       		.byte	0x50
 8158 192c 12000000 		.4byte	.LVL347
 8159 1930 F4000000 		.4byte	.LFE8
 8160 1934 0100     		.2byte	0x1
 8161 1936 57       		.byte	0x57
 8162 1937 00000000 		.4byte	0
 8163 193b 00000000 		.4byte	0
 8164              	.LLST143:
 8165 193f 00000000 		.4byte	.LVL345
 8166 1943 12000000 		.4byte	.LVL347
 8167 1947 0100     		.2byte	0x1
 8168 1949 51       		.byte	0x51
 8169 194a 12000000 		.4byte	.LVL347
 8170 194e F4000000 		.4byte	.LFE8
 8171 1952 0100     		.2byte	0x1
 8172 1954 56       		.byte	0x56
 8173 1955 00000000 		.4byte	0
 8174 1959 00000000 		.4byte	0
 8175              	.LLST144:
 8176 195d 00000000 		.4byte	.LVL345
 8177 1961 12000000 		.4byte	.LVL347
 8178 1965 0100     		.2byte	0x1
 8179 1967 52       		.byte	0x52
 8180 1968 12000000 		.4byte	.LVL347
 8181 196c F4000000 		.4byte	.LFE8
 8182 1970 0100     		.2byte	0x1
 8183 1972 59       		.byte	0x59
 8184 1973 00000000 		.4byte	0
 8185 1977 00000000 		.4byte	0
 8186              	.LLST145:
 8187 197b 00000000 		.4byte	.LVL345
 8188 197f 12000000 		.4byte	.LVL347
 8189 1983 0100     		.2byte	0x1
 8190 1985 53       		.byte	0x53
 8191 1986 12000000 		.4byte	.LVL347
 8192 198a F4000000 		.4byte	.LFE8
 8193 198e 0100     		.2byte	0x1
 8194 1990 58       		.byte	0x58
 8195 1991 00000000 		.4byte	0
 8196 1995 00000000 		.4byte	0
 8197              	.LLST146:
 8198 1999 0E000000 		.4byte	.LVL346
 8199 199d 12000000 		.4byte	.LVL347
 8200 19a1 0200     		.2byte	0x2
 8201 19a3 30       		.byte	0x30
 8202 19a4 9F       		.byte	0x9f
 8203 19a5 12000000 		.4byte	.LVL347
 8204 19a9 F4000000 		.4byte	.LFE8
 8205 19ad 0100     		.2byte	0x1
 8206 19af 55       		.byte	0x55
 8207 19b0 00000000 		.4byte	0
 8208 19b4 00000000 		.4byte	0
 8209              	.LLST147:
 8210 19b8 12000000 		.4byte	.LVL347
 8211 19bc B0000000 		.4byte	.LVL375
 8212 19c0 0200     		.2byte	0x2
 8213 19c2 30       		.byte	0x30
ARM GAS  C:\Users\kuzni\AppData\Local\Temp\ccqUPoDe.s 			page 163


 8214 19c3 9F       		.byte	0x9f
 8215 19c4 B0000000 		.4byte	.LVL375
 8216 19c8 B6000000 		.4byte	.LVL377
 8217 19cc 0600     		.2byte	0x6
 8218 19ce 70       		.byte	0x70
 8219 19cf 00       		.sleb128 0
 8220 19d0 73       		.byte	0x73
 8221 19d1 00       		.sleb128 0
 8222 19d2 22       		.byte	0x22
 8223 19d3 9F       		.byte	0x9f
 8224 19d4 B6000000 		.4byte	.LVL377
 8225 19d8 B9000000 		.4byte	.LVL378-1
 8226 19dc 0100     		.2byte	0x1
 8227 19de 50       		.byte	0x50
 8228 19df 00000000 		.4byte	0
 8229 19e3 00000000 		.4byte	0
 8230              	.LLST148:
 8231 19e7 1C000000 		.4byte	.LVL348
 8232 19eb E8000000 		.4byte	.LVL386
 8233 19ef 0600     		.2byte	0x6
 8234 19f1 F2       		.byte	0xf2
 8235 19f2 270E0000 		.4byte	.Ldebug_info0+3623
 8236 19f6 00       		.sleb128 0
 8237 19f7 00000000 		.4byte	0
 8238 19fb 00000000 		.4byte	0
 8239              	.LLST149:
 8240 19ff 1C000000 		.4byte	.LVL348
 8241 1a03 20000000 		.4byte	.LVL349
 8242 1a07 0100     		.2byte	0x1
 8243 1a09 5A       		.byte	0x5a
 8244 1a0a 20000000 		.4byte	.LVL349
 8245 1a0e D0000000 		.4byte	.LVL382
 8246 1a12 0100     		.2byte	0x1
 8247 1a14 5B       		.byte	0x5b
 8248 1a15 00000000 		.4byte	0
 8249 1a19 00000000 		.4byte	0
 8250              	.LLST150:
 8251 1a1d 1C000000 		.4byte	.LVL348
 8252 1a21 B9000000 		.4byte	.LVL378-1
 8253 1a25 0100     		.2byte	0x1
 8254 1a27 5E       		.byte	0x5e
 8255 1a28 B9000000 		.4byte	.LVL378-1
 8256 1a2c D0000000 		.4byte	.LVL382
 8257 1a30 0900     		.2byte	0x9
 8258 1a32 75       		.byte	0x75
 8259 1a33 00       		.sleb128 0
 8260 1a34 7B       		.byte	0x7b
 8261 1a35 00       		.sleb128 0
 8262 1a36 1E       		.byte	0x1e
 8263 1a37 79       		.byte	0x79
 8264 1a38 00       		.sleb128 0
 8265 1a39 22       		.byte	0x22
 8266 1a3a 9F       		.byte	0x9f
 8267 1a3b 00000000 		.4byte	0
 8268 1a3f 00000000 		.4byte	0
 8269              	.LLST151:
 8270 1a43 1C000000 		.4byte	.LVL348
ARM GAS  C:\Users\kuzni\AppData\Local\Temp\ccqUPoDe.s 			page 164


 8271 1a47 E8000000 		.4byte	.LVL386
 8272 1a4b 0100     		.2byte	0x1
 8273 1a4d 54       		.byte	0x54
 8274 1a4e 00000000 		.4byte	0
 8275 1a52 00000000 		.4byte	0
 8276              	.LLST152:
 8277 1a56 1C000000 		.4byte	.LVL348
 8278 1a5a 26000000 		.4byte	.LVL350
 8279 1a5e 0200     		.2byte	0x2
 8280 1a60 30       		.byte	0x30
 8281 1a61 9F       		.byte	0x9f
 8282 1a62 26000000 		.4byte	.LVL350
 8283 1a66 5C000000 		.4byte	.LVL360
 8284 1a6a 0100     		.2byte	0x1
 8285 1a6c 53       		.byte	0x53
 8286 1a6d 5C000000 		.4byte	.LVL360
 8287 1a71 68000000 		.4byte	.LVL363
 8288 1a75 0100     		.2byte	0x1
 8289 1a77 5C       		.byte	0x5c
 8290 1a78 68000000 		.4byte	.LVL363
 8291 1a7c 78000000 		.4byte	.LVL366
 8292 1a80 0100     		.2byte	0x1
 8293 1a82 52       		.byte	0x52
 8294 1a83 78000000 		.4byte	.LVL366
 8295 1a87 B9000000 		.4byte	.LVL378-1
 8296 1a8b 0100     		.2byte	0x1
 8297 1a8d 53       		.byte	0x53
 8298 1a8e 00000000 		.4byte	0
 8299 1a92 00000000 		.4byte	0
 8300              	.LLST153:
 8301 1a96 1C000000 		.4byte	.LVL348
 8302 1a9a 26000000 		.4byte	.LVL350
 8303 1a9e 0200     		.2byte	0x2
 8304 1aa0 30       		.byte	0x30
 8305 1aa1 9F       		.byte	0x9f
 8306 1aa2 26000000 		.4byte	.LVL350
 8307 1aa6 32000000 		.4byte	.LVL352
 8308 1aaa 0100     		.2byte	0x1
 8309 1aac 51       		.byte	0x51
 8310 1aad 32000000 		.4byte	.LVL352
 8311 1ab1 3A000000 		.4byte	.LVL353
 8312 1ab5 0100     		.2byte	0x1
 8313 1ab7 52       		.byte	0x52
 8314 1ab8 3A000000 		.4byte	.LVL353
 8315 1abc 40000000 		.4byte	.LVL355
 8316 1ac0 0300     		.2byte	0x3
 8317 1ac2 71       		.byte	0x71
 8318 1ac3 01       		.sleb128 1
 8319 1ac4 9F       		.byte	0x9f
 8320 1ac5 40000000 		.4byte	.LVL355
 8321 1ac9 48000000 		.4byte	.LVL356
 8322 1acd 0100     		.2byte	0x1
 8323 1acf 52       		.byte	0x52
 8324 1ad0 48000000 		.4byte	.LVL356
 8325 1ad4 50000000 		.4byte	.LVL358
 8326 1ad8 0300     		.2byte	0x3
 8327 1ada 71       		.byte	0x71
ARM GAS  C:\Users\kuzni\AppData\Local\Temp\ccqUPoDe.s 			page 165


 8328 1adb 02       		.sleb128 2
 8329 1adc 9F       		.byte	0x9f
 8330 1add 50000000 		.4byte	.LVL358
 8331 1ae1 58000000 		.4byte	.LVL359
 8332 1ae5 0100     		.2byte	0x1
 8333 1ae7 5C       		.byte	0x5c
 8334 1ae8 58000000 		.4byte	.LVL359
 8335 1aec 5E000000 		.4byte	.LVL361
 8336 1af0 0300     		.2byte	0x3
 8337 1af2 71       		.byte	0x71
 8338 1af3 03       		.sleb128 3
 8339 1af4 9F       		.byte	0x9f
 8340 1af5 5E000000 		.4byte	.LVL361
 8341 1af9 64000000 		.4byte	.LVL362
 8342 1afd 0100     		.2byte	0x1
 8343 1aff 52       		.byte	0x52
 8344 1b00 64000000 		.4byte	.LVL362
 8345 1b04 6C000000 		.4byte	.LVL364
 8346 1b08 0300     		.2byte	0x3
 8347 1b0a 71       		.byte	0x71
 8348 1b0b 04       		.sleb128 4
 8349 1b0c 9F       		.byte	0x9f
 8350 1b0d 6C000000 		.4byte	.LVL364
 8351 1b11 74000000 		.4byte	.LVL365
 8352 1b15 0100     		.2byte	0x1
 8353 1b17 5C       		.byte	0x5c
 8354 1b18 74000000 		.4byte	.LVL365
 8355 1b1c 7C000000 		.4byte	.LVL367
 8356 1b20 0300     		.2byte	0x3
 8357 1b22 71       		.byte	0x71
 8358 1b23 05       		.sleb128 5
 8359 1b24 9F       		.byte	0x9f
 8360 1b25 7C000000 		.4byte	.LVL367
 8361 1b29 84000000 		.4byte	.LVL368
 8362 1b2d 0100     		.2byte	0x1
 8363 1b2f 5C       		.byte	0x5c
 8364 1b30 84000000 		.4byte	.LVL368
 8365 1b34 88000000 		.4byte	.LVL369
 8366 1b38 0300     		.2byte	0x3
 8367 1b3a 71       		.byte	0x71
 8368 1b3b 06       		.sleb128 6
 8369 1b3c 9F       		.byte	0x9f
 8370 1b3d 88000000 		.4byte	.LVL369
 8371 1b41 8E000000 		.4byte	.LVL370
 8372 1b45 0100     		.2byte	0x1
 8373 1b47 50       		.byte	0x50
 8374 1b48 8E000000 		.4byte	.LVL370
 8375 1b4c 94000000 		.4byte	.LVL372
 8376 1b50 0300     		.2byte	0x3
 8377 1b52 71       		.byte	0x71
 8378 1b53 07       		.sleb128 7
 8379 1b54 9F       		.byte	0x9f
 8380 1b55 94000000 		.4byte	.LVL372
 8381 1b59 B9000000 		.4byte	.LVL378-1
 8382 1b5d 0100     		.2byte	0x1
 8383 1b5f 51       		.byte	0x51
 8384 1b60 00000000 		.4byte	0
ARM GAS  C:\Users\kuzni\AppData\Local\Temp\ccqUPoDe.s 			page 166


 8385 1b64 00000000 		.4byte	0
 8386              	.LLST154:
 8387 1b68 20000000 		.4byte	.LVL349
 8388 1b6c B4000000 		.4byte	.LVL376
 8389 1b70 0100     		.2byte	0x1
 8390 1b72 5A       		.byte	0x5a
 8391 1b73 B4000000 		.4byte	.LVL376
 8392 1b77 D0000000 		.4byte	.LVL382
 8393 1b7b 0600     		.2byte	0x6
 8394 1b7d 7B       		.byte	0x7b
 8395 1b7e 00       		.sleb128 0
 8396 1b7f 09       		.byte	0x9
 8397 1b80 F8       		.byte	0xf8
 8398 1b81 1A       		.byte	0x1a
 8399 1b82 9F       		.byte	0x9f
 8400 1b83 00000000 		.4byte	0
 8401 1b87 00000000 		.4byte	0
 8402              	.LLST155:
 8403 1b8b 00000000 		.4byte	.LVL387
 8404 1b8f 1C000000 		.4byte	.LVL390
 8405 1b93 0100     		.2byte	0x1
 8406 1b95 50       		.byte	0x50
 8407 1b96 1C000000 		.4byte	.LVL390
 8408 1b9a 20010000 		.4byte	.LVL431
 8409 1b9e 0100     		.2byte	0x1
 8410 1ba0 57       		.byte	0x57
 8411 1ba1 20010000 		.4byte	.LVL431
 8412 1ba5 38010000 		.4byte	.LFE9
 8413 1ba9 0400     		.2byte	0x4
 8414 1bab F3       		.byte	0xf3
 8415 1bac 01       		.uleb128 0x1
 8416 1bad 50       		.byte	0x50
 8417 1bae 9F       		.byte	0x9f
 8418 1baf 00000000 		.4byte	0
 8419 1bb3 00000000 		.4byte	0
 8420              	.LLST156:
 8421 1bb7 00000000 		.4byte	.LVL387
 8422 1bbb 1C000000 		.4byte	.LVL390
 8423 1bbf 0100     		.2byte	0x1
 8424 1bc1 51       		.byte	0x51
 8425 1bc2 1C000000 		.4byte	.LVL390
 8426 1bc6 20010000 		.4byte	.LVL431
 8427 1bca 0100     		.2byte	0x1
 8428 1bcc 59       		.byte	0x59
 8429 1bcd 20010000 		.4byte	.LVL431
 8430 1bd1 38010000 		.4byte	.LFE9
 8431 1bd5 0400     		.2byte	0x4
 8432 1bd7 F3       		.byte	0xf3
 8433 1bd8 01       		.uleb128 0x1
 8434 1bd9 51       		.byte	0x51
 8435 1bda 9F       		.byte	0x9f
 8436 1bdb 00000000 		.4byte	0
 8437 1bdf 00000000 		.4byte	0
 8438              	.LLST157:
 8439 1be3 00000000 		.4byte	.LVL387
 8440 1be7 1C000000 		.4byte	.LVL390
 8441 1beb 0100     		.2byte	0x1
ARM GAS  C:\Users\kuzni\AppData\Local\Temp\ccqUPoDe.s 			page 167


 8442 1bed 52       		.byte	0x52
 8443 1bee 1C000000 		.4byte	.LVL390
 8444 1bf2 20010000 		.4byte	.LVL431
 8445 1bf6 0200     		.2byte	0x2
 8446 1bf8 91       		.byte	0x91
 8447 1bf9 54       		.sleb128 -44
 8448 1bfa 20010000 		.4byte	.LVL431
 8449 1bfe 38010000 		.4byte	.LFE9
 8450 1c02 0200     		.2byte	0x2
 8451 1c04 7D       		.byte	0x7d
 8452 1c05 54       		.sleb128 -44
 8453 1c06 00000000 		.4byte	0
 8454 1c0a 00000000 		.4byte	0
 8455              	.LLST158:
 8456 1c0e 00000000 		.4byte	.LVL387
 8457 1c12 1C000000 		.4byte	.LVL390
 8458 1c16 0100     		.2byte	0x1
 8459 1c18 53       		.byte	0x53
 8460 1c19 1C000000 		.4byte	.LVL390
 8461 1c1d 4E000000 		.4byte	.LVL397
 8462 1c21 0100     		.2byte	0x1
 8463 1c23 5B       		.byte	0x5b
 8464 1c24 4E000000 		.4byte	.LVL397
 8465 1c28 38010000 		.4byte	.LFE9
 8466 1c2c 0400     		.2byte	0x4
 8467 1c2e F3       		.byte	0xf3
 8468 1c2f 01       		.uleb128 0x1
 8469 1c30 53       		.byte	0x53
 8470 1c31 9F       		.byte	0x9f
 8471 1c32 00000000 		.4byte	0
 8472 1c36 00000000 		.4byte	0
 8473              	.LLST159:
 8474 1c3a 00000000 		.4byte	.LVL387
 8475 1c3e 20010000 		.4byte	.LVL431
 8476 1c42 0200     		.2byte	0x2
 8477 1c44 91       		.byte	0x91
 8478 1c45 00       		.sleb128 0
 8479 1c46 20010000 		.4byte	.LVL431
 8480 1c4a 38010000 		.4byte	.LFE9
 8481 1c4e 0200     		.2byte	0x2
 8482 1c50 7D       		.byte	0x7d
 8483 1c51 00       		.sleb128 0
 8484 1c52 00000000 		.4byte	0
 8485 1c56 00000000 		.4byte	0
 8486              	.LLST160:
 8487 1c5a 00000000 		.4byte	.LVL387
 8488 1c5e 20010000 		.4byte	.LVL431
 8489 1c62 0200     		.2byte	0x2
 8490 1c64 91       		.byte	0x91
 8491 1c65 04       		.sleb128 4
 8492 1c66 20010000 		.4byte	.LVL431
 8493 1c6a 38010000 		.4byte	.LFE9
 8494 1c6e 0200     		.2byte	0x2
 8495 1c70 7D       		.byte	0x7d
 8496 1c71 04       		.sleb128 4
 8497 1c72 00000000 		.4byte	0
 8498 1c76 00000000 		.4byte	0
ARM GAS  C:\Users\kuzni\AppData\Local\Temp\ccqUPoDe.s 			page 168


 8499              	.LLST161:
 8500 1c7a 12000000 		.4byte	.LVL388
 8501 1c7e 4E000000 		.4byte	.LVL397
 8502 1c82 0100     		.2byte	0x1
 8503 1c84 5A       		.byte	0x5a
 8504 1c85 00000000 		.4byte	0
 8505 1c89 00000000 		.4byte	0
 8506              	.LLST162:
 8507 1c8d 14000000 		.4byte	.LVL389
 8508 1c91 20010000 		.4byte	.LVL431
 8509 1c95 0100     		.2byte	0x1
 8510 1c97 54       		.byte	0x54
 8511 1c98 00000000 		.4byte	0
 8512 1c9c 00000000 		.4byte	0
 8513              	.LLST163:
 8514 1ca0 14000000 		.4byte	.LVL389
 8515 1ca4 1C000000 		.4byte	.LVL390
 8516 1ca8 0600     		.2byte	0x6
 8517 1caa 9E       		.byte	0x9e
 8518 1cab 04       		.uleb128 0x4
 8519 1cac FFFF7FFF 		.4byte	0xff7fffff
 8520 1cb0 1C000000 		.4byte	.LVL390
 8521 1cb4 E4000000 		.4byte	.LVL424
 8522 1cb8 0100     		.2byte	0x1
 8523 1cba 58       		.byte	0x58
 8524 1cbb 00000000 		.4byte	0
 8525 1cbf 00000000 		.4byte	0
 8526              	.LLST164:
 8527 1cc3 14000000 		.4byte	.LVL389
 8528 1cc7 1C000000 		.4byte	.LVL390
 8529 1ccb 0200     		.2byte	0x2
 8530 1ccd 30       		.byte	0x30
 8531 1cce 9F       		.byte	0x9f
 8532 1ccf 1C000000 		.4byte	.LVL390
 8533 1cd3 4C000000 		.4byte	.LVL396
 8534 1cd7 0100     		.2byte	0x1
 8535 1cd9 55       		.byte	0x55
 8536 1cda 4E000000 		.4byte	.LVL397
 8537 1cde E2000000 		.4byte	.LVL423
 8538 1ce2 0100     		.2byte	0x1
 8539 1ce4 55       		.byte	0x55
 8540 1ce5 E4000000 		.4byte	.LVL424
 8541 1ce9 20010000 		.4byte	.LVL431
 8542 1ced 0100     		.2byte	0x1
 8543 1cef 55       		.byte	0x55
 8544 1cf0 00000000 		.4byte	0
 8545 1cf4 00000000 		.4byte	0
 8546              	.LLST165:
 8547 1cf8 4E000000 		.4byte	.LVL397
 8548 1cfc CC000000 		.4byte	.LVL419
 8549 1d00 0100     		.2byte	0x1
 8550 1d02 56       		.byte	0x56
 8551 1d03 CC000000 		.4byte	.LVL419
 8552 1d07 CE000000 		.4byte	.LVL420
 8553 1d0b 0100     		.2byte	0x1
 8554 1d0d 50       		.byte	0x50
 8555 1d0e CE000000 		.4byte	.LVL420
ARM GAS  C:\Users\kuzni\AppData\Local\Temp\ccqUPoDe.s 			page 169


 8556 1d12 20010000 		.4byte	.LVL431
 8557 1d16 0100     		.2byte	0x1
 8558 1d18 56       		.byte	0x56
 8559 1d19 00000000 		.4byte	0
 8560 1d1d 00000000 		.4byte	0
 8561              	.LLST166:
 8562 1d21 5C000000 		.4byte	.LVL399
 8563 1d25 61000000 		.4byte	.LVL400-1
 8564 1d29 0100     		.2byte	0x1
 8565 1d2b 50       		.byte	0x50
 8566 1d2c 00000000 		.4byte	0
 8567 1d30 00000000 		.4byte	0
 8568              	.LLST167:
 8569 1d34 64000000 		.4byte	.LVL401
 8570 1d38 67000000 		.4byte	.LVL402-1
 8571 1d3c 0100     		.2byte	0x1
 8572 1d3e 50       		.byte	0x50
 8573 1d3f 67000000 		.4byte	.LVL402-1
 8574 1d43 86000000 		.4byte	.LVL409
 8575 1d47 0100     		.2byte	0x1
 8576 1d49 5B       		.byte	0x5b
 8577 1d4a 00000000 		.4byte	0
 8578 1d4e 00000000 		.4byte	0
 8579              	.LLST168:
 8580 1d52 64000000 		.4byte	.LVL401
 8581 1d56 DA000000 		.4byte	.LVL422
 8582 1d5a 0200     		.2byte	0x2
 8583 1d5c 30       		.byte	0x30
 8584 1d5d 9F       		.byte	0x9f
 8585 1d5e 00000000 		.4byte	0
 8586 1d62 00000000 		.4byte	0
 8587              	.LLST170:
 8588 1d66 68000000 		.4byte	.LVL402
 8589 1d6a 6B000000 		.4byte	.LVL403-1
 8590 1d6e 0100     		.2byte	0x1
 8591 1d70 50       		.byte	0x50
 8592 1d71 00000000 		.4byte	0
 8593 1d75 00000000 		.4byte	0
 8594              	.LLST171:
 8595 1d79 7C000000 		.4byte	.LVL406
 8596 1d7d 7E000000 		.4byte	.LVL407
 8597 1d81 0100     		.2byte	0x1
 8598 1d83 50       		.byte	0x50
 8599 1d84 7E000000 		.4byte	.LVL407
 8600 1d88 BE000000 		.4byte	.LVL417
 8601 1d8c 0100     		.2byte	0x1
 8602 1d8e 5A       		.byte	0x5a
 8603 1d8f 00000000 		.4byte	0
 8604 1d93 00000000 		.4byte	0
 8605              	.LLST172:
 8606 1d97 00000000 		.4byte	.LVL432
 8607 1d9b 02000000 		.4byte	.LVL433
 8608 1d9f 0100     		.2byte	0x1
 8609 1da1 50       		.byte	0x50
 8610 1da2 02000000 		.4byte	.LVL433
 8611 1da6 04000000 		.4byte	.LFE10
 8612 1daa 0400     		.2byte	0x4
ARM GAS  C:\Users\kuzni\AppData\Local\Temp\ccqUPoDe.s 			page 170


 8613 1dac F3       		.byte	0xf3
 8614 1dad 01       		.uleb128 0x1
 8615 1dae 50       		.byte	0x50
 8616 1daf 9F       		.byte	0x9f
 8617 1db0 00000000 		.4byte	0
 8618 1db4 00000000 		.4byte	0
 8619              	.LLST173:
 8620 1db8 00000000 		.4byte	.LVL434
 8621 1dbc 2A000000 		.4byte	.LVL441
 8622 1dc0 0100     		.2byte	0x1
 8623 1dc2 50       		.byte	0x50
 8624 1dc3 2A000000 		.4byte	.LVL441
 8625 1dc7 D8010000 		.4byte	.LFE11
 8626 1dcb 0400     		.2byte	0x4
 8627 1dcd F3       		.byte	0xf3
 8628 1dce 01       		.uleb128 0x1
 8629 1dcf 50       		.byte	0x50
 8630 1dd0 9F       		.byte	0x9f
 8631 1dd1 00000000 		.4byte	0
 8632 1dd5 00000000 		.4byte	0
 8633              	.LLST174:
 8634 1dd9 00000000 		.4byte	.LVL434
 8635 1ddd 2D000000 		.4byte	.LVL442-1
 8636 1de1 0100     		.2byte	0x1
 8637 1de3 51       		.byte	0x51
 8638 1de4 2D000000 		.4byte	.LVL442-1
 8639 1de8 D8010000 		.4byte	.LFE11
 8640 1dec 0400     		.2byte	0x4
 8641 1dee F3       		.byte	0xf3
 8642 1def 01       		.uleb128 0x1
 8643 1df0 51       		.byte	0x51
 8644 1df1 9F       		.byte	0x9f
 8645 1df2 00000000 		.4byte	0
 8646 1df6 00000000 		.4byte	0
 8647              	.LLST175:
 8648 1dfa 00000000 		.4byte	.LVL434
 8649 1dfe 1A000000 		.4byte	.LVL438
 8650 1e02 0100     		.2byte	0x1
 8651 1e04 52       		.byte	0x52
 8652 1e05 1A000000 		.4byte	.LVL438
 8653 1e09 D8010000 		.4byte	.LFE11
 8654 1e0d 0400     		.2byte	0x4
 8655 1e0f F3       		.byte	0xf3
 8656 1e10 01       		.uleb128 0x1
 8657 1e11 52       		.byte	0x52
 8658 1e12 9F       		.byte	0x9f
 8659 1e13 00000000 		.4byte	0
 8660 1e17 00000000 		.4byte	0
 8661              	.LLST176:
 8662 1e1b 00000000 		.4byte	.LVL434
 8663 1e1f 1C000000 		.4byte	.LVL439
 8664 1e23 0100     		.2byte	0x1
 8665 1e25 53       		.byte	0x53
 8666 1e26 1C000000 		.4byte	.LVL439
 8667 1e2a 50000000 		.4byte	.LVL445
 8668 1e2e 0100     		.2byte	0x1
 8669 1e30 54       		.byte	0x54
ARM GAS  C:\Users\kuzni\AppData\Local\Temp\ccqUPoDe.s 			page 171


 8670 1e31 50000000 		.4byte	.LVL445
 8671 1e35 D2010000 		.4byte	.LVL495
 8672 1e39 0200     		.2byte	0x2
 8673 1e3b 91       		.byte	0x91
 8674 1e3c 44       		.sleb128 -60
 8675 1e3d D2010000 		.4byte	.LVL495
 8676 1e41 D8010000 		.4byte	.LFE11
 8677 1e45 0200     		.2byte	0x2
 8678 1e47 7D       		.byte	0x7d
 8679 1e48 44       		.sleb128 -60
 8680 1e49 00000000 		.4byte	0
 8681 1e4d 00000000 		.4byte	0
 8682              	.LLST177:
 8683 1e51 00000000 		.4byte	.LVL434
 8684 1e55 D2010000 		.4byte	.LVL495
 8685 1e59 0200     		.2byte	0x2
 8686 1e5b 91       		.byte	0x91
 8687 1e5c 00       		.sleb128 0
 8688 1e5d D2010000 		.4byte	.LVL495
 8689 1e61 D8010000 		.4byte	.LFE11
 8690 1e65 0200     		.2byte	0x2
 8691 1e67 7D       		.byte	0x7d
 8692 1e68 00       		.sleb128 0
 8693 1e69 00000000 		.4byte	0
 8694 1e6d 00000000 		.4byte	0
 8695              	.LLST178:
 8696 1e71 00000000 		.4byte	.LVL434
 8697 1e75 D2010000 		.4byte	.LVL495
 8698 1e79 0200     		.2byte	0x2
 8699 1e7b 91       		.byte	0x91
 8700 1e7c 04       		.sleb128 4
 8701 1e7d D2010000 		.4byte	.LVL495
 8702 1e81 D8010000 		.4byte	.LFE11
 8703 1e85 0200     		.2byte	0x2
 8704 1e87 7D       		.byte	0x7d
 8705 1e88 04       		.sleb128 4
 8706 1e89 00000000 		.4byte	0
 8707 1e8d 00000000 		.4byte	0
 8708              	.LLST179:
 8709 1e91 00000000 		.4byte	.LVL434
 8710 1e95 D2010000 		.4byte	.LVL495
 8711 1e99 0200     		.2byte	0x2
 8712 1e9b 91       		.byte	0x91
 8713 1e9c 08       		.sleb128 8
 8714 1e9d D2010000 		.4byte	.LVL495
 8715 1ea1 D8010000 		.4byte	.LFE11
 8716 1ea5 0200     		.2byte	0x2
 8717 1ea7 7D       		.byte	0x7d
 8718 1ea8 08       		.sleb128 8
 8719 1ea9 00000000 		.4byte	0
 8720 1ead 00000000 		.4byte	0
 8721              	.LLST180:
 8722 1eb1 00000000 		.4byte	.LVL434
 8723 1eb5 D2010000 		.4byte	.LVL495
 8724 1eb9 0200     		.2byte	0x2
 8725 1ebb 91       		.byte	0x91
 8726 1ebc 0C       		.sleb128 12
ARM GAS  C:\Users\kuzni\AppData\Local\Temp\ccqUPoDe.s 			page 172


 8727 1ebd D2010000 		.4byte	.LVL495
 8728 1ec1 D8010000 		.4byte	.LFE11
 8729 1ec5 0200     		.2byte	0x2
 8730 1ec7 7D       		.byte	0x7d
 8731 1ec8 0C       		.sleb128 12
 8732 1ec9 00000000 		.4byte	0
 8733 1ecd 00000000 		.4byte	0
 8734              	.LLST181:
 8735 1ed1 00000000 		.4byte	.LVL434
 8736 1ed5 D2010000 		.4byte	.LVL495
 8737 1ed9 0200     		.2byte	0x2
 8738 1edb 91       		.byte	0x91
 8739 1edc 10       		.sleb128 16
 8740 1edd D2010000 		.4byte	.LVL495
 8741 1ee1 D8010000 		.4byte	.LFE11
 8742 1ee5 0200     		.2byte	0x2
 8743 1ee7 7D       		.byte	0x7d
 8744 1ee8 10       		.sleb128 16
 8745 1ee9 00000000 		.4byte	0
 8746 1eed 00000000 		.4byte	0
 8747              	.LLST182:
 8748 1ef1 14000000 		.4byte	.LVL435
 8749 1ef5 D2010000 		.4byte	.LVL495
 8750 1ef9 0100     		.2byte	0x1
 8751 1efb 55       		.byte	0x55
 8752 1efc 00000000 		.4byte	0
 8753 1f00 00000000 		.4byte	0
 8754              	.LLST183:
 8755 1f04 16000000 		.4byte	.LVL436
 8756 1f08 D2010000 		.4byte	.LVL495
 8757 1f0c 0100     		.2byte	0x1
 8758 1f0e 56       		.byte	0x56
 8759 1f0f 00000000 		.4byte	0
 8760 1f13 00000000 		.4byte	0
 8761              	.LLST184:
 8762 1f17 18000000 		.4byte	.LVL437
 8763 1f1b D2010000 		.4byte	.LVL495
 8764 1f1f 0100     		.2byte	0x1
 8765 1f21 57       		.byte	0x57
 8766 1f22 00000000 		.4byte	0
 8767 1f26 00000000 		.4byte	0
 8768              	.LLST185:
 8769 1f2a 28000000 		.4byte	.LVL440
 8770 1f2e 2D000000 		.4byte	.LVL442-1
 8771 1f32 0100     		.2byte	0x1
 8772 1f34 52       		.byte	0x52
 8773 1f35 2D000000 		.4byte	.LVL442-1
 8774 1f39 D2010000 		.4byte	.LVL495
 8775 1f3d 0200     		.2byte	0x2
 8776 1f3f 91       		.byte	0x91
 8777 1f40 54       		.sleb128 -44
 8778 1f41 D2010000 		.4byte	.LVL495
 8779 1f45 D8010000 		.4byte	.LFE11
 8780 1f49 0200     		.2byte	0x2
 8781 1f4b 7D       		.byte	0x7d
 8782 1f4c 54       		.sleb128 -44
 8783 1f4d 00000000 		.4byte	0
ARM GAS  C:\Users\kuzni\AppData\Local\Temp\ccqUPoDe.s 			page 173


 8784 1f51 00000000 		.4byte	0
 8785              	.LLST186:
 8786 1f55 4E000000 		.4byte	.LVL444
 8787 1f59 52000000 		.4byte	.LVL446
 8788 1f5d 0200     		.2byte	0x2
 8789 1f5f 30       		.byte	0x30
 8790 1f60 9F       		.byte	0x9f
 8791 1f61 52000000 		.4byte	.LVL446
 8792 1f65 A0000000 		.4byte	.LVL456
 8793 1f69 0100     		.2byte	0x1
 8794 1f6b 54       		.byte	0x54
 8795 1f6c A0000000 		.4byte	.LVL456
 8796 1f70 2E010000 		.4byte	.LVL474
 8797 1f74 0100     		.2byte	0x1
 8798 1f76 59       		.byte	0x59
 8799 1f77 2E010000 		.4byte	.LVL474
 8800 1f7b 6C010000 		.4byte	.LVL483
 8801 1f7f 0100     		.2byte	0x1
 8802 1f81 54       		.byte	0x54
 8803 1f82 6C010000 		.4byte	.LVL483
 8804 1f86 6E010000 		.4byte	.LVL484
 8805 1f8a 0100     		.2byte	0x1
 8806 1f8c 5A       		.byte	0x5a
 8807 1f8d 6E010000 		.4byte	.LVL484
 8808 1f91 D2010000 		.4byte	.LVL495
 8809 1f95 0100     		.2byte	0x1
 8810 1f97 54       		.byte	0x54
 8811 1f98 00000000 		.4byte	0
 8812 1f9c 00000000 		.4byte	0
 8813              		.section	.debug_aranges,"",%progbits
 8814 0000 44000000 		.4byte	0x44
 8815 0004 0200     		.2byte	0x2
 8816 0006 00000000 		.4byte	.Ldebug_info0
 8817 000a 04       		.byte	0x4
 8818 000b 00       		.byte	0
 8819 000c 0000     		.2byte	0
 8820 000e 0000     		.2byte	0
 8821 0010 00000000 		.4byte	.LFB6
 8822 0014 2C080000 		.4byte	.LFE6-.LFB6
 8823 0018 00000000 		.4byte	.LFB7
 8824 001c 86000000 		.4byte	.LFE7-.LFB7
 8825 0020 00000000 		.4byte	.LFB8
 8826 0024 F4000000 		.4byte	.LFE8-.LFB8
 8827 0028 00000000 		.4byte	.LFB9
 8828 002c 38010000 		.4byte	.LFE9-.LFB9
 8829 0030 00000000 		.4byte	.LFB10
 8830 0034 04000000 		.4byte	.LFE10-.LFB10
 8831 0038 00000000 		.4byte	.LFB11
 8832 003c D8010000 		.4byte	.LFE11-.LFB11
 8833 0040 00000000 		.4byte	0
 8834 0044 00000000 		.4byte	0
 8835              		.section	.debug_ranges,"",%progbits
 8836              	.Ldebug_ranges0:
 8837 0000 CA000000 		.4byte	.LBB41
 8838 0004 B2010000 		.4byte	.LBE41
 8839 0008 BA010000 		.4byte	.LBB47
 8840 000c 60020000 		.4byte	.LBE47
ARM GAS  C:\Users\kuzni\AppData\Local\Temp\ccqUPoDe.s 			page 174


 8841 0010 00000000 		.4byte	0
 8842 0014 00000000 		.4byte	0
 8843 0018 4A040000 		.4byte	.LBB56
 8844 001c 60040000 		.4byte	.LBE56
 8845 0020 62040000 		.4byte	.LBB57
 8846 0024 76040000 		.4byte	.LBE57
 8847 0028 00000000 		.4byte	0
 8848 002c 00000000 		.4byte	0
 8849 0030 F2040000 		.4byte	.LBB59
 8850 0034 1A050000 		.4byte	.LBE59
 8851 0038 1C050000 		.4byte	.LBB61
 8852 003c 36050000 		.4byte	.LBE61
 8853 0040 00000000 		.4byte	0
 8854 0044 00000000 		.4byte	0
 8855 0048 6A050000 		.4byte	.LBB62
 8856 004c 80060000 		.4byte	.LBE62
 8857 0050 88060000 		.4byte	.LBB69
 8858 0054 94060000 		.4byte	.LBE69
 8859 0058 00000000 		.4byte	0
 8860 005c 00000000 		.4byte	0
 8861 0060 94060000 		.4byte	.LBB70
 8862 0064 C8070000 		.4byte	.LBE70
 8863 0068 D2070000 		.4byte	.LBB77
 8864 006c E0070000 		.4byte	.LBE77
 8865 0070 00000000 		.4byte	0
 8866 0074 00000000 		.4byte	0
 8867 0078 00000000 		.4byte	.LFB6
 8868 007c 2C080000 		.4byte	.LFE6
 8869 0080 00000000 		.4byte	.LFB7
 8870 0084 86000000 		.4byte	.LFE7
 8871 0088 00000000 		.4byte	.LFB8
 8872 008c F4000000 		.4byte	.LFE8
 8873 0090 00000000 		.4byte	.LFB9
 8874 0094 38010000 		.4byte	.LFE9
 8875 0098 00000000 		.4byte	.LFB10
 8876 009c 04000000 		.4byte	.LFE10
 8877 00a0 00000000 		.4byte	.LFB11
 8878 00a4 D8010000 		.4byte	.LFE11
 8879 00a8 00000000 		.4byte	0
 8880 00ac 00000000 		.4byte	0
 8881              		.section	.debug_line,"",%progbits
 8882              	.Ldebug_line0:
 8883 0000 65060000 		.section	.debug_str,"MS",%progbits,1
 8883      0200D501 
 8883      00000201 
 8883      FB0E0D00 
 8883      01010101 
 8884              	.LASF28:
 8885 0000 544D5F4F 		.ascii	"TM_OK\000"
 8885      4B00
 8886              	.LASF70:
 8887 0006 7061645F 		.ascii	"pad_top\000"
 8887      746F7000 
 8888              	.LASF39:
 8889 000e 544D5F41 		.ascii	"TM_ACT_NONE\000"
 8889      43545F4E 
 8889      4F4E4500 
ARM GAS  C:\Users\kuzni\AppData\Local\Temp\ccqUPoDe.s 			page 175


 8890              	.LASF116:
 8891 001a 7072696E 		.ascii	"printf\000"
 8891      746600
 8892              	.LASF13:
 8893 0021 756E7369 		.ascii	"unsigned int\000"
 8893      676E6564 
 8893      20696E74 
 8893      00
 8894              	.LASF100:
 8895 002e 646F7574 		.ascii	"dout\000"
 8895      00
 8896              	.LASF106:
 8897 0033 696E5F73 		.ascii	"in_s1\000"
 8897      3100
 8898              	.LASF7:
 8899 0039 5F5F696E 		.ascii	"__int32_t\000"
 8899      7433325F 
 8899      7400
 8900              	.LASF84:
 8901 0043 7372635F 		.ascii	"src_x0\000"
 8901      783000
 8902              	.LASF110:
 8903 004a 73756D73 		.ascii	"sumscale\000"
 8903      63616C65 
 8903      00
 8904              	.LASF75:
 8905 0053 696E5F73 		.ascii	"in_s\000"
 8905      00
 8906              	.LASF86:
 8907 0058 73696478 		.ascii	"sidx\000"
 8907      00
 8908              	.LASF23:
 8909 005d 62747970 		.ascii	"btype_t\000"
 8909      655F7400 
 8910              	.LASF45:
 8911 0065 544D5F41 		.ascii	"TM_ACT_MAXCNT\000"
 8911      43545F4D 
 8911      4158434E 
 8911      5400
 8912              	.LASF63:
 8913 0073 7363616C 		.ascii	"scales\000"
 8913      657300
 8914              	.LASF48:
 8915 007a 64696D73 		.ascii	"dims\000"
 8915      00
 8916              	.LASF83:
 8917 007f 7372635F 		.ascii	"src_y0\000"
 8917      793000
 8918              	.LASF82:
 8919 0086 736C6F77 		.ascii	"slow_flag\000"
 8919      5F666C61 
 8919      6700
 8920              	.LASF49:
 8921 0090 746D5F6D 		.ascii	"tm_mat_t\000"
 8921      61745F74 
 8921      00
 8922              	.LASF97:
ARM GAS  C:\Users\kuzni\AppData\Local\Temp\ccqUPoDe.s 			page 176


 8923 0099 5F746D5F 		.ascii	"_tm_timer\000"
 8923      74696D65 
 8923      7200
 8924              	.LASF29:
 8925 00a3 544D5F45 		.ascii	"TM_ERR\000"
 8925      525200
 8926              	.LASF17:
 8927 00aa 75696E74 		.ascii	"uint32_t\000"
 8927      33325F74 
 8927      00
 8928              	.LASF14:
 8929 00b3 696E7438 		.ascii	"int8_t\000"
 8929      5F7400
 8930              	.LASF41:
 8931 00ba 544D5F41 		.ascii	"TM_ACT_RELU1\000"
 8931      43545F52 
 8931      454C5531 
 8931      00
 8932              	.LASF64:
 8933 00c7 6F75745F 		.ascii	"out_s_inv\000"
 8933      735F696E 
 8933      7600
 8934              	.LASF42:
 8935 00d1 544D5F41 		.ascii	"TM_ACT_RELU6\000"
 8935      43545F52 
 8935      454C5536 
 8935      00
 8936              	.LASF33:
 8937 00de 544D5F45 		.ascii	"TM_ERR_LAYERTYPE\000"
 8937      52525F4C 
 8937      41594552 
 8937      54595045 
 8937      00
 8938              	.LASF27:
 8939 00ef 666C6F61 		.ascii	"float\000"
 8939      7400
 8940              	.LASF54:
 8941 00f5 72657375 		.ascii	"result\000"
 8941      6C7400
 8942              	.LASF12:
 8943 00fc 6C6F6E67 		.ascii	"long long unsigned int\000"
 8943      206C6F6E 
 8943      6720756E 
 8943      7369676E 
 8943      65642069 
 8944              	.LASF5:
 8945 0113 5F5F7569 		.ascii	"__uint16_t\000"
 8945      6E743136 
 8945      5F7400
 8946              	.LASF74:
 8947 011e 646D756C 		.ascii	"dmul\000"
 8947      00
 8948              	.LASF96:
 8949 0123 74696D65 		.ascii	"time\000"
 8949      00
 8950              	.LASF40:
 8951 0128 544D5F41 		.ascii	"TM_ACT_RELU\000"
ARM GAS  C:\Users\kuzni\AppData\Local\Temp\ccqUPoDe.s 			page 177


 8951      43545F52 
 8951      454C5500 
 8952              	.LASF108:
 8953 0134 6B5F6F66 		.ascii	"k_oft\000"
 8953      7400
 8954              	.LASF105:
 8955 013a 696E5F7A 		.ascii	"in_zp0\000"
 8955      703000
 8956              	.LASF107:
 8957 0141 696E5F7A 		.ascii	"in_zp1\000"
 8957      703100
 8958              	.LASF81:
 8959 0148 6F757473 		.ascii	"outscale_inv\000"
 8959      63616C65 
 8959      5F696E76 
 8959      00
 8960              	.LASF73:
 8961 0155 7061645F 		.ascii	"pad_right\000"
 8961      72696768 
 8961      7400
 8962              	.LASF25:
 8963 015f 7A707479 		.ascii	"zptype_t\000"
 8963      70655F74 
 8963      00
 8964              	.LASF18:
 8965 0168 73697A65 		.ascii	"size_t\000"
 8965      5F7400
 8966              	.LASF69:
 8967 016f 7369676E 		.ascii	"sign\000"
 8967      00
 8968              	.LASF24:
 8969 0174 73756D74 		.ascii	"sumtype_t\000"
 8969      7970655F 
 8969      7400
 8970              	.LASF112:
 8971 017e 2E5C746D 		.ascii	".\\tm_layers.c\000"
 8971      5F6C6179 
 8971      6572732E 
 8971      6300
 8972              	.LASF21:
 8973 018c 6D747970 		.ascii	"mtype_t\000"
 8973      655F7400 
 8974              	.LASF67:
 8975 0194 746D5F64 		.ascii	"tm_dot_prod\000"
 8975      6F745F70 
 8975      726F6400 
 8976              	.LASF90:
 8977 01a0 5F6B7831 		.ascii	"_kx1\000"
 8977      00
 8978              	.LASF95:
 8979 01a5 66696E69 		.ascii	"finish\000"
 8979      736800
 8980              	.LASF20:
 8981 01ac 63686172 		.ascii	"char\000"
 8981      00
 8982              	.LASF55:
 8983 01b1 73756D30 		.ascii	"sum0\000"
ARM GAS  C:\Users\kuzni\AppData\Local\Temp\ccqUPoDe.s 			page 178


 8983      00
 8984              	.LASF56:
 8985 01b6 73756D31 		.ascii	"sum1\000"
 8985      00
 8986              	.LASF114:
 8987 01bb 5F657870 		.ascii	"_exp\000"
 8987      00
 8988              	.LASF37:
 8989 01c0 544D5F45 		.ascii	"TM_ERR_KSIZE\000"
 8989      52525F4B 
 8989      53495A45 
 8989      00
 8990              	.LASF30:
 8991 01cd 544D5F45 		.ascii	"TM_ERR_MAGIC\000"
 8991      52525F4D 
 8991      41474943 
 8991      00
 8992              	.LASF31:
 8993 01da 544D5F45 		.ascii	"TM_ERR_UNSUPPORT\000"
 8993      52525F55 
 8993      4E535550 
 8993      504F5254 
 8993      00
 8994              	.LASF46:
 8995 01eb 64617461 		.ascii	"data\000"
 8995      00
 8996              	.LASF34:
 8997 01f0 544D5F45 		.ascii	"TM_ERR_DIMS\000"
 8997      52525F44 
 8997      494D5300 
 8998              	.LASF52:
 8999 01fc 6B707472 		.ascii	"kptr\000"
 8999      00
 9000              	.LASF109:
 9001 0201 73627566 		.ascii	"sbuf\000"
 9001      00
 9002              	.LASF35:
 9003 0206 544D5F45 		.ascii	"TM_ERR_TODO\000"
 9003      52525F54 
 9003      4F444F00 
 9004              	.LASF26:
 9005 0212 73637479 		.ascii	"sctype_t\000"
 9005      70655F74 
 9005      00
 9006              	.LASF66:
 9007 021b 73756D66 		.ascii	"sumf\000"
 9007      00
 9008              	.LASF61:
 9009 0220 73756D73 		.ascii	"sums\000"
 9009      00
 9010              	.LASF36:
 9011 0225 544D5F45 		.ascii	"TM_ERR_MDLTYPE\000"
 9011      52525F4D 
 9011      444C5459 
 9011      504500
 9012              	.LASF77:
 9013 0234 6F75745F 		.ascii	"out_s\000"
ARM GAS  C:\Users\kuzni\AppData\Local\Temp\ccqUPoDe.s 			page 179


 9013      7300
 9014              	.LASF11:
 9015 023a 6C6F6E67 		.ascii	"long long int\000"
 9015      206C6F6E 
 9015      6720696E 
 9015      7400
 9016              	.LASF103:
 9017 0248 746D6C5F 		.ascii	"tml_add\000"
 9017      61646400 
 9018              	.LASF60:
 9019 0250 746D5F70 		.ascii	"tm_postprocess_sum\000"
 9019      6F737470 
 9019      726F6365 
 9019      73735F73 
 9019      756D00
 9020              	.LASF44:
 9021 0263 544D5F41 		.ascii	"TM_ACT_SIGNBIT\000"
 9021      43545F53 
 9021      49474E42 
 9021      495400
 9022              	.LASF47:
 9023 0272 64617461 		.ascii	"dataf\000"
 9023      6600
 9024              	.LASF99:
 9025 0278 746D6C5F 		.ascii	"tml_softmax\000"
 9025      736F6674 
 9025      6D617800 
 9026              	.LASF115:
 9027 0284 6D656D73 		.ascii	"memset\000"
 9027      657400
 9028              	.LASF98:
 9029 028b 746D6C5F 		.ascii	"tml_fc\000"
 9029      666300
 9030              	.LASF53:
 9031 0292 73697A65 		.ascii	"size\000"
 9031      00
 9032              	.LASF59:
 9033 0297 746D5F64 		.ascii	"tm_dot_prod_pack2\000"
 9033      6F745F70 
 9033      726F645F 
 9033      7061636B 
 9033      3200
 9034              	.LASF94:
 9035 02a9 73746172 		.ascii	"start\000"
 9035      7400
 9036              	.LASF102:
 9037 02af 746D6C5F 		.ascii	"tml_reshape\000"
 9037      72657368 
 9037      61706500 
 9038              	.LASF92:
 9039 02bb 746D6C5F 		.ascii	"tml_conv2d_dwconv2d\000"
 9039      636F6E76 
 9039      32645F64 
 9039      77636F6E 
 9039      76326400 
 9040              	.LASF4:
 9041 02cf 5F5F696E 		.ascii	"__int8_t\000"
ARM GAS  C:\Users\kuzni\AppData\Local\Temp\ccqUPoDe.s 			page 180


 9041      74385F74 
 9041      00
 9042              	.LASF65:
 9043 02d8 6F75745F 		.ascii	"out_zp\000"
 9043      7A7000
 9044              	.LASF50:
 9045 02df 6C6F6E67 		.ascii	"long double\000"
 9045      20646F75 
 9045      626C6500 
 9046              	.LASF15:
 9047 02eb 75696E74 		.ascii	"uint16_t\000"
 9047      31365F74 
 9047      00
 9048              	.LASF3:
 9049 02f4 73686F72 		.ascii	"short int\000"
 9049      7420696E 
 9049      7400
 9050              	.LASF8:
 9051 02fe 6C6F6E67 		.ascii	"long int\000"
 9051      20696E74 
 9051      00
 9052              	.LASF93:
 9053 0307 746D6C5F 		.ascii	"tml_gap\000"
 9053      67617000 
 9054              	.LASF62:
 9055 030f 6F757470 		.ascii	"outp\000"
 9055      00
 9056              	.LASF88:
 9057 0314 5F6B7830 		.ascii	"_kx0\000"
 9057      00
 9058              	.LASF32:
 9059 0319 544D5F45 		.ascii	"TM_ERR_OOM\000"
 9059      52525F4F 
 9059      4F4D00
 9060              	.LASF104:
 9061 0324 696E5F73 		.ascii	"in_s0\000"
 9061      3000
 9062              	.LASF19:
 9063 032a 73697A65 		.ascii	"sizetype\000"
 9063      74797065 
 9063      00
 9064              	.LASF101:
 9065 0333 646D6178 		.ascii	"dmax\000"
 9065      00
 9066              	.LASF10:
 9067 0338 6C6F6E67 		.ascii	"long unsigned int\000"
 9067      20756E73 
 9067      69676E65 
 9067      6420696E 
 9067      7400
 9068              	.LASF16:
 9069 034a 696E7433 		.ascii	"int32_t\000"
 9069      325F7400 
 9070              	.LASF87:
 9071 0352 5F6B7930 		.ascii	"_ky0\000"
 9071      00
 9072              	.LASF89:
ARM GAS  C:\Users\kuzni\AppData\Local\Temp\ccqUPoDe.s 			page 181


 9073 0357 5F6B7931 		.ascii	"_ky1\000"
 9073      00
 9074              	.LASF113:
 9075 035c 443A5C4D 		.ascii	"D:\\MIT\\Microcomputer\\Exercise_4\\LAB2.cydsn\000"
 9075      49545C4D 
 9075      6963726F 
 9075      636F6D70 
 9075      75746572 
 9076              	.LASF57:
 9077 0387 6B707472 		.ascii	"kptr0\000"
 9077      3000
 9078              	.LASF58:
 9079 038d 6B707472 		.ascii	"kptr1\000"
 9079      3100
 9080              	.LASF78:
 9081 0393 7061645F 		.ascii	"pad_flag\000"
 9081      666C6167 
 9081      00
 9082              	.LASF76:
 9083 039c 696E5F7A 		.ascii	"in_zp\000"
 9083      7000
 9084              	.LASF2:
 9085 03a2 756E7369 		.ascii	"unsigned char\000"
 9085      676E6564 
 9085      20636861 
 9085      7200
 9086              	.LASF9:
 9087 03b0 5F5F7569 		.ascii	"__uint32_t\000"
 9087      6E743332 
 9087      5F7400
 9088              	.LASF111:
 9089 03bb 474E5520 		.ascii	"GNU C 4.9.3 20150303 (release) [ARM/embedded-4_9-br"
 9089      4320342E 
 9089      392E3320 
 9089      32303135 
 9089      30333033 
 9090 03ee 616E6368 		.ascii	"anch revision 221220] -mcpu=cortex-m3 -mthumb -g -O"
 9090      20726576 
 9090      6973696F 
 9090      6E203232 
 9090      31323230 
 9091 0421 67202D66 		.ascii	"g -ffunction-sections -ffat-lto-objects\000"
 9091      66756E63 
 9091      74696F6E 
 9091      2D736563 
 9091      74696F6E 
 9092              	.LASF72:
 9093 0449 7061645F 		.ascii	"pad_left\000"
 9093      6C656674 
 9093      00
 9094              	.LASF22:
 9095 0452 77747970 		.ascii	"wtype_t\000"
 9095      655F7400 
 9096              	.LASF71:
 9097 045a 7061645F 		.ascii	"pad_bottom\000"
 9097      626F7474 
 9097      6F6D00
ARM GAS  C:\Users\kuzni\AppData\Local\Temp\ccqUPoDe.s 			page 182


 9098              	.LASF79:
 9099 0465 6D61786B 		.ascii	"maxk\000"
 9099      00
 9100              	.LASF1:
 9101 046a 7369676E 		.ascii	"signed char\000"
 9101      65642063 
 9101      68617200 
 9102              	.LASF68:
 9103 0476 746D5F64 		.ascii	"tm_dot_prod_3x3x1\000"
 9103      6F745F70 
 9103      726F645F 
 9103      33783378 
 9103      3100
 9104              	.LASF6:
 9105 0488 73686F72 		.ascii	"short unsigned int\000"
 9105      7420756E 
 9105      7369676E 
 9105      65642069 
 9105      6E7400
 9106              	.LASF91:
 9107 049b 735F7374 		.ascii	"s_step\000"
 9107      657000
 9108              	.LASF85:
 9109 04a2 73707472 		.ascii	"sptr_base\000"
 9109      5F626173 
 9109      6500
 9110              	.LASF0:
 9111 04ac 646F7562 		.ascii	"double\000"
 9111      6C6500
 9112              	.LASF51:
 9113 04b3 73707472 		.ascii	"sptr\000"
 9113      00
 9114              	.LASF80:
 9115 04b8 6F757473 		.ascii	"outscale\000"
 9115      63616C65 
 9115      00
 9116              	.LASF43:
 9117 04c1 544D5F41 		.ascii	"TM_ACT_TANH\000"
 9117      43545F54 
 9117      414E4800 
 9118              	.LASF38:
 9119 04cd 746D5F65 		.ascii	"tm_err_t\000"
 9119      72725F74 
 9119      00
 9120              		.ident	"GCC: (GNU Tools for ARM Embedded Processors) 4.9.3 20150303 (release) [ARM/embedded-4_9-br
