ARM GAS  C:\Users\kuzni\AppData\Local\Temp\ccQh08kr.s 			page 1


   1              		.syntax unified
   2              		.cpu cortex-m3
   3              		.fpu softvfp
   4              		.eabi_attribute 20, 1
   5              		.eabi_attribute 21, 1
   6              		.eabi_attribute 23, 3
   7              		.eabi_attribute 24, 1
   8              		.eabi_attribute 25, 1
   9              		.eabi_attribute 26, 1
  10              		.eabi_attribute 30, 1
  11              		.eabi_attribute 34, 1
  12              		.eabi_attribute 18, 4
  13              		.thumb
  14              		.file	"tm_stat.c"
  15              		.text
  16              	.Ltext0:
  17              		.cfi_sections	.debug_frame
  18              		.global	__aeabi_f2d
  19              		.global	__aeabi_i2d
  20              		.global	__aeabi_dmul
  21              		.global	__aeabi_ddiv
  22              		.global	__aeabi_ui2d
  23              		.section	.text.tm_stat,"ax",%progbits
  24              		.align	2
  25              		.global	tm_stat
  26              		.thumb
  27              		.thumb_func
  28              		.type	tm_stat, %function
  29              	tm_stat:
  30              	.LFB1:
  31              		.file 1 ".\\tm_stat.c"
   1:.\tm_stat.c   **** /* Copyright 2022 Sipeed Technology Co., Ltd. All Rights Reserved.
   2:.\tm_stat.c   **** Licensed under the Apache License, Version 2.0 (the "License");
   3:.\tm_stat.c   **** you may not use this file except in compliance with the License.
   4:.\tm_stat.c   **** You may obtain a copy of the License at
   5:.\tm_stat.c   ****     http://www.apache.org/licenses/LICENSE-2.0
   6:.\tm_stat.c   **** Unless required by applicable law or agreed to in writing, software
   7:.\tm_stat.c   **** distributed under the License is distributed on an "AS IS" BASIS,
   8:.\tm_stat.c   **** WITHOUT WARRANTIES OR CONDITIONS OF ANY KIND, either express or implied.
   9:.\tm_stat.c   **** See the License for the specific language governing permissions and
  10:.\tm_stat.c   **** limitations under the License.
  11:.\tm_stat.c   **** ==============================================================================*/
  12:.\tm_stat.c   **** 
  13:.\tm_stat.c   **** #include "tinymaix.h"
  14:.\tm_stat.c   **** 
  15:.\tm_stat.c   **** #if TM_ENABLE_STAT
  16:.\tm_stat.c   **** static const char* mdl_type_str[6] = {
  17:.\tm_stat.c   ****     "int8",   
  18:.\tm_stat.c   ****     "int16",     
  19:.\tm_stat.c   ****     "fp32",    
  20:.\tm_stat.c   ****     "fp16",  
  21:.\tm_stat.c   ****     "fp8 1.4.3", 
  22:.\tm_stat.c   ****     "fp8 1.5.2", 
  23:.\tm_stat.c   **** };
  24:.\tm_stat.c   **** 
  25:.\tm_stat.c   **** static const char* tml_str_tbl[TML_MAXCNT] = {
  26:.\tm_stat.c   ****     "Conv2D",   /*TML_CONV2D  = 0,*/
ARM GAS  C:\Users\kuzni\AppData\Local\Temp\ccQh08kr.s 			page 2


  27:.\tm_stat.c   ****     "GAP",      /*TML_GAP     = 1,*/
  28:.\tm_stat.c   ****     "FC",       /*TML_FC      = 2,*/
  29:.\tm_stat.c   ****     "Softmax",  /*TML_SOFTMAX = 3,*/
  30:.\tm_stat.c   ****     "Reshape",  /*TML_RESHAPE = 4,*/
  31:.\tm_stat.c   ****     "DWConv2D", /*TML_DWCONV2D= 5,*/
  32:.\tm_stat.c   ****     "ADD",      /*TML_ADD     = 6,*/
  33:.\tm_stat.c   **** };
  34:.\tm_stat.c   **** 
  35:.\tm_stat.c   **** static const int tml_headsize_tbl[TML_MAXCNT] = {
  36:.\tm_stat.c   ****     sizeof(tml_conv2d_dw_t),
  37:.\tm_stat.c   ****     sizeof(tml_gap_t),
  38:.\tm_stat.c   ****     sizeof(tml_fc_t),
  39:.\tm_stat.c   ****     sizeof(tml_softmax_t),
  40:.\tm_stat.c   ****     sizeof(tml_reshape_t),
  41:.\tm_stat.c   ****     sizeof(tml_conv2d_dw_t),
  42:.\tm_stat.c   ****     sizeof(tml_add_t),
  43:.\tm_stat.c   **** };
  44:.\tm_stat.c   **** 
  45:.\tm_stat.c   **** tm_err_t tm_stat(tm_mdlbin_t* b)
  46:.\tm_stat.c   **** {   
  32              		.loc 1 46 0
  33              		.cfi_startproc
  34              		@ args = 0, pretend = 0, frame = 16
  35              		@ frame_needed = 0, uses_anonymous_args = 0
  36              	.LVL0:
  37 0000 2DE9F04F 		push	{r4, r5, r6, r7, r8, r9, r10, fp, lr}
  38              		.cfi_def_cfa_offset 36
  39              		.cfi_offset 4, -36
  40              		.cfi_offset 5, -32
  41              		.cfi_offset 6, -28
  42              		.cfi_offset 7, -24
  43              		.cfi_offset 8, -20
  44              		.cfi_offset 9, -16
  45              		.cfi_offset 10, -12
  46              		.cfi_offset 11, -8
  47              		.cfi_offset 14, -4
  48 0004 97B0     		sub	sp, sp, #92
  49              		.cfi_def_cfa_offset 128
  50 0006 8046     		mov	r8, r0
  47:.\tm_stat.c   ****     printf("================================ model stat ================================\n");
  51              		.loc 1 47 0
  52 0008 A748     		ldr	r0, .L15
  53              	.LVL1:
  54 000a FFF7FEFF 		bl	puts
  55              	.LVL2:
  48:.\tm_stat.c   ****     printf("mdl_type=%d (%s))\n", b->mdl_type, mdl_type_str[b->mdl_type]);
  56              		.loc 1 48 0
  57 000e 98F80430 		ldrb	r3, [r8, #4]	@ zero_extendqisi2
  58 0012 A648     		ldr	r0, .L15+4
  59 0014 1946     		mov	r1, r3
  60 0016 A64A     		ldr	r2, .L15+8
  61 0018 52F82320 		ldr	r2, [r2, r3, lsl #2]
  62 001c FFF7FEFF 		bl	printf
  63              	.LVL3:
  49:.\tm_stat.c   ****     printf("out_deq=%d \n", b->out_deq);
  64              		.loc 1 49 0
  65 0020 A448     		ldr	r0, .L15+12
ARM GAS  C:\Users\kuzni\AppData\Local\Temp\ccQh08kr.s 			page 3


  66 0022 98F80510 		ldrb	r1, [r8, #5]	@ zero_extendqisi2
  67 0026 FFF7FEFF 		bl	printf
  68              	.LVL4:
  50:.\tm_stat.c   ****     printf("input_cnt=%d, output_cnt=%d, layer_cnt=%d\n", b->input_cnt, b->output_cnt, b->layer_cnt
  69              		.loc 1 50 0
  70 002a A348     		ldr	r0, .L15+16
  71 002c B8F80610 		ldrh	r1, [r8, #6]
  72 0030 B8F80820 		ldrh	r2, [r8, #8]
  73 0034 B8F80A30 		ldrh	r3, [r8, #10]
  74 0038 FFF7FEFF 		bl	printf
  75              	.LVL5:
  51:.\tm_stat.c   ****     uint16_t* idim = b->in_dims;
  52:.\tm_stat.c   ****     printf("input %ddims: (%d, %d, %d)\n", idim[0],idim[1],idim[2],idim[3]);
  76              		.loc 1 52 0
  77 003c B8F81410 		ldrh	r1, [r8, #20]
  78 0040 B8F81620 		ldrh	r2, [r8, #22]
  79 0044 B8F81830 		ldrh	r3, [r8, #24]
  80 0048 B8F81A00 		ldrh	r0, [r8, #26]
  81 004c 0090     		str	r0, [sp]
  82 004e 9B48     		ldr	r0, .L15+20
  83 0050 FFF7FEFF 		bl	printf
  84              	.LVL6:
  53:.\tm_stat.c   ****     uint16_t* odim = b->out_dims;
  54:.\tm_stat.c   ****     printf("output %ddims: (%d, %d, %d)\n", odim[0],odim[1],odim[2],odim[3]);
  85              		.loc 1 54 0
  86 0054 B8F81C10 		ldrh	r1, [r8, #28]
  87 0058 B8F81E20 		ldrh	r2, [r8, #30]
  88 005c B8F82030 		ldrh	r3, [r8, #32]
  89 0060 B8F82200 		ldrh	r0, [r8, #34]
  90 0064 0090     		str	r0, [sp]
  91 0066 9648     		ldr	r0, .L15+24
  92 0068 FFF7FEFF 		bl	printf
  93              	.LVL7:
  55:.\tm_stat.c   ****     //printf("model param bin addr: 0x%x\n", (uint32_t)(b->layers_body));
  56:.\tm_stat.c   ****     printf("main buf size %d; sub buf size %d\n", \
  94              		.loc 1 56 0
  95 006c 9548     		ldr	r0, .L15+28
  96 006e D8F80C10 		ldr	r1, [r8, #12]
  97 0072 D8F81020 		ldr	r2, [r8, #16]
  98 0076 FFF7FEFF 		bl	printf
  99              	.LVL8:
  57:.\tm_stat.c   ****         b->buf_size,b->sub_size);
  58:.\tm_stat.c   **** 
  59:.\tm_stat.c   ****     printf("//Note: PARAM is layer param size, include align padding\r\n\r\n");
 100              		.loc 1 59 0
 101 007a 9348     		ldr	r0, .L15+32
 102 007c FFF7FEFF 		bl	puts
 103              	.LVL9:
  60:.\tm_stat.c   ****     printf("Idx\tLayer\t         outshape\tinoft\toutoft\tPARAM\tMEMOUT OPS\n");
 104              		.loc 1 60 0
 105 0080 9248     		ldr	r0, .L15+36
 106 0082 FFF7FEFF 		bl	puts
 107              	.LVL10:
  61:.\tm_stat.c   ****     printf("---\tInput    \t%3d,%3d,%3d\t-   \t0    \t0 \t%ld \t0\n",\
  62:.\tm_stat.c   ****         idim[1],idim[2],idim[3], (long int)(idim[1]*idim[2]*idim[3]*sizeof(mtype_t)));
 108              		.loc 1 62 0
 109 0086 B8F81610 		ldrh	r1, [r8, #22]
ARM GAS  C:\Users\kuzni\AppData\Local\Temp\ccQh08kr.s 			page 4


 110 008a B8F81820 		ldrh	r2, [r8, #24]
 111 008e 02FB01F0 		mul	r0, r2, r1
 112 0092 B8F81A30 		ldrh	r3, [r8, #26]
 113 0096 03FB00F0 		mul	r0, r3, r0
  61:.\tm_stat.c   ****     printf("---\tInput    \t%3d,%3d,%3d\t-   \t0    \t0 \t%ld \t0\n",\
 114              		.loc 1 61 0
 115 009a 0090     		str	r0, [sp]
 116 009c 8C48     		ldr	r0, .L15+40
 117 009e FFF7FEFF 		bl	printf
 118              	.LVL11:
  63:.\tm_stat.c   ****     //      000  Input    -     224,224,3  0x40001234 0x40004000 100000 500000 200000
  64:.\tm_stat.c   ****     //printf("000  Input    -     %3d,%3d,%d  0x%08x   0x%08x     %6d %6d %6d\n",) 
  65:.\tm_stat.c   ****     int sum_param = 0;
  66:.\tm_stat.c   ****     int sum_ops   = 0;
  67:.\tm_stat.c   ****     uint8_t*layer_body  = (uint8_t*)b->layers_body;
 119              		.loc 1 67 0
 120 00a2 08F14004 		add	r4, r8, #64
 121              	.LVL12:
  68:.\tm_stat.c   ****     int layer_i;
  69:.\tm_stat.c   ****     for(layer_i = 0; layer_i < b->layer_cnt; layer_i++){
 122              		.loc 1 69 0
 123 00a6 4FF0000B 		mov	fp, #0
  66:.\tm_stat.c   ****     uint8_t*layer_body  = (uint8_t*)b->layers_body;
 124              		.loc 1 66 0
 125 00aa CDF84CB0 		str	fp, [sp, #76]
  65:.\tm_stat.c   ****     int sum_ops   = 0;
 126              		.loc 1 65 0
 127 00ae CDF848B0 		str	fp, [sp, #72]
 128 00b2 4346     		mov	r3, r8
 129 00b4 D846     		mov	r8, fp
 130              	.LVL13:
 131 00b6 9B46     		mov	fp, r3
 132              		.loc 1 69 0
 133 00b8 3BE1     		b	.L2
 134              	.LVL14:
 135              	.L11:
 136              	.LBB2:
  70:.\tm_stat.c   ****         tml_head_t* h = (tml_head_t*)(layer_body);
  71:.\tm_stat.c   ****         TM_DBG("body oft = %d\n", (uint32_t)((size_t)h - (size_t)(b)));
 137              		.loc 1 71 0
 138 00ba 864D     		ldr	r5, .L15+44
 139 00bc 2846     		mov	r0, r5
 140 00be 4721     		movs	r1, #71
 141 00c0 FFF7FEFF 		bl	printf
 142              	.LVL15:
 143 00c4 8448     		ldr	r0, .L15+48
 144 00c6 CBEB0401 		rsb	r1, fp, r4
 145 00ca FFF7FEFF 		bl	printf
 146              	.LVL16:
  72:.\tm_stat.c   ****         TM_DBG("type=%d, is_out=%d, size=%d, in_oft=%d, out_oft=%d, in_dims=[%d,%d,%d,%d], out_dims
 147              		.loc 1 72 0
 148 00ce 2846     		mov	r0, r5
 149 00d0 4C21     		movs	r1, #76
 150 00d2 FFF7FEFF 		bl	printf
 151              	.LVL17:
 152 00d6 2788     		ldrh	r7, [r4]
 153 00d8 6688     		ldrh	r6, [r4, #2]
ARM GAS  C:\Users\kuzni\AppData\Local\Temp\ccQh08kr.s 			page 5


 154 00da B4F810A0 		ldrh	r10, [r4, #16]
 155 00de B4F81290 		ldrh	r9, [r4, #18]
 156 00e2 B4F814C0 		ldrh	ip, [r4, #20]
 157 00e6 B4F816E0 		ldrh	lr, [r4, #22]
 158 00ea 208B     		ldrh	r0, [r4, #24]
 159 00ec 618B     		ldrh	r1, [r4, #26]
 160 00ee A28B     		ldrh	r2, [r4, #28]
 161 00f0 E38B     		ldrh	r3, [r4, #30]
 162 00f2 0993     		str	r3, [sp, #36]
 163 00f4 A36A     		ldr	r3, [r4, #40]	@ float
 164 00f6 1493     		str	r3, [sp, #80]	@ float
 165 00f8 6568     		ldr	r5, [r4, #4]
 166 00fa A368     		ldr	r3, [r4, #8]
 167 00fc 0093     		str	r3, [sp]
 168 00fe E368     		ldr	r3, [r4, #12]
 169 0100 0193     		str	r3, [sp, #4]
 170 0102 CDF808A0 		str	r10, [sp, #8]
 171 0106 CDF80C90 		str	r9, [sp, #12]
 172 010a CDF810C0 		str	ip, [sp, #16]
 173 010e CDF814E0 		str	lr, [sp, #20]
 174 0112 0690     		str	r0, [sp, #24]
 175 0114 0791     		str	r1, [sp, #28]
 176 0116 0892     		str	r2, [sp, #32]
 177 0118 206A     		ldr	r0, [r4, #32]	@ float
 178 011a FFF7FEFF 		bl	__aeabi_f2d
 179              	.LVL18:
 180 011e CDE90A01 		strd	r0, [sp, #40]
 181 0122 636A     		ldr	r3, [r4, #36]
 182 0124 0C93     		str	r3, [sp, #48]
 183 0126 1498     		ldr	r0, [sp, #80]	@ float
 184 0128 FFF7FEFF 		bl	__aeabi_f2d
 185              	.LVL19:
 186 012c CDE90E01 		strd	r0, [sp, #56]
 187 0130 E36A     		ldr	r3, [r4, #44]
 188 0132 1093     		str	r3, [sp, #64]
 189 0134 6948     		ldr	r0, .L15+52
 190 0136 3946     		mov	r1, r7
 191 0138 3246     		mov	r2, r6
 192 013a 2B46     		mov	r3, r5
 193 013c FFF7FEFF 		bl	printf
 194              	.LVL20:
  73:.\tm_stat.c   ****                 h->type,h->is_out,h->size,h->in_oft,h->out_oft,\
  74:.\tm_stat.c   ****                 h->in_dims[0],h->in_dims[1],h->in_dims[2],h->in_dims[3],\
  75:.\tm_stat.c   ****                 h->out_dims[0],h->out_dims[1],h->out_dims[2],h->out_dims[3],\
  76:.\tm_stat.c   ****                 h->in_s,(int32_t)(h->in_zp),h->out_s,(int32_t)(h->out_zp));
  77:.\tm_stat.c   ****         if(h->type < TML_MAXCNT) {
 195              		.loc 1 77 0
 196 0140 2388     		ldrh	r3, [r4]
 197 0142 062B     		cmp	r3, #6
 198 0144 00F22281 		bhi	.L12
 199              	.LBB3:
  78:.\tm_stat.c   ****             int memout = h->out_dims[1]*h->out_dims[2]*h->out_dims[3];
 200              		.loc 1 78 0
 201 0148 668B     		ldrh	r6, [r4, #26]
 202 014a A28B     		ldrh	r2, [r4, #28]
 203 014c 02FB06F6 		mul	r6, r2, r6
 204 0150 E58B     		ldrh	r5, [r4, #30]
ARM GAS  C:\Users\kuzni\AppData\Local\Temp\ccQh08kr.s 			page 6


 205 0152 05FB06F6 		mul	r6, r5, r6
 206              	.LVL21:
  79:.\tm_stat.c   ****             sum_param += (h->size - tml_headsize_tbl[h->type]);
 207              		.loc 1 79 0
 208 0156 6268     		ldr	r2, [r4, #4]
 209 0158 5549     		ldr	r1, .L15+8
 210 015a 01EB8301 		add	r1, r1, r3, lsl #2
 211 015e 8969     		ldr	r1, [r1, #24]
 212 0160 521A     		subs	r2, r2, r1
 213 0162 1299     		ldr	r1, [sp, #72]
 214 0164 1144     		add	r1, r1, r2
 215 0166 1291     		str	r1, [sp, #72]
 216              	.LVL22:
  80:.\tm_stat.c   ****             int ops = 0;
  81:.\tm_stat.c   ****             switch(h->type){
 217              		.loc 1 81 0
 218 0168 052B     		cmp	r3, #5
 219 016a 00F2BF80 		bhi	.L13
 220 016e DFE803F0 		tbb	[pc, r3]
 221              	.L6:
 222 0172 03       		.byte	(.L5-.L6)/2
 223 0173 43       		.byte	(.L7-.L6)/2
 224 0174 4B       		.byte	(.L8-.L6)/2
 225 0175 59       		.byte	(.L9-.L6)/2
 226 0176 BD       		.byte	(.L13-.L6)/2
 227 0177 5D       		.byte	(.L10-.L6)/2
 228              		.p2align 1
 229              	.L5:
 230              	.LVL23:
 231              	.LBB4:
  82:.\tm_stat.c   ****             case TML_CONV2D: {
  83:.\tm_stat.c   ****                 tml_conv2d_dw_t* l = (tml_conv2d_dw_t*)(layer_body);
  84:.\tm_stat.c   ****                 ops = memout*(l->kernel_w)*(l->kernel_h)*(h->in_dims[3]);   //MAC as ops
 232              		.loc 1 84 0
 233 0178 94F83050 		ldrb	r5, [r4, #48]	@ zero_extendqisi2
 234 017c 06FB05F5 		mul	r5, r6, r5
 235 0180 94F83130 		ldrb	r3, [r4, #49]	@ zero_extendqisi2
 236 0184 03FB05F3 		mul	r3, r3, r5
 237 0188 E58A     		ldrh	r5, [r4, #22]
 238 018a 05FB03F5 		mul	r5, r5, r3
 239              	.LVL24:
  85:.\tm_stat.c   ****                 TM_DBG("Conv2d: kw=%d, kh=%d, sw=%d, sh=%d, dw=%d, dh=%d, act=%d, pad=[%d,%d,%d,%d]
 240              		.loc 1 85 0
 241 018e 5148     		ldr	r0, .L15+44
 242 0190 5821     		movs	r1, #88
 243              	.LVL25:
 244 0192 FFF7FEFF 		bl	printf
 245              	.LVL26:
 246 0196 94F83010 		ldrb	r1, [r4, #48]	@ zero_extendqisi2
 247 019a 94F83130 		ldrb	r3, [r4, #49]	@ zero_extendqisi2
 248 019e 1493     		str	r3, [sp, #80]
 249 01a0 94F83200 		ldrb	r0, [r4, #50]	@ zero_extendqisi2
 250 01a4 1590     		str	r0, [sp, #84]
 251 01a6 94F83320 		ldrb	r2, [r4, #51]	@ zero_extendqisi2
 252 01aa 94F834A0 		ldrb	r10, [r4, #52]	@ zero_extendqisi2
 253 01ae 94F83590 		ldrb	r9, [r4, #53]	@ zero_extendqisi2
 254 01b2 E38E     		ldrh	r3, [r4, #54]
ARM GAS  C:\Users\kuzni\AppData\Local\Temp\ccQh08kr.s 			page 7


 255 01b4 94F838C0 		ldrb	ip, [r4, #56]	@ zero_extendqisi2
 256 01b8 94F839E0 		ldrb	lr, [r4, #57]	@ zero_extendqisi2
 257 01bc 94F83A70 		ldrb	r7, [r4, #58]	@ zero_extendqisi2
 258 01c0 94F83B00 		ldrb	r0, [r4, #59]	@ zero_extendqisi2
 259 01c4 0092     		str	r2, [sp]
 260 01c6 CDF804A0 		str	r10, [sp, #4]
 261 01ca CDF80890 		str	r9, [sp, #8]
 262 01ce 0393     		str	r3, [sp, #12]
 263 01d0 CDF810C0 		str	ip, [sp, #16]
 264 01d4 CDF814E0 		str	lr, [sp, #20]
 265 01d8 0697     		str	r7, [sp, #24]
 266 01da 0790     		str	r0, [sp, #28]
 267 01dc E06B     		ldr	r0, [r4, #60]
 268 01de 0890     		str	r0, [sp, #32]
 269 01e0 606C     		ldr	r0, [r4, #68]
 270 01e2 0990     		str	r0, [sp, #36]
 271 01e4 A06C     		ldr	r0, [r4, #72]
 272 01e6 0A90     		str	r0, [sp, #40]
 273 01e8 E06C     		ldr	r0, [r4, #76]
 274 01ea 0B90     		str	r0, [sp, #44]
 275 01ec 3C48     		ldr	r0, .L15+56
 276 01ee 149A     		ldr	r2, [sp, #80]
 277 01f0 159B     		ldr	r3, [sp, #84]
 278 01f2 FFF7FEFF 		bl	printf
 279              	.LVL27:
  86:.\tm_stat.c   ****                     l->kernel_w, l->kernel_h, l->stride_w, l->stride_h, l->dilation_w, l->dilation_
  87:.\tm_stat.c   ****                     l->act, l->pad[0], l->pad[1], l->pad[2], l->pad[3], l->depth_mul, \
  88:.\tm_stat.c   ****                     l->ws_oft, l->w_oft, l->b_oft);
  89:.\tm_stat.c   ****                 break;}
 280              		.loc 1 89 0
 281 01f6 7AE0     		b	.L4
 282              	.LVL28:
 283              	.L7:
 284              	.LBE4:
  90:.\tm_stat.c   ****             case TML_GAP:
  91:.\tm_stat.c   ****                 ops = (h->in_dims[1])*(h->in_dims[2])*(h->in_dims[3]);  //SUM as ops
 285              		.loc 1 91 0
 286 01f8 658A     		ldrh	r5, [r4, #18]
 287 01fa A38A     		ldrh	r3, [r4, #20]
 288 01fc 03FB05F3 		mul	r3, r3, r5
 289 0200 E58A     		ldrh	r5, [r4, #22]
 290 0202 05FB03F5 		mul	r5, r5, r3
 291              	.LVL29:
  92:.\tm_stat.c   ****                 break;
 292              		.loc 1 92 0
 293 0206 72E0     		b	.L4
 294              	.LVL30:
 295              	.L8:
 296              	.LBB5:
  93:.\tm_stat.c   ****             case TML_FC: {
  94:.\tm_stat.c   ****                 tml_fc_t* l = (tml_fc_t*)(layer_body);
  95:.\tm_stat.c   ****                 ops = (h->out_dims[3])*(h->in_dims[3]);         //MAC as ops
 297              		.loc 1 95 0
 298 0208 E38A     		ldrh	r3, [r4, #22]
 299 020a 03FB05F5 		mul	r5, r3, r5
 300              	.LVL31:
  96:.\tm_stat.c   ****                 TM_DBG("FC: ws_oft=%d, w_oft=%d, b_oft=%d\n",\
ARM GAS  C:\Users\kuzni\AppData\Local\Temp\ccQh08kr.s 			page 8


 301              		.loc 1 96 0
 302 020e 3148     		ldr	r0, .L15+44
 303 0210 6121     		movs	r1, #97
 304              	.LVL32:
 305 0212 FFF7FEFF 		bl	printf
 306              	.LVL33:
 307 0216 3348     		ldr	r0, .L15+60
 308 0218 216B     		ldr	r1, [r4, #48]
 309 021a 626B     		ldr	r2, [r4, #52]
 310 021c A36B     		ldr	r3, [r4, #56]
 311 021e FFF7FEFF 		bl	printf
 312              	.LVL34:
  97:.\tm_stat.c   ****                     l->ws_oft, l->w_oft, l->b_oft);
  98:.\tm_stat.c   ****                 break;}
 313              		.loc 1 98 0
 314 0222 64E0     		b	.L4
 315              	.LVL35:
 316              	.L9:
 317              	.LBE5:
  99:.\tm_stat.c   ****             case TML_SOFTMAX:
 100:.\tm_stat.c   ****                 ops = 6*(h->out_dims[3]);                       //mixed
 318              		.loc 1 100 0
 319 0224 05EB4505 		add	r5, r5, r5, lsl #1
 320 0228 6D00     		lsls	r5, r5, #1
 321              	.LVL36:
 101:.\tm_stat.c   ****                 break;
 322              		.loc 1 101 0
 323 022a 60E0     		b	.L4
 324              	.LVL37:
 325              	.L10:
 326              	.LBB6:
 102:.\tm_stat.c   ****             case TML_DWCONV2D: {
 103:.\tm_stat.c   ****                 tml_conv2d_dw_t* l = (tml_conv2d_dw_t*)(layer_body);
 104:.\tm_stat.c   ****                 ops = memout*(l->kernel_w)*(l->kernel_h)*1;   //MAC as ops
 327              		.loc 1 104 0
 328 022c 94F83050 		ldrb	r5, [r4, #48]	@ zero_extendqisi2
 329 0230 06FB05F3 		mul	r3, r6, r5
 330 0234 94F83150 		ldrb	r5, [r4, #49]	@ zero_extendqisi2
 331 0238 05FB03F5 		mul	r5, r5, r3
 332              	.LVL38:
 105:.\tm_stat.c   ****                 TM_DBG("DWConv2d: kw=%d, kh=%d, sw=%d, sh=%d, dw=%d, dh=%d, act=%d, pad=[%d,%d,%d,%
 333              		.loc 1 105 0
 334 023c 2548     		ldr	r0, .L15+44
 335 023e 6C21     		movs	r1, #108
 336              	.LVL39:
 337 0240 FFF7FEFF 		bl	printf
 338              	.LVL40:
 339 0244 94F83010 		ldrb	r1, [r4, #48]	@ zero_extendqisi2
 340 0248 94F83130 		ldrb	r3, [r4, #49]	@ zero_extendqisi2
 341 024c 1493     		str	r3, [sp, #80]
 342 024e 94F83200 		ldrb	r0, [r4, #50]	@ zero_extendqisi2
 343 0252 1590     		str	r0, [sp, #84]
 344 0254 94F83320 		ldrb	r2, [r4, #51]	@ zero_extendqisi2
 345 0258 94F834A0 		ldrb	r10, [r4, #52]	@ zero_extendqisi2
 346 025c 94F83590 		ldrb	r9, [r4, #53]	@ zero_extendqisi2
 347 0260 E38E     		ldrh	r3, [r4, #54]
 348 0262 94F838C0 		ldrb	ip, [r4, #56]	@ zero_extendqisi2
ARM GAS  C:\Users\kuzni\AppData\Local\Temp\ccQh08kr.s 			page 9


 349 0266 94F839E0 		ldrb	lr, [r4, #57]	@ zero_extendqisi2
 350 026a 94F83A70 		ldrb	r7, [r4, #58]	@ zero_extendqisi2
 351 026e 94F83B00 		ldrb	r0, [r4, #59]	@ zero_extendqisi2
 352 0272 0092     		str	r2, [sp]
 353 0274 CDF804A0 		str	r10, [sp, #4]
 354 0278 CDF80890 		str	r9, [sp, #8]
 355 027c 0393     		str	r3, [sp, #12]
 356 027e CDF810C0 		str	ip, [sp, #16]
 357 0282 CDF814E0 		str	lr, [sp, #20]
 358 0286 0697     		str	r7, [sp, #24]
 359 0288 0790     		str	r0, [sp, #28]
 360 028a E06B     		ldr	r0, [r4, #60]
 361 028c 0890     		str	r0, [sp, #32]
 362 028e 606C     		ldr	r0, [r4, #68]
 363 0290 0990     		str	r0, [sp, #36]
 364 0292 A06C     		ldr	r0, [r4, #72]
 365 0294 0A90     		str	r0, [sp, #40]
 366 0296 E06C     		ldr	r0, [r4, #76]
 367 0298 0B90     		str	r0, [sp, #44]
 368 029a 1348     		ldr	r0, .L15+64
 369 029c 149A     		ldr	r2, [sp, #80]
 370 029e 159B     		ldr	r3, [sp, #84]
 371 02a0 FFF7FEFF 		bl	printf
 372              	.LVL41:
 106:.\tm_stat.c   ****                     l->kernel_w, l->kernel_h, l->stride_w, l->stride_h, l->dilation_w, l->dilation_
 107:.\tm_stat.c   ****                     l->act, l->pad[0], l->pad[1], l->pad[2], l->pad[3], l->depth_mul,\
 108:.\tm_stat.c   ****                     l->ws_oft, l->w_oft, l->b_oft);
 109:.\tm_stat.c   ****                 break;}
 373              		.loc 1 109 0
 374 02a4 23E0     		b	.L4
 375              	.L16:
 376 02a6 00BF     		.align	2
 377              	.L15:
 378 02a8 00000000 		.word	.LC0
 379 02ac 50000000 		.word	.LC1
 380 02b0 00000000 		.word	.LANCHOR0
 381 02b4 64000000 		.word	.LC2
 382 02b8 74000000 		.word	.LC3
 383 02bc A0000000 		.word	.LC4
 384 02c0 BC000000 		.word	.LC5
 385 02c4 DC000000 		.word	.LC6
 386 02c8 00010000 		.word	.LC7
 387 02cc 3C010000 		.word	.LC8
 388 02d0 78010000 		.word	.LC9
 389 02d4 A8010000 		.word	.LC10
 390 02d8 B4010000 		.word	.LC11
 391 02dc C4010000 		.word	.LC12
 392 02e0 54020000 		.word	.LC13
 393 02e4 CC020000 		.word	.LC14
 394 02e8 F0020000 		.word	.LC15
 395              	.LVL42:
 396              	.L13:
 397              	.LBE6:
 110:.\tm_stat.c   ****             default:
 111:.\tm_stat.c   ****                 ops = 0;
 398              		.loc 1 111 0
 399 02ec 0025     		movs	r5, #0
ARM GAS  C:\Users\kuzni\AppData\Local\Temp\ccQh08kr.s 			page 10


 400              	.LVL43:
 401              	.L4:
 112:.\tm_stat.c   ****                 break;
 113:.\tm_stat.c   ****             }
 114:.\tm_stat.c   ****             sum_ops += ops;
 402              		.loc 1 114 0
 403 02ee 139B     		ldr	r3, [sp, #76]
 404 02f0 2B44     		add	r3, r3, r5
 405 02f2 1393     		str	r3, [sp, #76]
 406              	.LVL44:
 115:.\tm_stat.c   ****             printf("%03d\t%s      \t%3d,%3d,%3d\t%d\t%d\t%d\t%ld\t", layer_i, tml_str_tbl[h->type],
 407              		.loc 1 115 0
 408 02f4 2788     		ldrh	r7, [r4]
 116:.\tm_stat.c   ****                 h->out_dims[1], h->out_dims[2], h->out_dims[3], \
 409              		.loc 1 116 0
 410 02f6 638B     		ldrh	r3, [r4, #26]
 411              	.LVL45:
 412 02f8 A18B     		ldrh	r1, [r4, #28]
 413 02fa E08B     		ldrh	r0, [r4, #30]
 117:.\tm_stat.c   ****                 h->in_oft, h->out_oft, h->size - tml_headsize_tbl[h->type], \
 414              		.loc 1 117 0
 415 02fc 284A     		ldr	r2, .L17+8
 416 02fe 02EB8702 		add	r2, r2, r7, lsl #2
 417 0302 9769     		ldr	r7, [r2, #24]
 115:.\tm_stat.c   ****             printf("%03d\t%s      \t%3d,%3d,%3d\t%d\t%d\t%d\t%ld\t", layer_i, tml_str_tbl[h->type],
 418              		.loc 1 115 0
 419 0304 526B     		ldr	r2, [r2, #52]
 420 0306 0091     		str	r1, [sp]
 421 0308 0190     		str	r0, [sp, #4]
 422 030a A068     		ldr	r0, [r4, #8]
 423 030c 0290     		str	r0, [sp, #8]
 424 030e E068     		ldr	r0, [r4, #12]
 425 0310 0390     		str	r0, [sp, #12]
 426 0312 6168     		ldr	r1, [r4, #4]
 427 0314 C91B     		subs	r1, r1, r7
 428 0316 0491     		str	r1, [sp, #16]
 429 0318 0596     		str	r6, [sp, #20]
 430 031a 2248     		ldr	r0, .L17+12
 431 031c 4146     		mov	r1, r8
 432 031e FFF7FEFF 		bl	printf
 433              	.LVL46:
 118:.\tm_stat.c   ****                 (long int)(memout*sizeof(mtype_t)));
 119:.\tm_stat.c   ****             printf("%d\r\n", ops);
 434              		.loc 1 119 0
 435 0322 2148     		ldr	r0, .L17+16
 436 0324 2946     		mov	r1, r5
 437 0326 FFF7FEFF 		bl	printf
 438              	.LVL47:
 439              	.LBE3:
 120:.\tm_stat.c   ****         } else {
 121:.\tm_stat.c   ****             return TM_ERR_LAYERTYPE;
 122:.\tm_stat.c   ****         }
 123:.\tm_stat.c   ****         layer_body += (h->size);
 440              		.loc 1 123 0
 441 032a 6368     		ldr	r3, [r4, #4]
 442 032c 1C44     		add	r4, r4, r3
 443              	.LVL48:
ARM GAS  C:\Users\kuzni\AppData\Local\Temp\ccQh08kr.s 			page 11


 444              	.LBE2:
  69:.\tm_stat.c   ****         tml_head_t* h = (tml_head_t*)(layer_body);
 445              		.loc 1 69 0
 446 032e 08F10108 		add	r8, r8, #1
 447              	.LVL49:
 448              	.L2:
  69:.\tm_stat.c   ****         tml_head_t* h = (tml_head_t*)(layer_body);
 449              		.loc 1 69 0 is_stmt 0 discriminator 1
 450 0332 BBF80A30 		ldrh	r3, [fp, #10]
 451 0336 4345     		cmp	r3, r8
 452 0338 3FF7BFAE 		bgt	.L11
 124:.\tm_stat.c   ****     }
 125:.\tm_stat.c   ****     printf("\r\nTotal param ~%.1f KB, OPS ~%.2f MOPS, buffer %.1f KB\r\n\r\n", \
 126:.\tm_stat.c   ****         sum_param/1024.0, sum_ops/1000000.0, (b->buf_size + b->sub_size)/1024.0);
 453              		.loc 1 126 0 is_stmt 1
 454 033c DBF80C40 		ldr	r4, [fp, #12]
 455              	.LVL50:
 456 0340 DBF81030 		ldr	r3, [fp, #16]
 457 0344 1C44     		add	r4, r4, r3
 125:.\tm_stat.c   ****         sum_param/1024.0, sum_ops/1000000.0, (b->buf_size + b->sub_size)/1024.0);
 458              		.loc 1 125 0
 459 0346 1298     		ldr	r0, [sp, #72]
 460 0348 FFF7FEFF 		bl	__aeabi_i2d
 461              	.LVL51:
 462 034c 0022     		movs	r2, #0
 463 034e 174B     		ldr	r3, .L17+20
 464 0350 FFF7FEFF 		bl	__aeabi_dmul
 465              	.LVL52:
 466 0354 0646     		mov	r6, r0
 467 0356 0F46     		mov	r7, r1
 468 0358 1398     		ldr	r0, [sp, #76]
 469 035a FFF7FEFF 		bl	__aeabi_i2d
 470              	.LVL53:
 471 035e 0EA3     		adr	r3, .L17
 472 0360 D3E90023 		ldrd	r2, [r3]
 473 0364 FFF7FEFF 		bl	__aeabi_ddiv
 474              	.LVL54:
 475 0368 CDE90001 		strd	r0, [sp]
 476 036c 2046     		mov	r0, r4
 477 036e FFF7FEFF 		bl	__aeabi_ui2d
 478              	.LVL55:
 479 0372 0022     		movs	r2, #0
 480 0374 0D4B     		ldr	r3, .L17+20
 481 0376 FFF7FEFF 		bl	__aeabi_dmul
 482              	.LVL56:
 483 037a CDE90201 		strd	r0, [sp, #8]
 484 037e 0C48     		ldr	r0, .L17+24
 485 0380 3246     		mov	r2, r6
 486 0382 3B46     		mov	r3, r7
 487 0384 FFF7FEFF 		bl	printf
 488              	.LVL57:
 127:.\tm_stat.c   ****     return TM_OK;
 489              		.loc 1 127 0
 490 0388 0020     		movs	r0, #0
 491 038a 00E0     		b	.L3
 492              	.LVL58:
 493              	.L12:
ARM GAS  C:\Users\kuzni\AppData\Local\Temp\ccQh08kr.s 			page 12


 494              	.LBB7:
 121:.\tm_stat.c   ****         }
 495              		.loc 1 121 0
 496 038c 0520     		movs	r0, #5
 497              	.LVL59:
 498              	.L3:
 499              	.LBE7:
 128:.\tm_stat.c   **** } 
 500              		.loc 1 128 0
 501 038e 17B0     		add	sp, sp, #92
 502              		.cfi_def_cfa_offset 36
 503              		@ sp needed
 504 0390 BDE8F08F 		pop	{r4, r5, r6, r7, r8, r9, r10, fp, pc}
 505              	.LVL60:
 506              	.L18:
 507 0394 AFF30080 		.align	3
 508              	.L17:
 509 0398 00000000 		.word	0
 510 039c 80842E41 		.word	1093567616
 511 03a0 00000000 		.word	.LANCHOR0
 512 03a4 68030000 		.word	.LC16
 513 03a8 90030000 		.word	.LC17
 514 03ac 0000503F 		.word	1062207488
 515 03b0 98030000 		.word	.LC18
 516              		.cfi_endproc
 517              	.LFE1:
 518              		.size	tm_stat, .-tm_stat
 519 03b4 AFF30080 		.section	.rodata
 520              		.align	2
 521              		.set	.LANCHOR0,. + 0
 522              		.type	mdl_type_str, %object
 523              		.size	mdl_type_str, 24
 524              	mdl_type_str:
 525 0000 04040000 		.word	.LC26
 526 0004 0C040000 		.word	.LC27
 527 0008 14040000 		.word	.LC28
 528 000c 1C040000 		.word	.LC29
 529 0010 24040000 		.word	.LC30
 530 0014 30040000 		.word	.LC31
 531              		.type	tml_headsize_tbl, %object
 532              		.size	tml_headsize_tbl, 28
 533              	tml_headsize_tbl:
 534 0018 50000000 		.word	80
 535 001c 30000000 		.word	48
 536 0020 40000000 		.word	64
 537 0024 30000000 		.word	48
 538 0028 30000000 		.word	48
 539 002c 50000000 		.word	80
 540 0030 40000000 		.word	64
 541              		.type	tml_str_tbl, %object
 542              		.size	tml_str_tbl, 28
 543              	tml_str_tbl:
 544 0034 D4030000 		.word	.LC19
 545 0038 DC030000 		.word	.LC20
 546 003c E0030000 		.word	.LC21
 547 0040 E4030000 		.word	.LC22
 548 0044 EC030000 		.word	.LC23
ARM GAS  C:\Users\kuzni\AppData\Local\Temp\ccQh08kr.s 			page 13


 549 0048 F4030000 		.word	.LC24
 550 004c 00040000 		.word	.LC25
 551              		.section	.rodata.str1.4,"aMS",%progbits,1
 552              		.align	2
 553              	.LC0:
 554 0000 3D3D3D3D 		.ascii	"================================ model stat ======="
 554      3D3D3D3D 
 554      3D3D3D3D 
 554      3D3D3D3D 
 554      3D3D3D3D 
 555 0033 3D3D3D3D 		.ascii	"=========================\000"
 555      3D3D3D3D 
 555      3D3D3D3D 
 555      3D3D3D3D 
 555      3D3D3D3D 
 556 004d 000000   		.space	3
 557              	.LC1:
 558 0050 6D646C5F 		.ascii	"mdl_type=%d (%s))\012\000"
 558      74797065 
 558      3D256420 
 558      28257329 
 558      290A00
 559 0063 00       		.space	1
 560              	.LC2:
 561 0064 6F75745F 		.ascii	"out_deq=%d \012\000"
 561      6465713D 
 561      2564200A 
 561      00
 562 0071 000000   		.space	3
 563              	.LC3:
 564 0074 696E7075 		.ascii	"input_cnt=%d, output_cnt=%d, layer_cnt=%d\012\000"
 564      745F636E 
 564      743D2564 
 564      2C206F75 
 564      74707574 
 565 009f 00       		.space	1
 566              	.LC4:
 567 00a0 696E7075 		.ascii	"input %ddims: (%d, %d, %d)\012\000"
 567      74202564 
 567      64696D73 
 567      3A202825 
 567      642C2025 
 568              	.LC5:
 569 00bc 6F757470 		.ascii	"output %ddims: (%d, %d, %d)\012\000"
 569      75742025 
 569      6464696D 
 569      733A2028 
 569      25642C20 
 570 00d9 000000   		.space	3
 571              	.LC6:
 572 00dc 6D61696E 		.ascii	"main buf size %d; sub buf size %d\012\000"
 572      20627566 
 572      2073697A 
 572      65202564 
 572      3B207375 
 573 00ff 00       		.space	1
 574              	.LC7:
ARM GAS  C:\Users\kuzni\AppData\Local\Temp\ccQh08kr.s 			page 14


 575 0100 2F2F4E6F 		.ascii	"//Note: PARAM is layer param size, include align pa"
 575      74653A20 
 575      50415241 
 575      4D206973 
 575      206C6179 
 576 0133 6464696E 		.ascii	"dding\015\012\015\000"
 576      670D0A0D 
 576      00
 577              	.LC8:
 578 013c 49647809 		.ascii	"Idx\011Layer\011         outshape\011inoft\011outof"
 578      4C617965 
 578      72092020 
 578      20202020 
 578      2020206F 
 579 0163 74095041 		.ascii	"t\011PARAM\011MEMOUT OPS\000"
 579      52414D09 
 579      4D454D4F 
 579      5554204F 
 579      505300
 580 0176 0000     		.space	2
 581              	.LC9:
 582 0178 2D2D2D09 		.ascii	"---\011Input    \011%3d,%3d,%3d\011-   \0110    \011"
 582      496E7075 
 582      74202020 
 582      20092533 
 582      642C2533 
 583 019d 30200925 		.ascii	"0 \011%ld \0110\012\000"
 583      6C642009 
 583      300A00
 584              	.LC10:
 585 01a8 2323234C 		.ascii	"###L%d: \000"
 585      25643A20 
 585      00
 586 01b1 000000   		.space	3
 587              	.LC11:
 588 01b4 626F6479 		.ascii	"body oft = %d\012\000"
 588      206F6674 
 588      203D2025 
 588      640A00
 589 01c3 00       		.space	1
 590              	.LC12:
 591 01c4 74797065 		.ascii	"type=%d, is_out=%d, size=%d, in_oft=%d, out_oft=%d,"
 591      3D25642C 
 591      2069735F 
 591      6F75743D 
 591      25642C20 
 592 01f7 20696E5F 		.ascii	" in_dims=[%d,%d,%d,%d], out_dims=[%d,%d,%d,%d], in_"
 592      64696D73 
 592      3D5B2564 
 592      2C25642C 
 592      25642C25 
 593 022a 733D252E 		.ascii	"s=%.3f, in_zp=%d, out_s=%.3f, out_zp=%d\012\000"
 593      33662C20 
 593      696E5F7A 
 593      703D2564 
 593      2C206F75 
 594 0253 00       		.space	1
ARM GAS  C:\Users\kuzni\AppData\Local\Temp\ccQh08kr.s 			page 15


 595              	.LC13:
 596 0254 436F6E76 		.ascii	"Conv2d: kw=%d, kh=%d, sw=%d, sh=%d, dw=%d, dh=%d, a"
 596      32643A20 
 596      6B773D25 
 596      642C206B 
 596      683D2564 
 597 0287 63743D25 		.ascii	"ct=%d, pad=[%d,%d,%d,%d], dmul=%d, ws_oft=%d, w_oft"
 597      642C2070 
 597      61643D5B 
 597      25642C25 
 597      642C2564 
 598 02ba 3D25642C 		.ascii	"=%d, b_oft=%d\012\000"
 598      20625F6F 
 598      66743D25 
 598      640A00
 599 02c9 000000   		.space	3
 600              	.LC14:
 601 02cc 46433A20 		.ascii	"FC: ws_oft=%d, w_oft=%d, b_oft=%d\012\000"
 601      77735F6F 
 601      66743D25 
 601      642C2077 
 601      5F6F6674 
 602 02ef 00       		.space	1
 603              	.LC15:
 604 02f0 4457436F 		.ascii	"DWConv2d: kw=%d, kh=%d, sw=%d, sh=%d, dw=%d, dh=%d,"
 604      6E763264 
 604      3A206B77 
 604      3D25642C 
 604      206B683D 
 605 0323 20616374 		.ascii	" act=%d, pad=[%d,%d,%d,%d], dmul=%d, ws_oft=%d, w_o"
 605      3D25642C 
 605      20706164 
 605      3D5B2564 
 605      2C25642C 
 606 0356 66743D25 		.ascii	"ft=%d, b_oft=%d\012\000"
 606      642C2062 
 606      5F6F6674 
 606      3D25640A 
 606      00
 607 0367 00       		.space	1
 608              	.LC16:
 609 0368 25303364 		.ascii	"%03d\011%s      \011%3d,%3d,%3d\011%d\011%d\011%d\011"
 609      09257320 
 609      20202020 
 609      20092533 
 609      642C2533 
 610 038b 256C6409 		.ascii	"%ld\011\000"
 610      00
 611              	.LC17:
 612 0390 25640D0A 		.ascii	"%d\015\012\000"
 612      00
 613 0395 000000   		.space	3
 614              	.LC18:
 615 0398 0D0A546F 		.ascii	"\015\012Total param ~%.1f KB, OPS ~%.2f MOPS, buffe"
 615      74616C20 
 615      70617261 
 615      6D207E25 
ARM GAS  C:\Users\kuzni\AppData\Local\Temp\ccQh08kr.s 			page 16


 615      2E316620 
 616 03c5 7220252E 		.ascii	"r %.1f KB\015\012\015\012\000"
 616      3166204B 
 616      420D0A0D 
 616      0A00
 617 03d3 00       		.space	1
 618              	.LC19:
 619 03d4 436F6E76 		.ascii	"Conv2D\000"
 619      324400
 620 03db 00       		.space	1
 621              	.LC20:
 622 03dc 47415000 		.ascii	"GAP\000"
 623              	.LC21:
 624 03e0 464300   		.ascii	"FC\000"
 625 03e3 00       		.space	1
 626              	.LC22:
 627 03e4 536F6674 		.ascii	"Softmax\000"
 627      6D617800 
 628              	.LC23:
 629 03ec 52657368 		.ascii	"Reshape\000"
 629      61706500 
 630              	.LC24:
 631 03f4 4457436F 		.ascii	"DWConv2D\000"
 631      6E763244 
 631      00
 632 03fd 000000   		.space	3
 633              	.LC25:
 634 0400 41444400 		.ascii	"ADD\000"
 635              	.LC26:
 636 0404 696E7438 		.ascii	"int8\000"
 636      00
 637 0409 000000   		.space	3
 638              	.LC27:
 639 040c 696E7431 		.ascii	"int16\000"
 639      3600
 640 0412 0000     		.space	2
 641              	.LC28:
 642 0414 66703332 		.ascii	"fp32\000"
 642      00
 643 0419 000000   		.space	3
 644              	.LC29:
 645 041c 66703136 		.ascii	"fp16\000"
 645      00
 646 0421 000000   		.space	3
 647              	.LC30:
 648 0424 66703820 		.ascii	"fp8 1.4.3\000"
 648      312E342E 
 648      3300
 649 042e 0000     		.space	2
 650              	.LC31:
 651 0430 66703820 		.ascii	"fp8 1.5.2\000"
 651      312E352E 
 651      3200
 652 043a 0000     		.text
 653              	.Letext0:
 654              		.file 2 "c:\\program files (x86)\\cypress\\psoc creator\\3.3\\psoc creator\\import\\gnu\\arm\\4.9.
 655              		.file 3 "c:\\program files (x86)\\cypress\\psoc creator\\3.3\\psoc creator\\import\\gnu\\arm\\4.9.
ARM GAS  C:\Users\kuzni\AppData\Local\Temp\ccQh08kr.s 			page 17


 656              		.file 4 "c:\\program files (x86)\\cypress\\psoc creator\\3.3\\psoc creator\\import\\gnu\\arm\\4.9.
 657              		.file 5 ".\\tinymaix.h"
 658              		.file 6 "c:\\program files (x86)\\cypress\\psoc creator\\3.3\\psoc creator\\import\\gnu\\arm\\4.9.
 659              		.file 7 "<built-in>"